ARM GAS  /tmp/cc3tDhb2.s 			page 1


   1              		.cpu cortex-m4
   2              		.eabi_attribute 27, 1
   3              		.eabi_attribute 28, 1
   4              		.eabi_attribute 20, 1
   5              		.eabi_attribute 21, 1
   6              		.eabi_attribute 23, 3
   7              		.eabi_attribute 24, 1
   8              		.eabi_attribute 25, 1
   9              		.eabi_attribute 26, 1
  10              		.eabi_attribute 30, 1
  11              		.eabi_attribute 34, 1
  12              		.eabi_attribute 18, 4
  13              		.file	"sockets.c"
  14              		.text
  15              	.Ltext0:
  16              		.cfi_sections	.debug_frame
  17              		.section	.text.tryget_socket_unconn_nouse,"ax",%progbits
  18              		.align	1
  19              		.arch armv7e-m
  20              		.syntax unified
  21              		.thumb
  22              		.thumb_func
  23              		.fpu fpv4-sp-d16
  25              	tryget_socket_unconn_nouse:
  26              	.LVL0:
  27              	.LFB161:
  28              		.file 1 "Middlewares/Third_Party/LwIP/src/api/sockets.c"
   1:Middlewares/Third_Party/LwIP/src/api/sockets.c **** /**
   2:Middlewares/Third_Party/LwIP/src/api/sockets.c ****  * @file
   3:Middlewares/Third_Party/LwIP/src/api/sockets.c ****  * Sockets BSD-Like API module
   4:Middlewares/Third_Party/LwIP/src/api/sockets.c ****  */
   5:Middlewares/Third_Party/LwIP/src/api/sockets.c **** 
   6:Middlewares/Third_Party/LwIP/src/api/sockets.c **** /*
   7:Middlewares/Third_Party/LwIP/src/api/sockets.c ****  * Copyright (c) 2001-2004 Swedish Institute of Computer Science.
   8:Middlewares/Third_Party/LwIP/src/api/sockets.c ****  * All rights reserved.
   9:Middlewares/Third_Party/LwIP/src/api/sockets.c ****  *
  10:Middlewares/Third_Party/LwIP/src/api/sockets.c ****  * Redistribution and use in source and binary forms, with or without modification,
  11:Middlewares/Third_Party/LwIP/src/api/sockets.c ****  * are permitted provided that the following conditions are met:
  12:Middlewares/Third_Party/LwIP/src/api/sockets.c ****  *
  13:Middlewares/Third_Party/LwIP/src/api/sockets.c ****  * 1. Redistributions of source code must retain the above copyright notice,
  14:Middlewares/Third_Party/LwIP/src/api/sockets.c ****  *    this list of conditions and the following disclaimer.
  15:Middlewares/Third_Party/LwIP/src/api/sockets.c ****  * 2. Redistributions in binary form must reproduce the above copyright notice,
  16:Middlewares/Third_Party/LwIP/src/api/sockets.c ****  *    this list of conditions and the following disclaimer in the documentation
  17:Middlewares/Third_Party/LwIP/src/api/sockets.c ****  *    and/or other materials provided with the distribution.
  18:Middlewares/Third_Party/LwIP/src/api/sockets.c ****  * 3. The name of the author may not be used to endorse or promote products
  19:Middlewares/Third_Party/LwIP/src/api/sockets.c ****  *    derived from this software without specific prior written permission.
  20:Middlewares/Third_Party/LwIP/src/api/sockets.c ****  *
  21:Middlewares/Third_Party/LwIP/src/api/sockets.c ****  * THIS SOFTWARE IS PROVIDED BY THE AUTHOR ``AS IS'' AND ANY EXPRESS OR IMPLIED
  22:Middlewares/Third_Party/LwIP/src/api/sockets.c ****  * WARRANTIES, INCLUDING, BUT NOT LIMITED TO, THE IMPLIED WARRANTIES OF
  23:Middlewares/Third_Party/LwIP/src/api/sockets.c ****  * MERCHANTABILITY AND FITNESS FOR A PARTICULAR PURPOSE ARE DISCLAIMED. IN NO EVENT
  24:Middlewares/Third_Party/LwIP/src/api/sockets.c ****  * SHALL THE AUTHOR BE LIABLE FOR ANY DIRECT, INDIRECT, INCIDENTAL, SPECIAL,
  25:Middlewares/Third_Party/LwIP/src/api/sockets.c ****  * EXEMPLARY, OR CONSEQUENTIAL DAMAGES (INCLUDING, BUT NOT LIMITED TO, PROCUREMENT
  26:Middlewares/Third_Party/LwIP/src/api/sockets.c ****  * OF SUBSTITUTE GOODS OR SERVICES; LOSS OF USE, DATA, OR PROFITS; OR BUSINESS
  27:Middlewares/Third_Party/LwIP/src/api/sockets.c ****  * INTERRUPTION) HOWEVER CAUSED AND ON ANY THEORY OF LIABILITY, WHETHER IN
  28:Middlewares/Third_Party/LwIP/src/api/sockets.c ****  * CONTRACT, STRICT LIABILITY, OR TORT (INCLUDING NEGLIGENCE OR OTHERWISE) ARISING
  29:Middlewares/Third_Party/LwIP/src/api/sockets.c ****  * IN ANY WAY OUT OF THE USE OF THIS SOFTWARE, EVEN IF ADVISED OF THE POSSIBILITY
  30:Middlewares/Third_Party/LwIP/src/api/sockets.c ****  * OF SUCH DAMAGE.
ARM GAS  /tmp/cc3tDhb2.s 			page 2


  31:Middlewares/Third_Party/LwIP/src/api/sockets.c ****  *
  32:Middlewares/Third_Party/LwIP/src/api/sockets.c ****  * This file is part of the lwIP TCP/IP stack.
  33:Middlewares/Third_Party/LwIP/src/api/sockets.c ****  *
  34:Middlewares/Third_Party/LwIP/src/api/sockets.c ****  * Author: Adam Dunkels <adam@sics.se>
  35:Middlewares/Third_Party/LwIP/src/api/sockets.c ****  *
  36:Middlewares/Third_Party/LwIP/src/api/sockets.c ****  * Improved by Marc Boucher <marc@mbsi.ca> and David Haas <dhaas@alum.rpi.edu>
  37:Middlewares/Third_Party/LwIP/src/api/sockets.c ****  *
  38:Middlewares/Third_Party/LwIP/src/api/sockets.c ****  */
  39:Middlewares/Third_Party/LwIP/src/api/sockets.c **** 
  40:Middlewares/Third_Party/LwIP/src/api/sockets.c **** #include "lwip/opt.h"
  41:Middlewares/Third_Party/LwIP/src/api/sockets.c **** 
  42:Middlewares/Third_Party/LwIP/src/api/sockets.c **** #if LWIP_SOCKET /* don't build if not configured for use in lwipopts.h */
  43:Middlewares/Third_Party/LwIP/src/api/sockets.c **** 
  44:Middlewares/Third_Party/LwIP/src/api/sockets.c **** #include "lwip/sockets.h"
  45:Middlewares/Third_Party/LwIP/src/api/sockets.c **** #include "lwip/priv/sockets_priv.h"
  46:Middlewares/Third_Party/LwIP/src/api/sockets.c **** #include "lwip/api.h"
  47:Middlewares/Third_Party/LwIP/src/api/sockets.c **** #include "lwip/igmp.h"
  48:Middlewares/Third_Party/LwIP/src/api/sockets.c **** #include "lwip/inet.h"
  49:Middlewares/Third_Party/LwIP/src/api/sockets.c **** #include "lwip/tcp.h"
  50:Middlewares/Third_Party/LwIP/src/api/sockets.c **** #include "lwip/raw.h"
  51:Middlewares/Third_Party/LwIP/src/api/sockets.c **** #include "lwip/udp.h"
  52:Middlewares/Third_Party/LwIP/src/api/sockets.c **** #include "lwip/memp.h"
  53:Middlewares/Third_Party/LwIP/src/api/sockets.c **** #include "lwip/pbuf.h"
  54:Middlewares/Third_Party/LwIP/src/api/sockets.c **** #include "lwip/netif.h"
  55:Middlewares/Third_Party/LwIP/src/api/sockets.c **** #include "lwip/priv/tcpip_priv.h"
  56:Middlewares/Third_Party/LwIP/src/api/sockets.c **** #include "lwip/mld6.h"
  57:Middlewares/Third_Party/LwIP/src/api/sockets.c **** #if LWIP_CHECKSUM_ON_COPY
  58:Middlewares/Third_Party/LwIP/src/api/sockets.c **** #include "lwip/inet_chksum.h"
  59:Middlewares/Third_Party/LwIP/src/api/sockets.c **** #endif
  60:Middlewares/Third_Party/LwIP/src/api/sockets.c **** 
  61:Middlewares/Third_Party/LwIP/src/api/sockets.c **** #if LWIP_COMPAT_SOCKETS == 2 && LWIP_POSIX_SOCKETS_IO_NAMES
  62:Middlewares/Third_Party/LwIP/src/api/sockets.c **** #include <stdarg.h>
  63:Middlewares/Third_Party/LwIP/src/api/sockets.c **** #endif
  64:Middlewares/Third_Party/LwIP/src/api/sockets.c **** 
  65:Middlewares/Third_Party/LwIP/src/api/sockets.c **** #include <string.h>
  66:Middlewares/Third_Party/LwIP/src/api/sockets.c **** 
  67:Middlewares/Third_Party/LwIP/src/api/sockets.c **** #ifdef LWIP_HOOK_FILENAME
  68:Middlewares/Third_Party/LwIP/src/api/sockets.c **** #include LWIP_HOOK_FILENAME
  69:Middlewares/Third_Party/LwIP/src/api/sockets.c **** #endif
  70:Middlewares/Third_Party/LwIP/src/api/sockets.c **** 
  71:Middlewares/Third_Party/LwIP/src/api/sockets.c **** /* If the netconn API is not required publicly, then we include the necessary
  72:Middlewares/Third_Party/LwIP/src/api/sockets.c ****    files here to get the implementation */
  73:Middlewares/Third_Party/LwIP/src/api/sockets.c **** #if !LWIP_NETCONN
  74:Middlewares/Third_Party/LwIP/src/api/sockets.c **** #undef LWIP_NETCONN
  75:Middlewares/Third_Party/LwIP/src/api/sockets.c **** #define LWIP_NETCONN 1
  76:Middlewares/Third_Party/LwIP/src/api/sockets.c **** #include "api_msg.c"
  77:Middlewares/Third_Party/LwIP/src/api/sockets.c **** #include "api_lib.c"
  78:Middlewares/Third_Party/LwIP/src/api/sockets.c **** #include "netbuf.c"
  79:Middlewares/Third_Party/LwIP/src/api/sockets.c **** #undef LWIP_NETCONN
  80:Middlewares/Third_Party/LwIP/src/api/sockets.c **** #define LWIP_NETCONN 0
  81:Middlewares/Third_Party/LwIP/src/api/sockets.c **** #endif
  82:Middlewares/Third_Party/LwIP/src/api/sockets.c **** 
  83:Middlewares/Third_Party/LwIP/src/api/sockets.c **** #define API_SELECT_CB_VAR_REF(name)               API_VAR_REF(name)
  84:Middlewares/Third_Party/LwIP/src/api/sockets.c **** #define API_SELECT_CB_VAR_DECLARE(name)           API_VAR_DECLARE(struct lwip_select_cb, name)
  85:Middlewares/Third_Party/LwIP/src/api/sockets.c **** #define API_SELECT_CB_VAR_ALLOC(name, retblock)   API_VAR_ALLOC_EXT(struct lwip_select_cb, MEMP_SEL
  86:Middlewares/Third_Party/LwIP/src/api/sockets.c **** #define API_SELECT_CB_VAR_FREE(name)              API_VAR_FREE(MEMP_SELECT_CB, name)
  87:Middlewares/Third_Party/LwIP/src/api/sockets.c **** 
ARM GAS  /tmp/cc3tDhb2.s 			page 3


  88:Middlewares/Third_Party/LwIP/src/api/sockets.c **** #if LWIP_IPV4
  89:Middlewares/Third_Party/LwIP/src/api/sockets.c **** #define IP4ADDR_PORT_TO_SOCKADDR(sin, ipaddr, port) do { \
  90:Middlewares/Third_Party/LwIP/src/api/sockets.c ****       (sin)->sin_len = sizeof(struct sockaddr_in); \
  91:Middlewares/Third_Party/LwIP/src/api/sockets.c ****       (sin)->sin_family = AF_INET; \
  92:Middlewares/Third_Party/LwIP/src/api/sockets.c ****       (sin)->sin_port = lwip_htons((port)); \
  93:Middlewares/Third_Party/LwIP/src/api/sockets.c ****       inet_addr_from_ip4addr(&(sin)->sin_addr, ipaddr); \
  94:Middlewares/Third_Party/LwIP/src/api/sockets.c ****       memset((sin)->sin_zero, 0, SIN_ZERO_LEN); }while(0)
  95:Middlewares/Third_Party/LwIP/src/api/sockets.c **** #define SOCKADDR4_TO_IP4ADDR_PORT(sin, ipaddr, port) do { \
  96:Middlewares/Third_Party/LwIP/src/api/sockets.c ****     inet_addr_to_ip4addr(ip_2_ip4(ipaddr), &((sin)->sin_addr)); \
  97:Middlewares/Third_Party/LwIP/src/api/sockets.c ****     (port) = lwip_ntohs((sin)->sin_port); }while(0)
  98:Middlewares/Third_Party/LwIP/src/api/sockets.c **** #endif /* LWIP_IPV4 */
  99:Middlewares/Third_Party/LwIP/src/api/sockets.c **** 
 100:Middlewares/Third_Party/LwIP/src/api/sockets.c **** #if LWIP_IPV6
 101:Middlewares/Third_Party/LwIP/src/api/sockets.c **** #define IP6ADDR_PORT_TO_SOCKADDR(sin6, ipaddr, port) do { \
 102:Middlewares/Third_Party/LwIP/src/api/sockets.c ****       (sin6)->sin6_len = sizeof(struct sockaddr_in6); \
 103:Middlewares/Third_Party/LwIP/src/api/sockets.c ****       (sin6)->sin6_family = AF_INET6; \
 104:Middlewares/Third_Party/LwIP/src/api/sockets.c ****       (sin6)->sin6_port = lwip_htons((port)); \
 105:Middlewares/Third_Party/LwIP/src/api/sockets.c ****       (sin6)->sin6_flowinfo = 0; \
 106:Middlewares/Third_Party/LwIP/src/api/sockets.c ****       inet6_addr_from_ip6addr(&(sin6)->sin6_addr, ipaddr); \
 107:Middlewares/Third_Party/LwIP/src/api/sockets.c ****       (sin6)->sin6_scope_id = ip6_addr_zone(ipaddr); }while(0)
 108:Middlewares/Third_Party/LwIP/src/api/sockets.c **** #define SOCKADDR6_TO_IP6ADDR_PORT(sin6, ipaddr, port) do { \
 109:Middlewares/Third_Party/LwIP/src/api/sockets.c ****     inet6_addr_to_ip6addr(ip_2_ip6(ipaddr), &((sin6)->sin6_addr)); \
 110:Middlewares/Third_Party/LwIP/src/api/sockets.c ****     if (ip6_addr_has_scope(ip_2_ip6(ipaddr), IP6_UNKNOWN)) { \
 111:Middlewares/Third_Party/LwIP/src/api/sockets.c ****       ip6_addr_set_zone(ip_2_ip6(ipaddr), (u8_t)((sin6)->sin6_scope_id)); \
 112:Middlewares/Third_Party/LwIP/src/api/sockets.c ****     } \
 113:Middlewares/Third_Party/LwIP/src/api/sockets.c ****     (port) = lwip_ntohs((sin6)->sin6_port); }while(0)
 114:Middlewares/Third_Party/LwIP/src/api/sockets.c **** #endif /* LWIP_IPV6 */
 115:Middlewares/Third_Party/LwIP/src/api/sockets.c **** 
 116:Middlewares/Third_Party/LwIP/src/api/sockets.c **** #if LWIP_IPV4 && LWIP_IPV6
 117:Middlewares/Third_Party/LwIP/src/api/sockets.c **** static void sockaddr_to_ipaddr_port(const struct sockaddr *sockaddr, ip_addr_t *ipaddr, u16_t *port
 118:Middlewares/Third_Party/LwIP/src/api/sockets.c **** 
 119:Middlewares/Third_Party/LwIP/src/api/sockets.c **** #define IS_SOCK_ADDR_LEN_VALID(namelen)  (((namelen) == sizeof(struct sockaddr_in)) || \
 120:Middlewares/Third_Party/LwIP/src/api/sockets.c ****                                          ((namelen) == sizeof(struct sockaddr_in6)))
 121:Middlewares/Third_Party/LwIP/src/api/sockets.c **** #define IS_SOCK_ADDR_TYPE_VALID(name)    (((name)->sa_family == AF_INET) || \
 122:Middlewares/Third_Party/LwIP/src/api/sockets.c ****                                          ((name)->sa_family == AF_INET6))
 123:Middlewares/Third_Party/LwIP/src/api/sockets.c **** #define SOCK_ADDR_TYPE_MATCH(name, sock) \
 124:Middlewares/Third_Party/LwIP/src/api/sockets.c ****        ((((name)->sa_family == AF_INET) && !(NETCONNTYPE_ISIPV6((sock)->conn->type))) || \
 125:Middlewares/Third_Party/LwIP/src/api/sockets.c ****        (((name)->sa_family == AF_INET6) && (NETCONNTYPE_ISIPV6((sock)->conn->type))))
 126:Middlewares/Third_Party/LwIP/src/api/sockets.c **** #define IPADDR_PORT_TO_SOCKADDR(sockaddr, ipaddr, port) do { \
 127:Middlewares/Third_Party/LwIP/src/api/sockets.c ****     if (IP_IS_ANY_TYPE_VAL(*ipaddr) || IP_IS_V6_VAL(*ipaddr)) { \
 128:Middlewares/Third_Party/LwIP/src/api/sockets.c ****       IP6ADDR_PORT_TO_SOCKADDR((struct sockaddr_in6*)(void*)(sockaddr), ip_2_ip6(ipaddr), port); \
 129:Middlewares/Third_Party/LwIP/src/api/sockets.c ****     } else { \
 130:Middlewares/Third_Party/LwIP/src/api/sockets.c ****       IP4ADDR_PORT_TO_SOCKADDR((struct sockaddr_in*)(void*)(sockaddr), ip_2_ip4(ipaddr), port); \
 131:Middlewares/Third_Party/LwIP/src/api/sockets.c ****     } } while(0)
 132:Middlewares/Third_Party/LwIP/src/api/sockets.c **** #define SOCKADDR_TO_IPADDR_PORT(sockaddr, ipaddr, port) sockaddr_to_ipaddr_port(sockaddr, ipaddr, &
 133:Middlewares/Third_Party/LwIP/src/api/sockets.c **** #define DOMAIN_TO_NETCONN_TYPE(domain, type) (((domain) == AF_INET) ? \
 134:Middlewares/Third_Party/LwIP/src/api/sockets.c ****   (type) : (enum netconn_type)((type) | NETCONN_TYPE_IPV6))
 135:Middlewares/Third_Party/LwIP/src/api/sockets.c **** #elif LWIP_IPV6 /* LWIP_IPV4 && LWIP_IPV6 */
 136:Middlewares/Third_Party/LwIP/src/api/sockets.c **** #define IS_SOCK_ADDR_LEN_VALID(namelen)  ((namelen) == sizeof(struct sockaddr_in6))
 137:Middlewares/Third_Party/LwIP/src/api/sockets.c **** #define IS_SOCK_ADDR_TYPE_VALID(name)    ((name)->sa_family == AF_INET6)
 138:Middlewares/Third_Party/LwIP/src/api/sockets.c **** #define SOCK_ADDR_TYPE_MATCH(name, sock) 1
 139:Middlewares/Third_Party/LwIP/src/api/sockets.c **** #define IPADDR_PORT_TO_SOCKADDR(sockaddr, ipaddr, port) \
 140:Middlewares/Third_Party/LwIP/src/api/sockets.c ****         IP6ADDR_PORT_TO_SOCKADDR((struct sockaddr_in6*)(void*)(sockaddr), ip_2_ip6(ipaddr), port)
 141:Middlewares/Third_Party/LwIP/src/api/sockets.c **** #define SOCKADDR_TO_IPADDR_PORT(sockaddr, ipaddr, port) \
 142:Middlewares/Third_Party/LwIP/src/api/sockets.c ****         SOCKADDR6_TO_IP6ADDR_PORT((const struct sockaddr_in6*)(const void*)(sockaddr), ipaddr, port
 143:Middlewares/Third_Party/LwIP/src/api/sockets.c **** #define DOMAIN_TO_NETCONN_TYPE(domain, netconn_type) (netconn_type)
 144:Middlewares/Third_Party/LwIP/src/api/sockets.c **** #else /*-> LWIP_IPV4: LWIP_IPV4 && LWIP_IPV6 */
ARM GAS  /tmp/cc3tDhb2.s 			page 4


 145:Middlewares/Third_Party/LwIP/src/api/sockets.c **** #define IS_SOCK_ADDR_LEN_VALID(namelen)  ((namelen) == sizeof(struct sockaddr_in))
 146:Middlewares/Third_Party/LwIP/src/api/sockets.c **** #define IS_SOCK_ADDR_TYPE_VALID(name)    ((name)->sa_family == AF_INET)
 147:Middlewares/Third_Party/LwIP/src/api/sockets.c **** #define SOCK_ADDR_TYPE_MATCH(name, sock) 1
 148:Middlewares/Third_Party/LwIP/src/api/sockets.c **** #define IPADDR_PORT_TO_SOCKADDR(sockaddr, ipaddr, port) \
 149:Middlewares/Third_Party/LwIP/src/api/sockets.c ****         IP4ADDR_PORT_TO_SOCKADDR((struct sockaddr_in*)(void*)(sockaddr), ip_2_ip4(ipaddr), port)
 150:Middlewares/Third_Party/LwIP/src/api/sockets.c **** #define SOCKADDR_TO_IPADDR_PORT(sockaddr, ipaddr, port) \
 151:Middlewares/Third_Party/LwIP/src/api/sockets.c ****         SOCKADDR4_TO_IP4ADDR_PORT((const struct sockaddr_in*)(const void*)(sockaddr), ipaddr, port)
 152:Middlewares/Third_Party/LwIP/src/api/sockets.c **** #define DOMAIN_TO_NETCONN_TYPE(domain, netconn_type) (netconn_type)
 153:Middlewares/Third_Party/LwIP/src/api/sockets.c **** #endif /* LWIP_IPV6 */
 154:Middlewares/Third_Party/LwIP/src/api/sockets.c **** 
 155:Middlewares/Third_Party/LwIP/src/api/sockets.c **** #define IS_SOCK_ADDR_TYPE_VALID_OR_UNSPEC(name)    (((name)->sa_family == AF_UNSPEC) || \
 156:Middlewares/Third_Party/LwIP/src/api/sockets.c ****                                                     IS_SOCK_ADDR_TYPE_VALID(name))
 157:Middlewares/Third_Party/LwIP/src/api/sockets.c **** #define SOCK_ADDR_TYPE_MATCH_OR_UNSPEC(name, sock) (((name)->sa_family == AF_UNSPEC) || \
 158:Middlewares/Third_Party/LwIP/src/api/sockets.c ****                                                     SOCK_ADDR_TYPE_MATCH(name, sock))
 159:Middlewares/Third_Party/LwIP/src/api/sockets.c **** #define IS_SOCK_ADDR_ALIGNED(name)      ((((mem_ptr_t)(name)) % 4) == 0)
 160:Middlewares/Third_Party/LwIP/src/api/sockets.c **** 
 161:Middlewares/Third_Party/LwIP/src/api/sockets.c **** 
 162:Middlewares/Third_Party/LwIP/src/api/sockets.c **** #define LWIP_SOCKOPT_CHECK_OPTLEN(sock, optlen, opttype) do { if ((optlen) < sizeof(opttype)) { don
 163:Middlewares/Third_Party/LwIP/src/api/sockets.c **** #define LWIP_SOCKOPT_CHECK_OPTLEN_CONN(sock, optlen, opttype) do { \
 164:Middlewares/Third_Party/LwIP/src/api/sockets.c ****   LWIP_SOCKOPT_CHECK_OPTLEN(sock, optlen, opttype); \
 165:Middlewares/Third_Party/LwIP/src/api/sockets.c ****   if ((sock)->conn == NULL) { done_socket(sock); return EINVAL; } }while(0)
 166:Middlewares/Third_Party/LwIP/src/api/sockets.c **** #define LWIP_SOCKOPT_CHECK_OPTLEN_CONN_PCB(sock, optlen, opttype) do { \
 167:Middlewares/Third_Party/LwIP/src/api/sockets.c ****   LWIP_SOCKOPT_CHECK_OPTLEN(sock, optlen, opttype); \
 168:Middlewares/Third_Party/LwIP/src/api/sockets.c ****   if (((sock)->conn == NULL) || ((sock)->conn->pcb.tcp == NULL)) { done_socket(sock); return EINVAL
 169:Middlewares/Third_Party/LwIP/src/api/sockets.c **** #define LWIP_SOCKOPT_CHECK_OPTLEN_CONN_PCB_TYPE(sock, optlen, opttype, netconntype) do { \
 170:Middlewares/Third_Party/LwIP/src/api/sockets.c ****   LWIP_SOCKOPT_CHECK_OPTLEN_CONN_PCB(sock, optlen, opttype); \
 171:Middlewares/Third_Party/LwIP/src/api/sockets.c ****   if (NETCONNTYPE_GROUP(netconn_type((sock)->conn)) != netconntype) { done_socket(sock); return ENO
 172:Middlewares/Third_Party/LwIP/src/api/sockets.c **** 
 173:Middlewares/Third_Party/LwIP/src/api/sockets.c **** 
 174:Middlewares/Third_Party/LwIP/src/api/sockets.c **** #define LWIP_SETGETSOCKOPT_DATA_VAR_REF(name)     API_VAR_REF(name)
 175:Middlewares/Third_Party/LwIP/src/api/sockets.c **** #define LWIP_SETGETSOCKOPT_DATA_VAR_DECLARE(name) API_VAR_DECLARE(struct lwip_setgetsockopt_data, n
 176:Middlewares/Third_Party/LwIP/src/api/sockets.c **** #define LWIP_SETGETSOCKOPT_DATA_VAR_FREE(name)    API_VAR_FREE(MEMP_SOCKET_SETGETSOCKOPT_DATA, name
 177:Middlewares/Third_Party/LwIP/src/api/sockets.c **** #if LWIP_MPU_COMPATIBLE
 178:Middlewares/Third_Party/LwIP/src/api/sockets.c **** #define LWIP_SETGETSOCKOPT_DATA_VAR_ALLOC(name, sock) do { \
 179:Middlewares/Third_Party/LwIP/src/api/sockets.c ****   name = (struct lwip_setgetsockopt_data *)memp_malloc(MEMP_SOCKET_SETGETSOCKOPT_DATA); \
 180:Middlewares/Third_Party/LwIP/src/api/sockets.c ****   if (name == NULL) { \
 181:Middlewares/Third_Party/LwIP/src/api/sockets.c ****     sock_set_errno(sock, ENOMEM); \
 182:Middlewares/Third_Party/LwIP/src/api/sockets.c ****     done_socket(sock); \
 183:Middlewares/Third_Party/LwIP/src/api/sockets.c ****     return -1; \
 184:Middlewares/Third_Party/LwIP/src/api/sockets.c ****   } }while(0)
 185:Middlewares/Third_Party/LwIP/src/api/sockets.c **** #else /* LWIP_MPU_COMPATIBLE */
 186:Middlewares/Third_Party/LwIP/src/api/sockets.c **** #define LWIP_SETGETSOCKOPT_DATA_VAR_ALLOC(name, sock)
 187:Middlewares/Third_Party/LwIP/src/api/sockets.c **** #endif /* LWIP_MPU_COMPATIBLE */
 188:Middlewares/Third_Party/LwIP/src/api/sockets.c **** 
 189:Middlewares/Third_Party/LwIP/src/api/sockets.c **** #if LWIP_SO_SNDRCVTIMEO_NONSTANDARD
 190:Middlewares/Third_Party/LwIP/src/api/sockets.c **** #define LWIP_SO_SNDRCVTIMEO_OPTTYPE int
 191:Middlewares/Third_Party/LwIP/src/api/sockets.c **** #define LWIP_SO_SNDRCVTIMEO_SET(optval, val) (*(int *)(optval) = (val))
 192:Middlewares/Third_Party/LwIP/src/api/sockets.c **** #define LWIP_SO_SNDRCVTIMEO_GET_MS(optval)   ((long)*(const int*)(optval))
 193:Middlewares/Third_Party/LwIP/src/api/sockets.c **** #else
 194:Middlewares/Third_Party/LwIP/src/api/sockets.c **** #define LWIP_SO_SNDRCVTIMEO_OPTTYPE struct timeval
 195:Middlewares/Third_Party/LwIP/src/api/sockets.c **** #define LWIP_SO_SNDRCVTIMEO_SET(optval, val)  do { \
 196:Middlewares/Third_Party/LwIP/src/api/sockets.c ****   u32_t loc = (val); \
 197:Middlewares/Third_Party/LwIP/src/api/sockets.c ****   ((struct timeval *)(optval))->tv_sec = (long)((loc) / 1000U); \
 198:Middlewares/Third_Party/LwIP/src/api/sockets.c ****   ((struct timeval *)(optval))->tv_usec = (long)(((loc) % 1000U) * 1000U); }while(0)
 199:Middlewares/Third_Party/LwIP/src/api/sockets.c **** #define LWIP_SO_SNDRCVTIMEO_GET_MS(optval) ((((const struct timeval *)(optval))->tv_sec * 1000) + (
 200:Middlewares/Third_Party/LwIP/src/api/sockets.c **** #endif
 201:Middlewares/Third_Party/LwIP/src/api/sockets.c **** 
ARM GAS  /tmp/cc3tDhb2.s 			page 5


 202:Middlewares/Third_Party/LwIP/src/api/sockets.c **** 
 203:Middlewares/Third_Party/LwIP/src/api/sockets.c **** /** A struct sockaddr replacement that has the same alignment as sockaddr_in/
 204:Middlewares/Third_Party/LwIP/src/api/sockets.c ****  *  sockaddr_in6 if instantiated.
 205:Middlewares/Third_Party/LwIP/src/api/sockets.c ****  */
 206:Middlewares/Third_Party/LwIP/src/api/sockets.c **** union sockaddr_aligned {
 207:Middlewares/Third_Party/LwIP/src/api/sockets.c ****   struct sockaddr sa;
 208:Middlewares/Third_Party/LwIP/src/api/sockets.c **** #if LWIP_IPV6
 209:Middlewares/Third_Party/LwIP/src/api/sockets.c ****   struct sockaddr_in6 sin6;
 210:Middlewares/Third_Party/LwIP/src/api/sockets.c **** #endif /* LWIP_IPV6 */
 211:Middlewares/Third_Party/LwIP/src/api/sockets.c **** #if LWIP_IPV4
 212:Middlewares/Third_Party/LwIP/src/api/sockets.c ****   struct sockaddr_in sin;
 213:Middlewares/Third_Party/LwIP/src/api/sockets.c **** #endif /* LWIP_IPV4 */
 214:Middlewares/Third_Party/LwIP/src/api/sockets.c **** };
 215:Middlewares/Third_Party/LwIP/src/api/sockets.c **** 
 216:Middlewares/Third_Party/LwIP/src/api/sockets.c **** /* Define the number of IPv4 multicast memberships, default is one per socket */
 217:Middlewares/Third_Party/LwIP/src/api/sockets.c **** #ifndef LWIP_SOCKET_MAX_MEMBERSHIPS
 218:Middlewares/Third_Party/LwIP/src/api/sockets.c **** #define LWIP_SOCKET_MAX_MEMBERSHIPS NUM_SOCKETS
 219:Middlewares/Third_Party/LwIP/src/api/sockets.c **** #endif
 220:Middlewares/Third_Party/LwIP/src/api/sockets.c **** 
 221:Middlewares/Third_Party/LwIP/src/api/sockets.c **** #if LWIP_IGMP
 222:Middlewares/Third_Party/LwIP/src/api/sockets.c **** /* This is to keep track of IP_ADD_MEMBERSHIP calls to drop the membership when
 223:Middlewares/Third_Party/LwIP/src/api/sockets.c ****    a socket is closed */
 224:Middlewares/Third_Party/LwIP/src/api/sockets.c **** struct lwip_socket_multicast_pair {
 225:Middlewares/Third_Party/LwIP/src/api/sockets.c ****   /** the socket */
 226:Middlewares/Third_Party/LwIP/src/api/sockets.c ****   struct lwip_sock *sock;
 227:Middlewares/Third_Party/LwIP/src/api/sockets.c ****   /** the interface address */
 228:Middlewares/Third_Party/LwIP/src/api/sockets.c ****   ip4_addr_t if_addr;
 229:Middlewares/Third_Party/LwIP/src/api/sockets.c ****   /** the group address */
 230:Middlewares/Third_Party/LwIP/src/api/sockets.c ****   ip4_addr_t multi_addr;
 231:Middlewares/Third_Party/LwIP/src/api/sockets.c **** };
 232:Middlewares/Third_Party/LwIP/src/api/sockets.c **** 
 233:Middlewares/Third_Party/LwIP/src/api/sockets.c **** static struct lwip_socket_multicast_pair socket_ipv4_multicast_memberships[LWIP_SOCKET_MAX_MEMBERSH
 234:Middlewares/Third_Party/LwIP/src/api/sockets.c **** 
 235:Middlewares/Third_Party/LwIP/src/api/sockets.c **** static int  lwip_socket_register_membership(int s, const ip4_addr_t *if_addr, const ip4_addr_t *mul
 236:Middlewares/Third_Party/LwIP/src/api/sockets.c **** static void lwip_socket_unregister_membership(int s, const ip4_addr_t *if_addr, const ip4_addr_t *m
 237:Middlewares/Third_Party/LwIP/src/api/sockets.c **** static void lwip_socket_drop_registered_memberships(int s);
 238:Middlewares/Third_Party/LwIP/src/api/sockets.c **** #endif /* LWIP_IGMP */
 239:Middlewares/Third_Party/LwIP/src/api/sockets.c **** 
 240:Middlewares/Third_Party/LwIP/src/api/sockets.c **** #if LWIP_IPV6_MLD
 241:Middlewares/Third_Party/LwIP/src/api/sockets.c **** /* This is to keep track of IP_JOIN_GROUP calls to drop the membership when
 242:Middlewares/Third_Party/LwIP/src/api/sockets.c ****    a socket is closed */
 243:Middlewares/Third_Party/LwIP/src/api/sockets.c **** struct lwip_socket_multicast_mld6_pair {
 244:Middlewares/Third_Party/LwIP/src/api/sockets.c ****   /** the socket */
 245:Middlewares/Third_Party/LwIP/src/api/sockets.c ****   struct lwip_sock *sock;
 246:Middlewares/Third_Party/LwIP/src/api/sockets.c ****   /** the interface index */
 247:Middlewares/Third_Party/LwIP/src/api/sockets.c ****   u8_t if_idx;
 248:Middlewares/Third_Party/LwIP/src/api/sockets.c ****   /** the group address */
 249:Middlewares/Third_Party/LwIP/src/api/sockets.c ****   ip6_addr_t multi_addr;
 250:Middlewares/Third_Party/LwIP/src/api/sockets.c **** };
 251:Middlewares/Third_Party/LwIP/src/api/sockets.c **** 
 252:Middlewares/Third_Party/LwIP/src/api/sockets.c **** static struct lwip_socket_multicast_mld6_pair socket_ipv6_multicast_memberships[LWIP_SOCKET_MAX_MEM
 253:Middlewares/Third_Party/LwIP/src/api/sockets.c **** 
 254:Middlewares/Third_Party/LwIP/src/api/sockets.c **** static int  lwip_socket_register_mld6_membership(int s, unsigned int if_idx, const ip6_addr_t *mult
 255:Middlewares/Third_Party/LwIP/src/api/sockets.c **** static void lwip_socket_unregister_mld6_membership(int s, unsigned int if_idx, const ip6_addr_t *mu
 256:Middlewares/Third_Party/LwIP/src/api/sockets.c **** static void lwip_socket_drop_registered_mld6_memberships(int s);
 257:Middlewares/Third_Party/LwIP/src/api/sockets.c **** #endif /* LWIP_IPV6_MLD */
 258:Middlewares/Third_Party/LwIP/src/api/sockets.c **** 
ARM GAS  /tmp/cc3tDhb2.s 			page 6


 259:Middlewares/Third_Party/LwIP/src/api/sockets.c **** /** The global array of available sockets */
 260:Middlewares/Third_Party/LwIP/src/api/sockets.c **** static struct lwip_sock sockets[NUM_SOCKETS];
 261:Middlewares/Third_Party/LwIP/src/api/sockets.c **** 
 262:Middlewares/Third_Party/LwIP/src/api/sockets.c **** #if LWIP_SOCKET_SELECT || LWIP_SOCKET_POLL
 263:Middlewares/Third_Party/LwIP/src/api/sockets.c **** #if LWIP_TCPIP_CORE_LOCKING
 264:Middlewares/Third_Party/LwIP/src/api/sockets.c **** /* protect the select_cb_list using core lock */
 265:Middlewares/Third_Party/LwIP/src/api/sockets.c **** #define LWIP_SOCKET_SELECT_DECL_PROTECT(lev)
 266:Middlewares/Third_Party/LwIP/src/api/sockets.c **** #define LWIP_SOCKET_SELECT_PROTECT(lev)   LOCK_TCPIP_CORE()
 267:Middlewares/Third_Party/LwIP/src/api/sockets.c **** #define LWIP_SOCKET_SELECT_UNPROTECT(lev) UNLOCK_TCPIP_CORE()
 268:Middlewares/Third_Party/LwIP/src/api/sockets.c **** #else /* LWIP_TCPIP_CORE_LOCKING */
 269:Middlewares/Third_Party/LwIP/src/api/sockets.c **** /* protect the select_cb_list using SYS_LIGHTWEIGHT_PROT */
 270:Middlewares/Third_Party/LwIP/src/api/sockets.c **** #define LWIP_SOCKET_SELECT_DECL_PROTECT(lev)  SYS_ARCH_DECL_PROTECT(lev)
 271:Middlewares/Third_Party/LwIP/src/api/sockets.c **** #define LWIP_SOCKET_SELECT_PROTECT(lev)       SYS_ARCH_PROTECT(lev)
 272:Middlewares/Third_Party/LwIP/src/api/sockets.c **** #define LWIP_SOCKET_SELECT_UNPROTECT(lev)     SYS_ARCH_UNPROTECT(lev)
 273:Middlewares/Third_Party/LwIP/src/api/sockets.c **** /** This counter is increased from lwip_select when the list is changed
 274:Middlewares/Third_Party/LwIP/src/api/sockets.c ****     and checked in select_check_waiters to see if it has changed. */
 275:Middlewares/Third_Party/LwIP/src/api/sockets.c **** static volatile int select_cb_ctr;
 276:Middlewares/Third_Party/LwIP/src/api/sockets.c **** #endif /* LWIP_TCPIP_CORE_LOCKING */
 277:Middlewares/Third_Party/LwIP/src/api/sockets.c **** /** The global list of tasks waiting for select */
 278:Middlewares/Third_Party/LwIP/src/api/sockets.c **** static struct lwip_select_cb *select_cb_list;
 279:Middlewares/Third_Party/LwIP/src/api/sockets.c **** #endif /* LWIP_SOCKET_SELECT || LWIP_SOCKET_POLL */
 280:Middlewares/Third_Party/LwIP/src/api/sockets.c **** 
 281:Middlewares/Third_Party/LwIP/src/api/sockets.c **** #define sock_set_errno(sk, e) do { \
 282:Middlewares/Third_Party/LwIP/src/api/sockets.c ****   const int sockerr = (e); \
 283:Middlewares/Third_Party/LwIP/src/api/sockets.c ****   set_errno(sockerr); \
 284:Middlewares/Third_Party/LwIP/src/api/sockets.c **** } while (0)
 285:Middlewares/Third_Party/LwIP/src/api/sockets.c **** 
 286:Middlewares/Third_Party/LwIP/src/api/sockets.c **** /* Forward declaration of some functions */
 287:Middlewares/Third_Party/LwIP/src/api/sockets.c **** #if LWIP_SOCKET_SELECT || LWIP_SOCKET_POLL
 288:Middlewares/Third_Party/LwIP/src/api/sockets.c **** static void event_callback(struct netconn *conn, enum netconn_evt evt, u16_t len);
 289:Middlewares/Third_Party/LwIP/src/api/sockets.c **** #define DEFAULT_SOCKET_EVENTCB event_callback
 290:Middlewares/Third_Party/LwIP/src/api/sockets.c **** static void select_check_waiters(int s, int has_recvevent, int has_sendevent, int has_errevent);
 291:Middlewares/Third_Party/LwIP/src/api/sockets.c **** #else
 292:Middlewares/Third_Party/LwIP/src/api/sockets.c **** #define DEFAULT_SOCKET_EVENTCB NULL
 293:Middlewares/Third_Party/LwIP/src/api/sockets.c **** #endif
 294:Middlewares/Third_Party/LwIP/src/api/sockets.c **** #if !LWIP_TCPIP_CORE_LOCKING
 295:Middlewares/Third_Party/LwIP/src/api/sockets.c **** static void lwip_getsockopt_callback(void *arg);
 296:Middlewares/Third_Party/LwIP/src/api/sockets.c **** static void lwip_setsockopt_callback(void *arg);
 297:Middlewares/Third_Party/LwIP/src/api/sockets.c **** #endif
 298:Middlewares/Third_Party/LwIP/src/api/sockets.c **** static int lwip_getsockopt_impl(int s, int level, int optname, void *optval, socklen_t *optlen);
 299:Middlewares/Third_Party/LwIP/src/api/sockets.c **** static int lwip_setsockopt_impl(int s, int level, int optname, const void *optval, socklen_t optlen
 300:Middlewares/Third_Party/LwIP/src/api/sockets.c **** static int free_socket_locked(struct lwip_sock *sock, int is_tcp, struct netconn **conn,
 301:Middlewares/Third_Party/LwIP/src/api/sockets.c ****                               union lwip_sock_lastdata *lastdata);
 302:Middlewares/Third_Party/LwIP/src/api/sockets.c **** static void free_socket_free_elements(int is_tcp, struct netconn *conn, union lwip_sock_lastdata *l
 303:Middlewares/Third_Party/LwIP/src/api/sockets.c **** 
 304:Middlewares/Third_Party/LwIP/src/api/sockets.c **** #if LWIP_IPV4 && LWIP_IPV6
 305:Middlewares/Third_Party/LwIP/src/api/sockets.c **** static void
 306:Middlewares/Third_Party/LwIP/src/api/sockets.c **** sockaddr_to_ipaddr_port(const struct sockaddr *sockaddr, ip_addr_t *ipaddr, u16_t *port)
 307:Middlewares/Third_Party/LwIP/src/api/sockets.c **** {
 308:Middlewares/Third_Party/LwIP/src/api/sockets.c ****   if ((sockaddr->sa_family) == AF_INET6) {
 309:Middlewares/Third_Party/LwIP/src/api/sockets.c ****     SOCKADDR6_TO_IP6ADDR_PORT((const struct sockaddr_in6 *)(const void *)(sockaddr), ipaddr, *port)
 310:Middlewares/Third_Party/LwIP/src/api/sockets.c ****     ipaddr->type = IPADDR_TYPE_V6;
 311:Middlewares/Third_Party/LwIP/src/api/sockets.c ****   } else {
 312:Middlewares/Third_Party/LwIP/src/api/sockets.c ****     SOCKADDR4_TO_IP4ADDR_PORT((const struct sockaddr_in *)(const void *)(sockaddr), ipaddr, *port);
 313:Middlewares/Third_Party/LwIP/src/api/sockets.c ****     ipaddr->type = IPADDR_TYPE_V4;
 314:Middlewares/Third_Party/LwIP/src/api/sockets.c ****   }
 315:Middlewares/Third_Party/LwIP/src/api/sockets.c **** }
ARM GAS  /tmp/cc3tDhb2.s 			page 7


 316:Middlewares/Third_Party/LwIP/src/api/sockets.c **** #endif /* LWIP_IPV4 && LWIP_IPV6 */
 317:Middlewares/Third_Party/LwIP/src/api/sockets.c **** 
 318:Middlewares/Third_Party/LwIP/src/api/sockets.c **** /** LWIP_NETCONN_SEM_PER_THREAD==1: initialize thread-local semaphore */
 319:Middlewares/Third_Party/LwIP/src/api/sockets.c **** void
 320:Middlewares/Third_Party/LwIP/src/api/sockets.c **** lwip_socket_thread_init(void)
 321:Middlewares/Third_Party/LwIP/src/api/sockets.c **** {
 322:Middlewares/Third_Party/LwIP/src/api/sockets.c ****   netconn_thread_init();
 323:Middlewares/Third_Party/LwIP/src/api/sockets.c **** }
 324:Middlewares/Third_Party/LwIP/src/api/sockets.c **** 
 325:Middlewares/Third_Party/LwIP/src/api/sockets.c **** /** LWIP_NETCONN_SEM_PER_THREAD==1: destroy thread-local semaphore */
 326:Middlewares/Third_Party/LwIP/src/api/sockets.c **** void
 327:Middlewares/Third_Party/LwIP/src/api/sockets.c **** lwip_socket_thread_cleanup(void)
 328:Middlewares/Third_Party/LwIP/src/api/sockets.c **** {
 329:Middlewares/Third_Party/LwIP/src/api/sockets.c ****   netconn_thread_cleanup();
 330:Middlewares/Third_Party/LwIP/src/api/sockets.c **** }
 331:Middlewares/Third_Party/LwIP/src/api/sockets.c **** 
 332:Middlewares/Third_Party/LwIP/src/api/sockets.c **** #if LWIP_NETCONN_FULLDUPLEX
 333:Middlewares/Third_Party/LwIP/src/api/sockets.c **** /* Thread-safe increment of sock->fd_used, with overflow check */
 334:Middlewares/Third_Party/LwIP/src/api/sockets.c **** static int
 335:Middlewares/Third_Party/LwIP/src/api/sockets.c **** sock_inc_used(struct lwip_sock *sock)
 336:Middlewares/Third_Party/LwIP/src/api/sockets.c **** {
 337:Middlewares/Third_Party/LwIP/src/api/sockets.c ****   int ret;
 338:Middlewares/Third_Party/LwIP/src/api/sockets.c ****   SYS_ARCH_DECL_PROTECT(lev);
 339:Middlewares/Third_Party/LwIP/src/api/sockets.c **** 
 340:Middlewares/Third_Party/LwIP/src/api/sockets.c ****   LWIP_ASSERT("sock != NULL", sock != NULL);
 341:Middlewares/Third_Party/LwIP/src/api/sockets.c **** 
 342:Middlewares/Third_Party/LwIP/src/api/sockets.c ****   SYS_ARCH_PROTECT(lev);
 343:Middlewares/Third_Party/LwIP/src/api/sockets.c ****   if (sock->fd_free_pending) {
 344:Middlewares/Third_Party/LwIP/src/api/sockets.c ****     /* prevent new usage of this socket if free is pending */
 345:Middlewares/Third_Party/LwIP/src/api/sockets.c ****     ret = 0;
 346:Middlewares/Third_Party/LwIP/src/api/sockets.c ****   } else {
 347:Middlewares/Third_Party/LwIP/src/api/sockets.c ****     ++sock->fd_used;
 348:Middlewares/Third_Party/LwIP/src/api/sockets.c ****     ret = 1;
 349:Middlewares/Third_Party/LwIP/src/api/sockets.c ****     LWIP_ASSERT("sock->fd_used != 0", sock->fd_used != 0);
 350:Middlewares/Third_Party/LwIP/src/api/sockets.c ****   }
 351:Middlewares/Third_Party/LwIP/src/api/sockets.c ****   SYS_ARCH_UNPROTECT(lev);
 352:Middlewares/Third_Party/LwIP/src/api/sockets.c ****   return ret;
 353:Middlewares/Third_Party/LwIP/src/api/sockets.c **** }
 354:Middlewares/Third_Party/LwIP/src/api/sockets.c **** 
 355:Middlewares/Third_Party/LwIP/src/api/sockets.c **** /* Like sock_inc_used(), but called under SYS_ARCH_PROTECT lock. */
 356:Middlewares/Third_Party/LwIP/src/api/sockets.c **** static int
 357:Middlewares/Third_Party/LwIP/src/api/sockets.c **** sock_inc_used_locked(struct lwip_sock *sock)
 358:Middlewares/Third_Party/LwIP/src/api/sockets.c **** {
 359:Middlewares/Third_Party/LwIP/src/api/sockets.c ****   LWIP_ASSERT("sock != NULL", sock != NULL);
 360:Middlewares/Third_Party/LwIP/src/api/sockets.c **** 
 361:Middlewares/Third_Party/LwIP/src/api/sockets.c ****   if (sock->fd_free_pending) {
 362:Middlewares/Third_Party/LwIP/src/api/sockets.c ****     LWIP_ASSERT("sock->fd_used != 0", sock->fd_used != 0);
 363:Middlewares/Third_Party/LwIP/src/api/sockets.c ****     return 0;
 364:Middlewares/Third_Party/LwIP/src/api/sockets.c ****   }
 365:Middlewares/Third_Party/LwIP/src/api/sockets.c **** 
 366:Middlewares/Third_Party/LwIP/src/api/sockets.c ****   ++sock->fd_used;
 367:Middlewares/Third_Party/LwIP/src/api/sockets.c ****   LWIP_ASSERT("sock->fd_used != 0", sock->fd_used != 0);
 368:Middlewares/Third_Party/LwIP/src/api/sockets.c ****   return 1;
 369:Middlewares/Third_Party/LwIP/src/api/sockets.c **** }
 370:Middlewares/Third_Party/LwIP/src/api/sockets.c **** 
 371:Middlewares/Third_Party/LwIP/src/api/sockets.c **** /* In full-duplex mode,sock->fd_used != 0 prevents a socket descriptor from being
 372:Middlewares/Third_Party/LwIP/src/api/sockets.c ****  * released (and possibly reused) when used from more than one thread
ARM GAS  /tmp/cc3tDhb2.s 			page 8


 373:Middlewares/Third_Party/LwIP/src/api/sockets.c ****  * (e.g. read-while-write or close-while-write, etc)
 374:Middlewares/Third_Party/LwIP/src/api/sockets.c ****  * This function is called at the end of functions using (try)get_socket*().
 375:Middlewares/Third_Party/LwIP/src/api/sockets.c ****  */
 376:Middlewares/Third_Party/LwIP/src/api/sockets.c **** static void
 377:Middlewares/Third_Party/LwIP/src/api/sockets.c **** done_socket(struct lwip_sock *sock)
 378:Middlewares/Third_Party/LwIP/src/api/sockets.c **** {
 379:Middlewares/Third_Party/LwIP/src/api/sockets.c ****   int freed = 0;
 380:Middlewares/Third_Party/LwIP/src/api/sockets.c ****   int is_tcp = 0;
 381:Middlewares/Third_Party/LwIP/src/api/sockets.c ****   struct netconn *conn = NULL;
 382:Middlewares/Third_Party/LwIP/src/api/sockets.c ****   union lwip_sock_lastdata lastdata;
 383:Middlewares/Third_Party/LwIP/src/api/sockets.c ****   SYS_ARCH_DECL_PROTECT(lev);
 384:Middlewares/Third_Party/LwIP/src/api/sockets.c ****   LWIP_ASSERT("sock != NULL", sock != NULL);
 385:Middlewares/Third_Party/LwIP/src/api/sockets.c **** 
 386:Middlewares/Third_Party/LwIP/src/api/sockets.c ****   SYS_ARCH_PROTECT(lev);
 387:Middlewares/Third_Party/LwIP/src/api/sockets.c ****   LWIP_ASSERT("sock->fd_used > 0", sock->fd_used > 0);
 388:Middlewares/Third_Party/LwIP/src/api/sockets.c ****   if (--sock->fd_used == 0) {
 389:Middlewares/Third_Party/LwIP/src/api/sockets.c ****     if (sock->fd_free_pending) {
 390:Middlewares/Third_Party/LwIP/src/api/sockets.c ****       /* free the socket */
 391:Middlewares/Third_Party/LwIP/src/api/sockets.c ****       sock->fd_used = 1;
 392:Middlewares/Third_Party/LwIP/src/api/sockets.c ****       is_tcp = sock->fd_free_pending & LWIP_SOCK_FD_FREE_TCP;
 393:Middlewares/Third_Party/LwIP/src/api/sockets.c ****       freed = free_socket_locked(sock, is_tcp, &conn, &lastdata);
 394:Middlewares/Third_Party/LwIP/src/api/sockets.c ****     }
 395:Middlewares/Third_Party/LwIP/src/api/sockets.c ****   }
 396:Middlewares/Third_Party/LwIP/src/api/sockets.c ****   SYS_ARCH_UNPROTECT(lev);
 397:Middlewares/Third_Party/LwIP/src/api/sockets.c **** 
 398:Middlewares/Third_Party/LwIP/src/api/sockets.c ****   if (freed) {
 399:Middlewares/Third_Party/LwIP/src/api/sockets.c ****     free_socket_free_elements(is_tcp, conn, &lastdata);
 400:Middlewares/Third_Party/LwIP/src/api/sockets.c ****   }
 401:Middlewares/Third_Party/LwIP/src/api/sockets.c **** }
 402:Middlewares/Third_Party/LwIP/src/api/sockets.c **** 
 403:Middlewares/Third_Party/LwIP/src/api/sockets.c **** #else /* LWIP_NETCONN_FULLDUPLEX */
 404:Middlewares/Third_Party/LwIP/src/api/sockets.c **** #define sock_inc_used(sock)         1
 405:Middlewares/Third_Party/LwIP/src/api/sockets.c **** #define sock_inc_used_locked(sock)  1
 406:Middlewares/Third_Party/LwIP/src/api/sockets.c **** #define done_socket(sock)
 407:Middlewares/Third_Party/LwIP/src/api/sockets.c **** #endif /* LWIP_NETCONN_FULLDUPLEX */
 408:Middlewares/Third_Party/LwIP/src/api/sockets.c **** 
 409:Middlewares/Third_Party/LwIP/src/api/sockets.c **** /* Translate a socket 'int' into a pointer (only fails if the index is invalid) */
 410:Middlewares/Third_Party/LwIP/src/api/sockets.c **** static struct lwip_sock *
 411:Middlewares/Third_Party/LwIP/src/api/sockets.c **** tryget_socket_unconn_nouse(int fd)
 412:Middlewares/Third_Party/LwIP/src/api/sockets.c **** {
  29              		.loc 1 412 1 view -0
  30              		.cfi_startproc
  31              		@ args = 0, pretend = 0, frame = 0
  32              		@ frame_needed = 0, uses_anonymous_args = 0
  33              		@ link register save eliminated.
 413:Middlewares/Third_Party/LwIP/src/api/sockets.c ****   int s = fd - LWIP_SOCKET_OFFSET;
  34              		.loc 1 413 3 view .LVU1
 414:Middlewares/Third_Party/LwIP/src/api/sockets.c ****   if ((s < 0) || (s >= NUM_SOCKETS)) {
  35              		.loc 1 414 3 view .LVU2
  36              		.loc 1 414 6 is_stmt 0 view .LVU3
  37 0000 0328     		cmp	r0, #3
  38 0002 03D8     		bhi	.L3
 415:Middlewares/Third_Party/LwIP/src/api/sockets.c ****     LWIP_DEBUGF(SOCKETS_DEBUG, ("tryget_socket_unconn(%d): invalid\n", fd));
 416:Middlewares/Third_Party/LwIP/src/api/sockets.c ****     return NULL;
 417:Middlewares/Third_Party/LwIP/src/api/sockets.c ****   }
 418:Middlewares/Third_Party/LwIP/src/api/sockets.c ****   return &sockets[s];
  39              		.loc 1 418 3 is_stmt 1 view .LVU4
ARM GAS  /tmp/cc3tDhb2.s 			page 9


  40              		.loc 1 418 10 is_stmt 0 view .LVU5
  41 0004 024B     		ldr	r3, .L4
  42 0006 03EB0010 		add	r0, r3, r0, lsl #4
  43              	.LVL1:
  44              		.loc 1 418 10 view .LVU6
  45 000a 7047     		bx	lr
  46              	.LVL2:
  47              	.L3:
 416:Middlewares/Third_Party/LwIP/src/api/sockets.c ****   }
  48              		.loc 1 416 12 view .LVU7
  49 000c 0020     		movs	r0, #0
  50              	.LVL3:
 419:Middlewares/Third_Party/LwIP/src/api/sockets.c **** }
  51              		.loc 1 419 1 view .LVU8
  52 000e 7047     		bx	lr
  53              	.L5:
  54              		.align	2
  55              	.L4:
  56 0010 00000000 		.word	.LANCHOR0
  57              		.cfi_endproc
  58              	.LFE161:
  60              		.section	.text.tryget_socket_unconn,"ax",%progbits
  61              		.align	1
  62              		.syntax unified
  63              		.thumb
  64              		.thumb_func
  65              		.fpu fpv4-sp-d16
  67              	tryget_socket_unconn:
  68              	.LVL4:
  69              	.LFB163:
 420:Middlewares/Third_Party/LwIP/src/api/sockets.c **** 
 421:Middlewares/Third_Party/LwIP/src/api/sockets.c **** struct lwip_sock *
 422:Middlewares/Third_Party/LwIP/src/api/sockets.c **** lwip_socket_dbg_get_socket(int fd)
 423:Middlewares/Third_Party/LwIP/src/api/sockets.c **** {
 424:Middlewares/Third_Party/LwIP/src/api/sockets.c ****   return tryget_socket_unconn_nouse(fd);
 425:Middlewares/Third_Party/LwIP/src/api/sockets.c **** }
 426:Middlewares/Third_Party/LwIP/src/api/sockets.c **** 
 427:Middlewares/Third_Party/LwIP/src/api/sockets.c **** /* Translate a socket 'int' into a pointer (only fails if the index is invalid) */
 428:Middlewares/Third_Party/LwIP/src/api/sockets.c **** static struct lwip_sock *
 429:Middlewares/Third_Party/LwIP/src/api/sockets.c **** tryget_socket_unconn(int fd)
 430:Middlewares/Third_Party/LwIP/src/api/sockets.c **** {
  70              		.loc 1 430 1 is_stmt 1 view -0
  71              		.cfi_startproc
  72              		@ args = 0, pretend = 0, frame = 0
  73              		@ frame_needed = 0, uses_anonymous_args = 0
  74              		.loc 1 430 1 is_stmt 0 view .LVU10
  75 0000 08B5     		push	{r3, lr}
  76              	.LCFI0:
  77              		.cfi_def_cfa_offset 8
  78              		.cfi_offset 3, -8
  79              		.cfi_offset 14, -4
 431:Middlewares/Third_Party/LwIP/src/api/sockets.c ****   struct lwip_sock *ret = tryget_socket_unconn_nouse(fd);
  80              		.loc 1 431 3 is_stmt 1 view .LVU11
  81              		.loc 1 431 27 is_stmt 0 view .LVU12
  82 0002 FFF7FEFF 		bl	tryget_socket_unconn_nouse
  83              	.LVL5:
 432:Middlewares/Third_Party/LwIP/src/api/sockets.c ****   if (ret != NULL) {
ARM GAS  /tmp/cc3tDhb2.s 			page 10


  84              		.loc 1 432 3 is_stmt 1 view .LVU13
 433:Middlewares/Third_Party/LwIP/src/api/sockets.c ****     if (!sock_inc_used(ret)) {
 434:Middlewares/Third_Party/LwIP/src/api/sockets.c ****       return NULL;
 435:Middlewares/Third_Party/LwIP/src/api/sockets.c ****     }
 436:Middlewares/Third_Party/LwIP/src/api/sockets.c ****   }
 437:Middlewares/Third_Party/LwIP/src/api/sockets.c ****   return ret;
  85              		.loc 1 437 3 view .LVU14
 438:Middlewares/Third_Party/LwIP/src/api/sockets.c **** }
  86              		.loc 1 438 1 is_stmt 0 view .LVU15
  87 0006 08BD     		pop	{r3, pc}
  88              		.cfi_endproc
  89              	.LFE163:
  91              		.section	.text.tryget_socket_unconn_locked,"ax",%progbits
  92              		.align	1
  93              		.syntax unified
  94              		.thumb
  95              		.thumb_func
  96              		.fpu fpv4-sp-d16
  98              	tryget_socket_unconn_locked:
  99              	.LVL6:
 100              	.LFB164:
 439:Middlewares/Third_Party/LwIP/src/api/sockets.c **** 
 440:Middlewares/Third_Party/LwIP/src/api/sockets.c **** /* Like tryget_socket_unconn(), but called under SYS_ARCH_PROTECT lock. */
 441:Middlewares/Third_Party/LwIP/src/api/sockets.c **** static struct lwip_sock *
 442:Middlewares/Third_Party/LwIP/src/api/sockets.c **** tryget_socket_unconn_locked(int fd)
 443:Middlewares/Third_Party/LwIP/src/api/sockets.c **** {
 101              		.loc 1 443 1 is_stmt 1 view -0
 102              		.cfi_startproc
 103              		@ args = 0, pretend = 0, frame = 0
 104              		@ frame_needed = 0, uses_anonymous_args = 0
 105              		.loc 1 443 1 is_stmt 0 view .LVU17
 106 0000 08B5     		push	{r3, lr}
 107              	.LCFI1:
 108              		.cfi_def_cfa_offset 8
 109              		.cfi_offset 3, -8
 110              		.cfi_offset 14, -4
 444:Middlewares/Third_Party/LwIP/src/api/sockets.c ****   struct lwip_sock *ret = tryget_socket_unconn_nouse(fd);
 111              		.loc 1 444 3 is_stmt 1 view .LVU18
 112              		.loc 1 444 27 is_stmt 0 view .LVU19
 113 0002 FFF7FEFF 		bl	tryget_socket_unconn_nouse
 114              	.LVL7:
 445:Middlewares/Third_Party/LwIP/src/api/sockets.c ****   if (ret != NULL) {
 115              		.loc 1 445 3 is_stmt 1 view .LVU20
 446:Middlewares/Third_Party/LwIP/src/api/sockets.c ****     if (!sock_inc_used_locked(ret)) {
 447:Middlewares/Third_Party/LwIP/src/api/sockets.c ****       return NULL;
 448:Middlewares/Third_Party/LwIP/src/api/sockets.c ****     }
 449:Middlewares/Third_Party/LwIP/src/api/sockets.c ****   }
 450:Middlewares/Third_Party/LwIP/src/api/sockets.c ****   return ret;
 116              		.loc 1 450 3 view .LVU21
 451:Middlewares/Third_Party/LwIP/src/api/sockets.c **** }
 117              		.loc 1 451 1 is_stmt 0 view .LVU22
 118 0006 08BD     		pop	{r3, pc}
 119              		.cfi_endproc
 120              	.LFE164:
 122              		.section	.text.tryget_socket,"ax",%progbits
 123              		.align	1
 124              		.syntax unified
ARM GAS  /tmp/cc3tDhb2.s 			page 11


 125              		.thumb
 126              		.thumb_func
 127              		.fpu fpv4-sp-d16
 129              	tryget_socket:
 130              	.LVL8:
 131              	.LFB165:
 452:Middlewares/Third_Party/LwIP/src/api/sockets.c **** 
 453:Middlewares/Third_Party/LwIP/src/api/sockets.c **** /**
 454:Middlewares/Third_Party/LwIP/src/api/sockets.c ****  * Same as get_socket but doesn't set errno
 455:Middlewares/Third_Party/LwIP/src/api/sockets.c ****  *
 456:Middlewares/Third_Party/LwIP/src/api/sockets.c ****  * @param fd externally used socket index
 457:Middlewares/Third_Party/LwIP/src/api/sockets.c ****  * @return struct lwip_sock for the socket or NULL if not found
 458:Middlewares/Third_Party/LwIP/src/api/sockets.c ****  */
 459:Middlewares/Third_Party/LwIP/src/api/sockets.c **** static struct lwip_sock *
 460:Middlewares/Third_Party/LwIP/src/api/sockets.c **** tryget_socket(int fd)
 461:Middlewares/Third_Party/LwIP/src/api/sockets.c **** {
 132              		.loc 1 461 1 is_stmt 1 view -0
 133              		.cfi_startproc
 134              		@ args = 0, pretend = 0, frame = 0
 135              		@ frame_needed = 0, uses_anonymous_args = 0
 136              		.loc 1 461 1 is_stmt 0 view .LVU24
 137 0000 08B5     		push	{r3, lr}
 138              	.LCFI2:
 139              		.cfi_def_cfa_offset 8
 140              		.cfi_offset 3, -8
 141              		.cfi_offset 14, -4
 462:Middlewares/Third_Party/LwIP/src/api/sockets.c ****   struct lwip_sock *sock = tryget_socket_unconn(fd);
 142              		.loc 1 462 3 is_stmt 1 view .LVU25
 143              		.loc 1 462 28 is_stmt 0 view .LVU26
 144 0002 FFF7FEFF 		bl	tryget_socket_unconn
 145              	.LVL9:
 463:Middlewares/Third_Party/LwIP/src/api/sockets.c ****   if (sock != NULL) {
 146              		.loc 1 463 3 is_stmt 1 view .LVU27
 147              		.loc 1 463 6 is_stmt 0 view .LVU28
 148 0006 0346     		mov	r3, r0
 149 0008 08B1     		cbz	r0, .L10
 464:Middlewares/Third_Party/LwIP/src/api/sockets.c ****     if (sock->conn) {
 150              		.loc 1 464 5 is_stmt 1 view .LVU29
 151              		.loc 1 464 13 is_stmt 0 view .LVU30
 152 000a 0268     		ldr	r2, [r0]
 153              		.loc 1 464 8 view .LVU31
 154 000c 0AB1     		cbz	r2, .L13
 155              	.L10:
 465:Middlewares/Third_Party/LwIP/src/api/sockets.c ****       return sock;
 466:Middlewares/Third_Party/LwIP/src/api/sockets.c ****     }
 467:Middlewares/Third_Party/LwIP/src/api/sockets.c ****     done_socket(sock);
 468:Middlewares/Third_Party/LwIP/src/api/sockets.c ****   }
 469:Middlewares/Third_Party/LwIP/src/api/sockets.c ****   return NULL;
 470:Middlewares/Third_Party/LwIP/src/api/sockets.c **** }
 156              		.loc 1 470 1 view .LVU32
 157 000e 1846     		mov	r0, r3
 158              	.LVL10:
 159              		.loc 1 470 1 view .LVU33
 160 0010 08BD     		pop	{r3, pc}
 161              	.LVL11:
 162              	.L13:
 469:Middlewares/Third_Party/LwIP/src/api/sockets.c **** }
ARM GAS  /tmp/cc3tDhb2.s 			page 12


 163              		.loc 1 469 10 view .LVU34
 164 0012 1346     		mov	r3, r2
 165 0014 FBE7     		b	.L10
 166              		.cfi_endproc
 167              	.LFE165:
 169              		.section	.text.get_socket,"ax",%progbits
 170              		.align	1
 171              		.syntax unified
 172              		.thumb
 173              		.thumb_func
 174              		.fpu fpv4-sp-d16
 176              	get_socket:
 177              	.LVL12:
 178              	.LFB166:
 471:Middlewares/Third_Party/LwIP/src/api/sockets.c **** 
 472:Middlewares/Third_Party/LwIP/src/api/sockets.c **** /**
 473:Middlewares/Third_Party/LwIP/src/api/sockets.c ****  * Map a externally used socket index to the internal socket representation.
 474:Middlewares/Third_Party/LwIP/src/api/sockets.c ****  *
 475:Middlewares/Third_Party/LwIP/src/api/sockets.c ****  * @param fd externally used socket index
 476:Middlewares/Third_Party/LwIP/src/api/sockets.c ****  * @return struct lwip_sock for the socket or NULL if not found
 477:Middlewares/Third_Party/LwIP/src/api/sockets.c ****  */
 478:Middlewares/Third_Party/LwIP/src/api/sockets.c **** static struct lwip_sock *
 479:Middlewares/Third_Party/LwIP/src/api/sockets.c **** get_socket(int fd)
 480:Middlewares/Third_Party/LwIP/src/api/sockets.c **** {
 179              		.loc 1 480 1 is_stmt 1 view -0
 180              		.cfi_startproc
 181              		@ args = 0, pretend = 0, frame = 0
 182              		@ frame_needed = 0, uses_anonymous_args = 0
 183              		.loc 1 480 1 is_stmt 0 view .LVU36
 184 0000 08B5     		push	{r3, lr}
 185              	.LCFI3:
 186              		.cfi_def_cfa_offset 8
 187              		.cfi_offset 3, -8
 188              		.cfi_offset 14, -4
 481:Middlewares/Third_Party/LwIP/src/api/sockets.c ****   struct lwip_sock *sock = tryget_socket(fd);
 189              		.loc 1 481 3 is_stmt 1 view .LVU37
 190              		.loc 1 481 28 is_stmt 0 view .LVU38
 191 0002 FFF7FEFF 		bl	tryget_socket
 192              	.LVL13:
 482:Middlewares/Third_Party/LwIP/src/api/sockets.c ****   if (!sock) {
 193              		.loc 1 482 3 is_stmt 1 view .LVU39
 194              		.loc 1 482 6 is_stmt 0 view .LVU40
 195 0006 00B1     		cbz	r0, .L17
 196              	.L14:
 483:Middlewares/Third_Party/LwIP/src/api/sockets.c ****     if ((fd < LWIP_SOCKET_OFFSET) || (fd >= (LWIP_SOCKET_OFFSET + NUM_SOCKETS))) {
 484:Middlewares/Third_Party/LwIP/src/api/sockets.c ****       LWIP_DEBUGF(SOCKETS_DEBUG, ("get_socket(%d): invalid\n", fd));
 485:Middlewares/Third_Party/LwIP/src/api/sockets.c ****     }
 486:Middlewares/Third_Party/LwIP/src/api/sockets.c ****     set_errno(EBADF);
 487:Middlewares/Third_Party/LwIP/src/api/sockets.c ****     return NULL;
 488:Middlewares/Third_Party/LwIP/src/api/sockets.c ****   }
 489:Middlewares/Third_Party/LwIP/src/api/sockets.c ****   return sock;
 490:Middlewares/Third_Party/LwIP/src/api/sockets.c **** }
 197              		.loc 1 490 1 view .LVU41
 198 0008 08BD     		pop	{r3, pc}
 199              	.L17:
 483:Middlewares/Third_Party/LwIP/src/api/sockets.c ****     if ((fd < LWIP_SOCKET_OFFSET) || (fd >= (LWIP_SOCKET_OFFSET + NUM_SOCKETS))) {
 200              		.loc 1 483 5 is_stmt 1 view .LVU42
ARM GAS  /tmp/cc3tDhb2.s 			page 13


 484:Middlewares/Third_Party/LwIP/src/api/sockets.c ****     }
 201              		.loc 1 484 68 view .LVU43
 486:Middlewares/Third_Party/LwIP/src/api/sockets.c ****     return NULL;
 202              		.loc 1 486 5 view .LVU44
 486:Middlewares/Third_Party/LwIP/src/api/sockets.c ****     return NULL;
 203              		.loc 1 486 5 view .LVU45
 486:Middlewares/Third_Party/LwIP/src/api/sockets.c ****     return NULL;
 204              		.loc 1 486 5 view .LVU46
 205 000a 024B     		ldr	r3, .L18
 206 000c 0922     		movs	r2, #9
 207 000e 1A60     		str	r2, [r3]
 486:Middlewares/Third_Party/LwIP/src/api/sockets.c ****     return NULL;
 208              		.loc 1 486 5 view .LVU47
 487:Middlewares/Third_Party/LwIP/src/api/sockets.c ****   }
 209              		.loc 1 487 5 view .LVU48
 487:Middlewares/Third_Party/LwIP/src/api/sockets.c ****   }
 210              		.loc 1 487 12 is_stmt 0 view .LVU49
 211 0010 FAE7     		b	.L14
 212              	.L19:
 213 0012 00BF     		.align	2
 214              	.L18:
 215 0014 00000000 		.word	errno
 216              		.cfi_endproc
 217              	.LFE166:
 219              		.section	.text.free_socket_locked,"ax",%progbits
 220              		.align	1
 221              		.syntax unified
 222              		.thumb
 223              		.thumb_func
 224              		.fpu fpv4-sp-d16
 226              	free_socket_locked:
 227              	.LVL14:
 228              	.LFB168:
 491:Middlewares/Third_Party/LwIP/src/api/sockets.c **** 
 492:Middlewares/Third_Party/LwIP/src/api/sockets.c **** /**
 493:Middlewares/Third_Party/LwIP/src/api/sockets.c ****  * Allocate a new socket for a given netconn.
 494:Middlewares/Third_Party/LwIP/src/api/sockets.c ****  *
 495:Middlewares/Third_Party/LwIP/src/api/sockets.c ****  * @param newconn the netconn for which to allocate a socket
 496:Middlewares/Third_Party/LwIP/src/api/sockets.c ****  * @param accepted 1 if socket has been created by accept(),
 497:Middlewares/Third_Party/LwIP/src/api/sockets.c ****  *                 0 if socket has been created by socket()
 498:Middlewares/Third_Party/LwIP/src/api/sockets.c ****  * @return the index of the new socket; -1 on error
 499:Middlewares/Third_Party/LwIP/src/api/sockets.c ****  */
 500:Middlewares/Third_Party/LwIP/src/api/sockets.c **** static int
 501:Middlewares/Third_Party/LwIP/src/api/sockets.c **** alloc_socket(struct netconn *newconn, int accepted)
 502:Middlewares/Third_Party/LwIP/src/api/sockets.c **** {
 503:Middlewares/Third_Party/LwIP/src/api/sockets.c ****   int i;
 504:Middlewares/Third_Party/LwIP/src/api/sockets.c ****   SYS_ARCH_DECL_PROTECT(lev);
 505:Middlewares/Third_Party/LwIP/src/api/sockets.c ****   LWIP_UNUSED_ARG(accepted);
 506:Middlewares/Third_Party/LwIP/src/api/sockets.c **** 
 507:Middlewares/Third_Party/LwIP/src/api/sockets.c ****   /* allocate a new socket identifier */
 508:Middlewares/Third_Party/LwIP/src/api/sockets.c ****   for (i = 0; i < NUM_SOCKETS; ++i) {
 509:Middlewares/Third_Party/LwIP/src/api/sockets.c ****     /* Protect socket array */
 510:Middlewares/Third_Party/LwIP/src/api/sockets.c ****     SYS_ARCH_PROTECT(lev);
 511:Middlewares/Third_Party/LwIP/src/api/sockets.c ****     if (!sockets[i].conn) {
 512:Middlewares/Third_Party/LwIP/src/api/sockets.c **** #if LWIP_NETCONN_FULLDUPLEX
 513:Middlewares/Third_Party/LwIP/src/api/sockets.c ****       if (sockets[i].fd_used) {
 514:Middlewares/Third_Party/LwIP/src/api/sockets.c ****         SYS_ARCH_UNPROTECT(lev);
ARM GAS  /tmp/cc3tDhb2.s 			page 14


 515:Middlewares/Third_Party/LwIP/src/api/sockets.c ****         continue;
 516:Middlewares/Third_Party/LwIP/src/api/sockets.c ****       }
 517:Middlewares/Third_Party/LwIP/src/api/sockets.c ****       sockets[i].fd_used    = 1;
 518:Middlewares/Third_Party/LwIP/src/api/sockets.c ****       sockets[i].fd_free_pending = 0;
 519:Middlewares/Third_Party/LwIP/src/api/sockets.c **** #endif
 520:Middlewares/Third_Party/LwIP/src/api/sockets.c ****       sockets[i].conn       = newconn;
 521:Middlewares/Third_Party/LwIP/src/api/sockets.c ****       /* The socket is not yet known to anyone, so no need to protect
 522:Middlewares/Third_Party/LwIP/src/api/sockets.c ****          after having marked it as used. */
 523:Middlewares/Third_Party/LwIP/src/api/sockets.c ****       SYS_ARCH_UNPROTECT(lev);
 524:Middlewares/Third_Party/LwIP/src/api/sockets.c ****       sockets[i].lastdata.pbuf = NULL;
 525:Middlewares/Third_Party/LwIP/src/api/sockets.c **** #if LWIP_SOCKET_SELECT || LWIP_SOCKET_POLL
 526:Middlewares/Third_Party/LwIP/src/api/sockets.c ****       LWIP_ASSERT("sockets[i].select_waiting == 0", sockets[i].select_waiting == 0);
 527:Middlewares/Third_Party/LwIP/src/api/sockets.c ****       sockets[i].rcvevent   = 0;
 528:Middlewares/Third_Party/LwIP/src/api/sockets.c ****       /* TCP sendbuf is empty, but the socket is not yet writable until connected
 529:Middlewares/Third_Party/LwIP/src/api/sockets.c ****        * (unless it has been created by accept()). */
 530:Middlewares/Third_Party/LwIP/src/api/sockets.c ****       sockets[i].sendevent  = (NETCONNTYPE_GROUP(newconn->type) == NETCONN_TCP ? (accepted != 0) : 
 531:Middlewares/Third_Party/LwIP/src/api/sockets.c ****       sockets[i].errevent   = 0;
 532:Middlewares/Third_Party/LwIP/src/api/sockets.c **** #endif /* LWIP_SOCKET_SELECT || LWIP_SOCKET_POLL */
 533:Middlewares/Third_Party/LwIP/src/api/sockets.c ****       return i + LWIP_SOCKET_OFFSET;
 534:Middlewares/Third_Party/LwIP/src/api/sockets.c ****     }
 535:Middlewares/Third_Party/LwIP/src/api/sockets.c ****     SYS_ARCH_UNPROTECT(lev);
 536:Middlewares/Third_Party/LwIP/src/api/sockets.c ****   }
 537:Middlewares/Third_Party/LwIP/src/api/sockets.c ****   return -1;
 538:Middlewares/Third_Party/LwIP/src/api/sockets.c **** }
 539:Middlewares/Third_Party/LwIP/src/api/sockets.c **** 
 540:Middlewares/Third_Party/LwIP/src/api/sockets.c **** /** Free a socket (under lock)
 541:Middlewares/Third_Party/LwIP/src/api/sockets.c ****  *
 542:Middlewares/Third_Party/LwIP/src/api/sockets.c ****  * @param sock the socket to free
 543:Middlewares/Third_Party/LwIP/src/api/sockets.c ****  * @param is_tcp != 0 for TCP sockets, used to free lastdata
 544:Middlewares/Third_Party/LwIP/src/api/sockets.c ****  * @param conn the socekt's netconn is stored here, must be freed externally
 545:Middlewares/Third_Party/LwIP/src/api/sockets.c ****  * @param lastdata lastdata is stored here, must be freed externally
 546:Middlewares/Third_Party/LwIP/src/api/sockets.c ****  */
 547:Middlewares/Third_Party/LwIP/src/api/sockets.c **** static int
 548:Middlewares/Third_Party/LwIP/src/api/sockets.c **** free_socket_locked(struct lwip_sock *sock, int is_tcp, struct netconn **conn,
 549:Middlewares/Third_Party/LwIP/src/api/sockets.c ****                    union lwip_sock_lastdata *lastdata)
 550:Middlewares/Third_Party/LwIP/src/api/sockets.c **** {
 229              		.loc 1 550 1 is_stmt 1 view -0
 230              		.cfi_startproc
 231              		@ args = 0, pretend = 0, frame = 0
 232              		@ frame_needed = 0, uses_anonymous_args = 0
 233              		@ link register save eliminated.
 551:Middlewares/Third_Party/LwIP/src/api/sockets.c **** #if LWIP_NETCONN_FULLDUPLEX
 552:Middlewares/Third_Party/LwIP/src/api/sockets.c ****   LWIP_ASSERT("sock->fd_used > 0", sock->fd_used > 0);
 553:Middlewares/Third_Party/LwIP/src/api/sockets.c ****   sock->fd_used--;
 554:Middlewares/Third_Party/LwIP/src/api/sockets.c ****   if (sock->fd_used > 0) {
 555:Middlewares/Third_Party/LwIP/src/api/sockets.c ****     sock->fd_free_pending = LWIP_SOCK_FD_FREE_FREE | (is_tcp ? LWIP_SOCK_FD_FREE_TCP : 0);
 556:Middlewares/Third_Party/LwIP/src/api/sockets.c ****     return 0;
 557:Middlewares/Third_Party/LwIP/src/api/sockets.c ****   }
 558:Middlewares/Third_Party/LwIP/src/api/sockets.c **** #else /* LWIP_NETCONN_FULLDUPLEX */
 559:Middlewares/Third_Party/LwIP/src/api/sockets.c ****   LWIP_UNUSED_ARG(is_tcp);
 234              		.loc 1 559 3 view .LVU51
 560:Middlewares/Third_Party/LwIP/src/api/sockets.c **** #endif /* LWIP_NETCONN_FULLDUPLEX */
 561:Middlewares/Third_Party/LwIP/src/api/sockets.c **** 
 562:Middlewares/Third_Party/LwIP/src/api/sockets.c ****   *lastdata = sock->lastdata;
 235              		.loc 1 562 3 view .LVU52
 236              		.loc 1 562 13 is_stmt 0 view .LVU53
 237 0000 4168     		ldr	r1, [r0, #4]
ARM GAS  /tmp/cc3tDhb2.s 			page 15


 238              	.LVL15:
 239              		.loc 1 562 13 view .LVU54
 240 0002 1960     		str	r1, [r3]
 563:Middlewares/Third_Party/LwIP/src/api/sockets.c ****   sock->lastdata.pbuf = NULL;
 241              		.loc 1 563 3 is_stmt 1 view .LVU55
 242              		.loc 1 563 23 is_stmt 0 view .LVU56
 243 0004 0023     		movs	r3, #0
 244              	.LVL16:
 245              		.loc 1 563 23 view .LVU57
 246 0006 4360     		str	r3, [r0, #4]
 564:Middlewares/Third_Party/LwIP/src/api/sockets.c ****   *conn = sock->conn;
 247              		.loc 1 564 3 is_stmt 1 view .LVU58
 248              		.loc 1 564 15 is_stmt 0 view .LVU59
 249 0008 0168     		ldr	r1, [r0]
 250              		.loc 1 564 9 view .LVU60
 251 000a 1160     		str	r1, [r2]
 565:Middlewares/Third_Party/LwIP/src/api/sockets.c ****   sock->conn = NULL;
 252              		.loc 1 565 3 is_stmt 1 view .LVU61
 253              		.loc 1 565 14 is_stmt 0 view .LVU62
 254 000c 0360     		str	r3, [r0]
 566:Middlewares/Third_Party/LwIP/src/api/sockets.c ****   return 1;
 255              		.loc 1 566 3 is_stmt 1 view .LVU63
 567:Middlewares/Third_Party/LwIP/src/api/sockets.c **** }
 256              		.loc 1 567 1 is_stmt 0 view .LVU64
 257 000e 0120     		movs	r0, #1
 258              	.LVL17:
 259              		.loc 1 567 1 view .LVU65
 260 0010 7047     		bx	lr
 261              		.cfi_endproc
 262              	.LFE168:
 264              		.section	.text.lwip_poll_should_wake,"ax",%progbits
 265              		.align	1
 266              		.syntax unified
 267              		.thumb
 268              		.thumb_func
 269              		.fpu fpv4-sp-d16
 271              	lwip_poll_should_wake:
 272              	.LVL18:
 273              	.LFB197:
 568:Middlewares/Third_Party/LwIP/src/api/sockets.c **** 
 569:Middlewares/Third_Party/LwIP/src/api/sockets.c **** /** Free a socket's leftover members.
 570:Middlewares/Third_Party/LwIP/src/api/sockets.c ****  */
 571:Middlewares/Third_Party/LwIP/src/api/sockets.c **** static void
 572:Middlewares/Third_Party/LwIP/src/api/sockets.c **** free_socket_free_elements(int is_tcp, struct netconn *conn, union lwip_sock_lastdata *lastdata)
 573:Middlewares/Third_Party/LwIP/src/api/sockets.c **** {
 574:Middlewares/Third_Party/LwIP/src/api/sockets.c ****   if (lastdata->pbuf != NULL) {
 575:Middlewares/Third_Party/LwIP/src/api/sockets.c ****     if (is_tcp) {
 576:Middlewares/Third_Party/LwIP/src/api/sockets.c ****       pbuf_free(lastdata->pbuf);
 577:Middlewares/Third_Party/LwIP/src/api/sockets.c ****     } else {
 578:Middlewares/Third_Party/LwIP/src/api/sockets.c ****       netbuf_delete(lastdata->netbuf);
 579:Middlewares/Third_Party/LwIP/src/api/sockets.c ****     }
 580:Middlewares/Third_Party/LwIP/src/api/sockets.c ****   }
 581:Middlewares/Third_Party/LwIP/src/api/sockets.c ****   if (conn != NULL) {
 582:Middlewares/Third_Party/LwIP/src/api/sockets.c ****     /* netconn_prepare_delete() has already been called, here we only free the conn */
 583:Middlewares/Third_Party/LwIP/src/api/sockets.c ****     netconn_delete(conn);
 584:Middlewares/Third_Party/LwIP/src/api/sockets.c ****   }
 585:Middlewares/Third_Party/LwIP/src/api/sockets.c **** }
ARM GAS  /tmp/cc3tDhb2.s 			page 16


 586:Middlewares/Third_Party/LwIP/src/api/sockets.c **** 
 587:Middlewares/Third_Party/LwIP/src/api/sockets.c **** /** Free a socket. The socket's netconn must have been
 588:Middlewares/Third_Party/LwIP/src/api/sockets.c ****  * delete before!
 589:Middlewares/Third_Party/LwIP/src/api/sockets.c ****  *
 590:Middlewares/Third_Party/LwIP/src/api/sockets.c ****  * @param sock the socket to free
 591:Middlewares/Third_Party/LwIP/src/api/sockets.c ****  * @param is_tcp != 0 for TCP sockets, used to free lastdata
 592:Middlewares/Third_Party/LwIP/src/api/sockets.c ****  */
 593:Middlewares/Third_Party/LwIP/src/api/sockets.c **** static void
 594:Middlewares/Third_Party/LwIP/src/api/sockets.c **** free_socket(struct lwip_sock *sock, int is_tcp)
 595:Middlewares/Third_Party/LwIP/src/api/sockets.c **** {
 596:Middlewares/Third_Party/LwIP/src/api/sockets.c ****   int freed;
 597:Middlewares/Third_Party/LwIP/src/api/sockets.c ****   struct netconn *conn;
 598:Middlewares/Third_Party/LwIP/src/api/sockets.c ****   union lwip_sock_lastdata lastdata;
 599:Middlewares/Third_Party/LwIP/src/api/sockets.c ****   SYS_ARCH_DECL_PROTECT(lev);
 600:Middlewares/Third_Party/LwIP/src/api/sockets.c **** 
 601:Middlewares/Third_Party/LwIP/src/api/sockets.c ****   /* Protect socket array */
 602:Middlewares/Third_Party/LwIP/src/api/sockets.c ****   SYS_ARCH_PROTECT(lev);
 603:Middlewares/Third_Party/LwIP/src/api/sockets.c **** 
 604:Middlewares/Third_Party/LwIP/src/api/sockets.c ****   freed = free_socket_locked(sock, is_tcp, &conn, &lastdata);
 605:Middlewares/Third_Party/LwIP/src/api/sockets.c ****   SYS_ARCH_UNPROTECT(lev);
 606:Middlewares/Third_Party/LwIP/src/api/sockets.c ****   /* don't use 'sock' after this line, as another task might have allocated it */
 607:Middlewares/Third_Party/LwIP/src/api/sockets.c **** 
 608:Middlewares/Third_Party/LwIP/src/api/sockets.c ****   if (freed) {
 609:Middlewares/Third_Party/LwIP/src/api/sockets.c ****     free_socket_free_elements(is_tcp, conn, &lastdata);
 610:Middlewares/Third_Party/LwIP/src/api/sockets.c ****   }
 611:Middlewares/Third_Party/LwIP/src/api/sockets.c **** }
 612:Middlewares/Third_Party/LwIP/src/api/sockets.c **** 
 613:Middlewares/Third_Party/LwIP/src/api/sockets.c **** /* Below this, the well-known socket functions are implemented.
 614:Middlewares/Third_Party/LwIP/src/api/sockets.c ****  * Use google.com or opengroup.org to get a good description :-)
 615:Middlewares/Third_Party/LwIP/src/api/sockets.c ****  *
 616:Middlewares/Third_Party/LwIP/src/api/sockets.c ****  * Exceptions are documented!
 617:Middlewares/Third_Party/LwIP/src/api/sockets.c ****  */
 618:Middlewares/Third_Party/LwIP/src/api/sockets.c **** 
 619:Middlewares/Third_Party/LwIP/src/api/sockets.c **** int
 620:Middlewares/Third_Party/LwIP/src/api/sockets.c **** lwip_accept(int s, struct sockaddr *addr, socklen_t *addrlen)
 621:Middlewares/Third_Party/LwIP/src/api/sockets.c **** {
 622:Middlewares/Third_Party/LwIP/src/api/sockets.c ****   struct lwip_sock *sock, *nsock;
 623:Middlewares/Third_Party/LwIP/src/api/sockets.c ****   struct netconn *newconn;
 624:Middlewares/Third_Party/LwIP/src/api/sockets.c ****   ip_addr_t naddr;
 625:Middlewares/Third_Party/LwIP/src/api/sockets.c ****   u16_t port = 0;
 626:Middlewares/Third_Party/LwIP/src/api/sockets.c ****   int newsock;
 627:Middlewares/Third_Party/LwIP/src/api/sockets.c ****   err_t err;
 628:Middlewares/Third_Party/LwIP/src/api/sockets.c ****   int recvevent;
 629:Middlewares/Third_Party/LwIP/src/api/sockets.c ****   SYS_ARCH_DECL_PROTECT(lev);
 630:Middlewares/Third_Party/LwIP/src/api/sockets.c **** 
 631:Middlewares/Third_Party/LwIP/src/api/sockets.c ****   LWIP_DEBUGF(SOCKETS_DEBUG, ("lwip_accept(%d)...\n", s));
 632:Middlewares/Third_Party/LwIP/src/api/sockets.c ****   sock = get_socket(s);
 633:Middlewares/Third_Party/LwIP/src/api/sockets.c ****   if (!sock) {
 634:Middlewares/Third_Party/LwIP/src/api/sockets.c ****     return -1;
 635:Middlewares/Third_Party/LwIP/src/api/sockets.c ****   }
 636:Middlewares/Third_Party/LwIP/src/api/sockets.c **** 
 637:Middlewares/Third_Party/LwIP/src/api/sockets.c ****   /* wait for a new connection */
 638:Middlewares/Third_Party/LwIP/src/api/sockets.c ****   err = netconn_accept(sock->conn, &newconn);
 639:Middlewares/Third_Party/LwIP/src/api/sockets.c ****   if (err != ERR_OK) {
 640:Middlewares/Third_Party/LwIP/src/api/sockets.c ****     LWIP_DEBUGF(SOCKETS_DEBUG, ("lwip_accept(%d): netconn_acept failed, err=%d\n", s, err));
 641:Middlewares/Third_Party/LwIP/src/api/sockets.c ****     if (NETCONNTYPE_GROUP(netconn_type(sock->conn)) != NETCONN_TCP) {
 642:Middlewares/Third_Party/LwIP/src/api/sockets.c ****       sock_set_errno(sock, EOPNOTSUPP);
ARM GAS  /tmp/cc3tDhb2.s 			page 17


 643:Middlewares/Third_Party/LwIP/src/api/sockets.c ****     } else if (err == ERR_CLSD) {
 644:Middlewares/Third_Party/LwIP/src/api/sockets.c ****       sock_set_errno(sock, EINVAL);
 645:Middlewares/Third_Party/LwIP/src/api/sockets.c ****     } else {
 646:Middlewares/Third_Party/LwIP/src/api/sockets.c ****       sock_set_errno(sock, err_to_errno(err));
 647:Middlewares/Third_Party/LwIP/src/api/sockets.c ****     }
 648:Middlewares/Third_Party/LwIP/src/api/sockets.c ****     done_socket(sock);
 649:Middlewares/Third_Party/LwIP/src/api/sockets.c ****     return -1;
 650:Middlewares/Third_Party/LwIP/src/api/sockets.c ****   }
 651:Middlewares/Third_Party/LwIP/src/api/sockets.c ****   LWIP_ASSERT("newconn != NULL", newconn != NULL);
 652:Middlewares/Third_Party/LwIP/src/api/sockets.c **** 
 653:Middlewares/Third_Party/LwIP/src/api/sockets.c ****   newsock = alloc_socket(newconn, 1);
 654:Middlewares/Third_Party/LwIP/src/api/sockets.c ****   if (newsock == -1) {
 655:Middlewares/Third_Party/LwIP/src/api/sockets.c ****     netconn_delete(newconn);
 656:Middlewares/Third_Party/LwIP/src/api/sockets.c ****     sock_set_errno(sock, ENFILE);
 657:Middlewares/Third_Party/LwIP/src/api/sockets.c ****     done_socket(sock);
 658:Middlewares/Third_Party/LwIP/src/api/sockets.c ****     return -1;
 659:Middlewares/Third_Party/LwIP/src/api/sockets.c ****   }
 660:Middlewares/Third_Party/LwIP/src/api/sockets.c ****   LWIP_ASSERT("invalid socket index", (newsock >= LWIP_SOCKET_OFFSET) && (newsock < NUM_SOCKETS + L
 661:Middlewares/Third_Party/LwIP/src/api/sockets.c ****   nsock = &sockets[newsock - LWIP_SOCKET_OFFSET];
 662:Middlewares/Third_Party/LwIP/src/api/sockets.c **** 
 663:Middlewares/Third_Party/LwIP/src/api/sockets.c ****   /* See event_callback: If data comes in right away after an accept, even
 664:Middlewares/Third_Party/LwIP/src/api/sockets.c ****    * though the server task might not have created a new socket yet.
 665:Middlewares/Third_Party/LwIP/src/api/sockets.c ****    * In that case, newconn->socket is counted down (newconn->socket--),
 666:Middlewares/Third_Party/LwIP/src/api/sockets.c ****    * so nsock->rcvevent is >= 1 here!
 667:Middlewares/Third_Party/LwIP/src/api/sockets.c ****    */
 668:Middlewares/Third_Party/LwIP/src/api/sockets.c ****   SYS_ARCH_PROTECT(lev);
 669:Middlewares/Third_Party/LwIP/src/api/sockets.c ****   recvevent = (s16_t)(-1 - newconn->socket);
 670:Middlewares/Third_Party/LwIP/src/api/sockets.c ****   newconn->socket = newsock;
 671:Middlewares/Third_Party/LwIP/src/api/sockets.c ****   SYS_ARCH_UNPROTECT(lev);
 672:Middlewares/Third_Party/LwIP/src/api/sockets.c **** 
 673:Middlewares/Third_Party/LwIP/src/api/sockets.c ****   if (newconn->callback) {
 674:Middlewares/Third_Party/LwIP/src/api/sockets.c ****     LOCK_TCPIP_CORE();
 675:Middlewares/Third_Party/LwIP/src/api/sockets.c ****     while (recvevent > 0) {
 676:Middlewares/Third_Party/LwIP/src/api/sockets.c ****       recvevent--;
 677:Middlewares/Third_Party/LwIP/src/api/sockets.c ****       newconn->callback(newconn, NETCONN_EVT_RCVPLUS, 0);
 678:Middlewares/Third_Party/LwIP/src/api/sockets.c ****     }
 679:Middlewares/Third_Party/LwIP/src/api/sockets.c ****     UNLOCK_TCPIP_CORE();
 680:Middlewares/Third_Party/LwIP/src/api/sockets.c ****   }
 681:Middlewares/Third_Party/LwIP/src/api/sockets.c **** 
 682:Middlewares/Third_Party/LwIP/src/api/sockets.c ****   /* Note that POSIX only requires us to check addr is non-NULL. addrlen must
 683:Middlewares/Third_Party/LwIP/src/api/sockets.c ****    * not be NULL if addr is valid.
 684:Middlewares/Third_Party/LwIP/src/api/sockets.c ****    */
 685:Middlewares/Third_Party/LwIP/src/api/sockets.c ****   if ((addr != NULL) && (addrlen != NULL)) {
 686:Middlewares/Third_Party/LwIP/src/api/sockets.c ****     union sockaddr_aligned tempaddr;
 687:Middlewares/Third_Party/LwIP/src/api/sockets.c ****     /* get the IP address and port of the remote host */
 688:Middlewares/Third_Party/LwIP/src/api/sockets.c ****     err = netconn_peer(newconn, &naddr, &port);
 689:Middlewares/Third_Party/LwIP/src/api/sockets.c ****     if (err != ERR_OK) {
 690:Middlewares/Third_Party/LwIP/src/api/sockets.c ****       LWIP_DEBUGF(SOCKETS_DEBUG, ("lwip_accept(%d): netconn_peer failed, err=%d\n", s, err));
 691:Middlewares/Third_Party/LwIP/src/api/sockets.c ****       netconn_delete(newconn);
 692:Middlewares/Third_Party/LwIP/src/api/sockets.c ****       free_socket(nsock, 1);
 693:Middlewares/Third_Party/LwIP/src/api/sockets.c ****       sock_set_errno(sock, err_to_errno(err));
 694:Middlewares/Third_Party/LwIP/src/api/sockets.c ****       done_socket(sock);
 695:Middlewares/Third_Party/LwIP/src/api/sockets.c ****       return -1;
 696:Middlewares/Third_Party/LwIP/src/api/sockets.c ****     }
 697:Middlewares/Third_Party/LwIP/src/api/sockets.c **** 
 698:Middlewares/Third_Party/LwIP/src/api/sockets.c ****     IPADDR_PORT_TO_SOCKADDR(&tempaddr, &naddr, port);
 699:Middlewares/Third_Party/LwIP/src/api/sockets.c ****     if (*addrlen > tempaddr.sa.sa_len) {
ARM GAS  /tmp/cc3tDhb2.s 			page 18


 700:Middlewares/Third_Party/LwIP/src/api/sockets.c ****       *addrlen = tempaddr.sa.sa_len;
 701:Middlewares/Third_Party/LwIP/src/api/sockets.c ****     }
 702:Middlewares/Third_Party/LwIP/src/api/sockets.c ****     MEMCPY(addr, &tempaddr, *addrlen);
 703:Middlewares/Third_Party/LwIP/src/api/sockets.c **** 
 704:Middlewares/Third_Party/LwIP/src/api/sockets.c ****     LWIP_DEBUGF(SOCKETS_DEBUG, ("lwip_accept(%d) returning new sock=%d addr=", s, newsock));
 705:Middlewares/Third_Party/LwIP/src/api/sockets.c ****     ip_addr_debug_print_val(SOCKETS_DEBUG, naddr);
 706:Middlewares/Third_Party/LwIP/src/api/sockets.c ****     LWIP_DEBUGF(SOCKETS_DEBUG, (" port=%"U16_F"\n", port));
 707:Middlewares/Third_Party/LwIP/src/api/sockets.c ****   } else {
 708:Middlewares/Third_Party/LwIP/src/api/sockets.c ****     LWIP_DEBUGF(SOCKETS_DEBUG, ("lwip_accept(%d) returning new sock=%d", s, newsock));
 709:Middlewares/Third_Party/LwIP/src/api/sockets.c ****   }
 710:Middlewares/Third_Party/LwIP/src/api/sockets.c **** 
 711:Middlewares/Third_Party/LwIP/src/api/sockets.c ****   sock_set_errno(sock, 0);
 712:Middlewares/Third_Party/LwIP/src/api/sockets.c ****   done_socket(sock);
 713:Middlewares/Third_Party/LwIP/src/api/sockets.c ****   done_socket(nsock);
 714:Middlewares/Third_Party/LwIP/src/api/sockets.c ****   return newsock;
 715:Middlewares/Third_Party/LwIP/src/api/sockets.c **** }
 716:Middlewares/Third_Party/LwIP/src/api/sockets.c **** 
 717:Middlewares/Third_Party/LwIP/src/api/sockets.c **** int
 718:Middlewares/Third_Party/LwIP/src/api/sockets.c **** lwip_bind(int s, const struct sockaddr *name, socklen_t namelen)
 719:Middlewares/Third_Party/LwIP/src/api/sockets.c **** {
 720:Middlewares/Third_Party/LwIP/src/api/sockets.c ****   struct lwip_sock *sock;
 721:Middlewares/Third_Party/LwIP/src/api/sockets.c ****   ip_addr_t local_addr;
 722:Middlewares/Third_Party/LwIP/src/api/sockets.c ****   u16_t local_port;
 723:Middlewares/Third_Party/LwIP/src/api/sockets.c ****   err_t err;
 724:Middlewares/Third_Party/LwIP/src/api/sockets.c **** 
 725:Middlewares/Third_Party/LwIP/src/api/sockets.c ****   sock = get_socket(s);
 726:Middlewares/Third_Party/LwIP/src/api/sockets.c ****   if (!sock) {
 727:Middlewares/Third_Party/LwIP/src/api/sockets.c ****     return -1;
 728:Middlewares/Third_Party/LwIP/src/api/sockets.c ****   }
 729:Middlewares/Third_Party/LwIP/src/api/sockets.c **** 
 730:Middlewares/Third_Party/LwIP/src/api/sockets.c ****   if (!SOCK_ADDR_TYPE_MATCH(name, sock)) {
 731:Middlewares/Third_Party/LwIP/src/api/sockets.c ****     /* sockaddr does not match socket type (IPv4/IPv6) */
 732:Middlewares/Third_Party/LwIP/src/api/sockets.c ****     sock_set_errno(sock, err_to_errno(ERR_VAL));
 733:Middlewares/Third_Party/LwIP/src/api/sockets.c ****     done_socket(sock);
 734:Middlewares/Third_Party/LwIP/src/api/sockets.c ****     return -1;
 735:Middlewares/Third_Party/LwIP/src/api/sockets.c ****   }
 736:Middlewares/Third_Party/LwIP/src/api/sockets.c **** 
 737:Middlewares/Third_Party/LwIP/src/api/sockets.c ****   /* check size, family and alignment of 'name' */
 738:Middlewares/Third_Party/LwIP/src/api/sockets.c ****   LWIP_ERROR("lwip_bind: invalid address", (IS_SOCK_ADDR_LEN_VALID(namelen) &&
 739:Middlewares/Third_Party/LwIP/src/api/sockets.c ****              IS_SOCK_ADDR_TYPE_VALID(name) && IS_SOCK_ADDR_ALIGNED(name)),
 740:Middlewares/Third_Party/LwIP/src/api/sockets.c ****              sock_set_errno(sock, err_to_errno(ERR_ARG)); done_socket(sock); return -1;);
 741:Middlewares/Third_Party/LwIP/src/api/sockets.c ****   LWIP_UNUSED_ARG(namelen);
 742:Middlewares/Third_Party/LwIP/src/api/sockets.c **** 
 743:Middlewares/Third_Party/LwIP/src/api/sockets.c ****   SOCKADDR_TO_IPADDR_PORT(name, &local_addr, local_port);
 744:Middlewares/Third_Party/LwIP/src/api/sockets.c ****   LWIP_DEBUGF(SOCKETS_DEBUG, ("lwip_bind(%d, addr=", s));
 745:Middlewares/Third_Party/LwIP/src/api/sockets.c ****   ip_addr_debug_print_val(SOCKETS_DEBUG, local_addr);
 746:Middlewares/Third_Party/LwIP/src/api/sockets.c ****   LWIP_DEBUGF(SOCKETS_DEBUG, (" port=%"U16_F")\n", local_port));
 747:Middlewares/Third_Party/LwIP/src/api/sockets.c **** 
 748:Middlewares/Third_Party/LwIP/src/api/sockets.c **** #if LWIP_IPV4 && LWIP_IPV6
 749:Middlewares/Third_Party/LwIP/src/api/sockets.c ****   /* Dual-stack: Unmap IPv4 mapped IPv6 addresses */
 750:Middlewares/Third_Party/LwIP/src/api/sockets.c ****   if (IP_IS_V6_VAL(local_addr) && ip6_addr_isipv4mappedipv6(ip_2_ip6(&local_addr))) {
 751:Middlewares/Third_Party/LwIP/src/api/sockets.c ****     unmap_ipv4_mapped_ipv6(ip_2_ip4(&local_addr), ip_2_ip6(&local_addr));
 752:Middlewares/Third_Party/LwIP/src/api/sockets.c ****     IP_SET_TYPE_VAL(local_addr, IPADDR_TYPE_V4);
 753:Middlewares/Third_Party/LwIP/src/api/sockets.c ****   }
 754:Middlewares/Third_Party/LwIP/src/api/sockets.c **** #endif /* LWIP_IPV4 && LWIP_IPV6 */
 755:Middlewares/Third_Party/LwIP/src/api/sockets.c **** 
 756:Middlewares/Third_Party/LwIP/src/api/sockets.c ****   err = netconn_bind(sock->conn, &local_addr, local_port);
ARM GAS  /tmp/cc3tDhb2.s 			page 19


 757:Middlewares/Third_Party/LwIP/src/api/sockets.c **** 
 758:Middlewares/Third_Party/LwIP/src/api/sockets.c ****   if (err != ERR_OK) {
 759:Middlewares/Third_Party/LwIP/src/api/sockets.c ****     LWIP_DEBUGF(SOCKETS_DEBUG, ("lwip_bind(%d) failed, err=%d\n", s, err));
 760:Middlewares/Third_Party/LwIP/src/api/sockets.c ****     sock_set_errno(sock, err_to_errno(err));
 761:Middlewares/Third_Party/LwIP/src/api/sockets.c ****     done_socket(sock);
 762:Middlewares/Third_Party/LwIP/src/api/sockets.c ****     return -1;
 763:Middlewares/Third_Party/LwIP/src/api/sockets.c ****   }
 764:Middlewares/Third_Party/LwIP/src/api/sockets.c **** 
 765:Middlewares/Third_Party/LwIP/src/api/sockets.c ****   LWIP_DEBUGF(SOCKETS_DEBUG, ("lwip_bind(%d) succeeded\n", s));
 766:Middlewares/Third_Party/LwIP/src/api/sockets.c ****   sock_set_errno(sock, 0);
 767:Middlewares/Third_Party/LwIP/src/api/sockets.c ****   done_socket(sock);
 768:Middlewares/Third_Party/LwIP/src/api/sockets.c ****   return 0;
 769:Middlewares/Third_Party/LwIP/src/api/sockets.c **** }
 770:Middlewares/Third_Party/LwIP/src/api/sockets.c **** 
 771:Middlewares/Third_Party/LwIP/src/api/sockets.c **** int
 772:Middlewares/Third_Party/LwIP/src/api/sockets.c **** lwip_close(int s)
 773:Middlewares/Third_Party/LwIP/src/api/sockets.c **** {
 774:Middlewares/Third_Party/LwIP/src/api/sockets.c ****   struct lwip_sock *sock;
 775:Middlewares/Third_Party/LwIP/src/api/sockets.c ****   int is_tcp = 0;
 776:Middlewares/Third_Party/LwIP/src/api/sockets.c ****   err_t err;
 777:Middlewares/Third_Party/LwIP/src/api/sockets.c **** 
 778:Middlewares/Third_Party/LwIP/src/api/sockets.c ****   LWIP_DEBUGF(SOCKETS_DEBUG, ("lwip_close(%d)\n", s));
 779:Middlewares/Third_Party/LwIP/src/api/sockets.c **** 
 780:Middlewares/Third_Party/LwIP/src/api/sockets.c ****   sock = get_socket(s);
 781:Middlewares/Third_Party/LwIP/src/api/sockets.c ****   if (!sock) {
 782:Middlewares/Third_Party/LwIP/src/api/sockets.c ****     return -1;
 783:Middlewares/Third_Party/LwIP/src/api/sockets.c ****   }
 784:Middlewares/Third_Party/LwIP/src/api/sockets.c **** 
 785:Middlewares/Third_Party/LwIP/src/api/sockets.c ****   if (sock->conn != NULL) {
 786:Middlewares/Third_Party/LwIP/src/api/sockets.c ****     is_tcp = NETCONNTYPE_GROUP(netconn_type(sock->conn)) == NETCONN_TCP;
 787:Middlewares/Third_Party/LwIP/src/api/sockets.c ****   } else {
 788:Middlewares/Third_Party/LwIP/src/api/sockets.c ****     LWIP_ASSERT("sock->lastdata == NULL", sock->lastdata.pbuf == NULL);
 789:Middlewares/Third_Party/LwIP/src/api/sockets.c ****   }
 790:Middlewares/Third_Party/LwIP/src/api/sockets.c **** 
 791:Middlewares/Third_Party/LwIP/src/api/sockets.c **** #if LWIP_IGMP
 792:Middlewares/Third_Party/LwIP/src/api/sockets.c ****   /* drop all possibly joined IGMP memberships */
 793:Middlewares/Third_Party/LwIP/src/api/sockets.c ****   lwip_socket_drop_registered_memberships(s);
 794:Middlewares/Third_Party/LwIP/src/api/sockets.c **** #endif /* LWIP_IGMP */
 795:Middlewares/Third_Party/LwIP/src/api/sockets.c **** #if LWIP_IPV6_MLD
 796:Middlewares/Third_Party/LwIP/src/api/sockets.c ****   /* drop all possibly joined MLD6 memberships */
 797:Middlewares/Third_Party/LwIP/src/api/sockets.c ****   lwip_socket_drop_registered_mld6_memberships(s);
 798:Middlewares/Third_Party/LwIP/src/api/sockets.c **** #endif /* LWIP_IPV6_MLD */
 799:Middlewares/Third_Party/LwIP/src/api/sockets.c **** 
 800:Middlewares/Third_Party/LwIP/src/api/sockets.c ****   err = netconn_prepare_delete(sock->conn);
 801:Middlewares/Third_Party/LwIP/src/api/sockets.c ****   if (err != ERR_OK) {
 802:Middlewares/Third_Party/LwIP/src/api/sockets.c ****     sock_set_errno(sock, err_to_errno(err));
 803:Middlewares/Third_Party/LwIP/src/api/sockets.c ****     done_socket(sock);
 804:Middlewares/Third_Party/LwIP/src/api/sockets.c ****     return -1;
 805:Middlewares/Third_Party/LwIP/src/api/sockets.c ****   }
 806:Middlewares/Third_Party/LwIP/src/api/sockets.c **** 
 807:Middlewares/Third_Party/LwIP/src/api/sockets.c ****   free_socket(sock, is_tcp);
 808:Middlewares/Third_Party/LwIP/src/api/sockets.c ****   set_errno(0);
 809:Middlewares/Third_Party/LwIP/src/api/sockets.c ****   return 0;
 810:Middlewares/Third_Party/LwIP/src/api/sockets.c **** }
 811:Middlewares/Third_Party/LwIP/src/api/sockets.c **** 
 812:Middlewares/Third_Party/LwIP/src/api/sockets.c **** int
 813:Middlewares/Third_Party/LwIP/src/api/sockets.c **** lwip_connect(int s, const struct sockaddr *name, socklen_t namelen)
ARM GAS  /tmp/cc3tDhb2.s 			page 20


 814:Middlewares/Third_Party/LwIP/src/api/sockets.c **** {
 815:Middlewares/Third_Party/LwIP/src/api/sockets.c ****   struct lwip_sock *sock;
 816:Middlewares/Third_Party/LwIP/src/api/sockets.c ****   err_t err;
 817:Middlewares/Third_Party/LwIP/src/api/sockets.c **** 
 818:Middlewares/Third_Party/LwIP/src/api/sockets.c ****   sock = get_socket(s);
 819:Middlewares/Third_Party/LwIP/src/api/sockets.c ****   if (!sock) {
 820:Middlewares/Third_Party/LwIP/src/api/sockets.c ****     return -1;
 821:Middlewares/Third_Party/LwIP/src/api/sockets.c ****   }
 822:Middlewares/Third_Party/LwIP/src/api/sockets.c **** 
 823:Middlewares/Third_Party/LwIP/src/api/sockets.c ****   if (!SOCK_ADDR_TYPE_MATCH_OR_UNSPEC(name, sock)) {
 824:Middlewares/Third_Party/LwIP/src/api/sockets.c ****     /* sockaddr does not match socket type (IPv4/IPv6) */
 825:Middlewares/Third_Party/LwIP/src/api/sockets.c ****     sock_set_errno(sock, err_to_errno(ERR_VAL));
 826:Middlewares/Third_Party/LwIP/src/api/sockets.c ****     done_socket(sock);
 827:Middlewares/Third_Party/LwIP/src/api/sockets.c ****     return -1;
 828:Middlewares/Third_Party/LwIP/src/api/sockets.c ****   }
 829:Middlewares/Third_Party/LwIP/src/api/sockets.c **** 
 830:Middlewares/Third_Party/LwIP/src/api/sockets.c ****   LWIP_UNUSED_ARG(namelen);
 831:Middlewares/Third_Party/LwIP/src/api/sockets.c ****   if (name->sa_family == AF_UNSPEC) {
 832:Middlewares/Third_Party/LwIP/src/api/sockets.c ****     LWIP_DEBUGF(SOCKETS_DEBUG, ("lwip_connect(%d, AF_UNSPEC)\n", s));
 833:Middlewares/Third_Party/LwIP/src/api/sockets.c ****     err = netconn_disconnect(sock->conn);
 834:Middlewares/Third_Party/LwIP/src/api/sockets.c ****   } else {
 835:Middlewares/Third_Party/LwIP/src/api/sockets.c ****     ip_addr_t remote_addr;
 836:Middlewares/Third_Party/LwIP/src/api/sockets.c ****     u16_t remote_port;
 837:Middlewares/Third_Party/LwIP/src/api/sockets.c **** 
 838:Middlewares/Third_Party/LwIP/src/api/sockets.c ****     /* check size, family and alignment of 'name' */
 839:Middlewares/Third_Party/LwIP/src/api/sockets.c ****     LWIP_ERROR("lwip_connect: invalid address", IS_SOCK_ADDR_LEN_VALID(namelen) &&
 840:Middlewares/Third_Party/LwIP/src/api/sockets.c ****                IS_SOCK_ADDR_TYPE_VALID_OR_UNSPEC(name) && IS_SOCK_ADDR_ALIGNED(name),
 841:Middlewares/Third_Party/LwIP/src/api/sockets.c ****                sock_set_errno(sock, err_to_errno(ERR_ARG)); done_socket(sock); return -1;);
 842:Middlewares/Third_Party/LwIP/src/api/sockets.c **** 
 843:Middlewares/Third_Party/LwIP/src/api/sockets.c ****     SOCKADDR_TO_IPADDR_PORT(name, &remote_addr, remote_port);
 844:Middlewares/Third_Party/LwIP/src/api/sockets.c ****     LWIP_DEBUGF(SOCKETS_DEBUG, ("lwip_connect(%d, addr=", s));
 845:Middlewares/Third_Party/LwIP/src/api/sockets.c ****     ip_addr_debug_print_val(SOCKETS_DEBUG, remote_addr);
 846:Middlewares/Third_Party/LwIP/src/api/sockets.c ****     LWIP_DEBUGF(SOCKETS_DEBUG, (" port=%"U16_F")\n", remote_port));
 847:Middlewares/Third_Party/LwIP/src/api/sockets.c **** 
 848:Middlewares/Third_Party/LwIP/src/api/sockets.c **** #if LWIP_IPV4 && LWIP_IPV6
 849:Middlewares/Third_Party/LwIP/src/api/sockets.c ****     /* Dual-stack: Unmap IPv4 mapped IPv6 addresses */
 850:Middlewares/Third_Party/LwIP/src/api/sockets.c ****     if (IP_IS_V6_VAL(remote_addr) && ip6_addr_isipv4mappedipv6(ip_2_ip6(&remote_addr))) {
 851:Middlewares/Third_Party/LwIP/src/api/sockets.c ****       unmap_ipv4_mapped_ipv6(ip_2_ip4(&remote_addr), ip_2_ip6(&remote_addr));
 852:Middlewares/Third_Party/LwIP/src/api/sockets.c ****       IP_SET_TYPE_VAL(remote_addr, IPADDR_TYPE_V4);
 853:Middlewares/Third_Party/LwIP/src/api/sockets.c ****     }
 854:Middlewares/Third_Party/LwIP/src/api/sockets.c **** #endif /* LWIP_IPV4 && LWIP_IPV6 */
 855:Middlewares/Third_Party/LwIP/src/api/sockets.c **** 
 856:Middlewares/Third_Party/LwIP/src/api/sockets.c ****     err = netconn_connect(sock->conn, &remote_addr, remote_port);
 857:Middlewares/Third_Party/LwIP/src/api/sockets.c ****   }
 858:Middlewares/Third_Party/LwIP/src/api/sockets.c **** 
 859:Middlewares/Third_Party/LwIP/src/api/sockets.c ****   if (err != ERR_OK) {
 860:Middlewares/Third_Party/LwIP/src/api/sockets.c ****     LWIP_DEBUGF(SOCKETS_DEBUG, ("lwip_connect(%d) failed, err=%d\n", s, err));
 861:Middlewares/Third_Party/LwIP/src/api/sockets.c ****     sock_set_errno(sock, err_to_errno(err));
 862:Middlewares/Third_Party/LwIP/src/api/sockets.c ****     done_socket(sock);
 863:Middlewares/Third_Party/LwIP/src/api/sockets.c ****     return -1;
 864:Middlewares/Third_Party/LwIP/src/api/sockets.c ****   }
 865:Middlewares/Third_Party/LwIP/src/api/sockets.c **** 
 866:Middlewares/Third_Party/LwIP/src/api/sockets.c ****   LWIP_DEBUGF(SOCKETS_DEBUG, ("lwip_connect(%d) succeeded\n", s));
 867:Middlewares/Third_Party/LwIP/src/api/sockets.c ****   sock_set_errno(sock, 0);
 868:Middlewares/Third_Party/LwIP/src/api/sockets.c ****   done_socket(sock);
 869:Middlewares/Third_Party/LwIP/src/api/sockets.c ****   return 0;
 870:Middlewares/Third_Party/LwIP/src/api/sockets.c **** }
ARM GAS  /tmp/cc3tDhb2.s 			page 21


 871:Middlewares/Third_Party/LwIP/src/api/sockets.c **** 
 872:Middlewares/Third_Party/LwIP/src/api/sockets.c **** /**
 873:Middlewares/Third_Party/LwIP/src/api/sockets.c ****  * Set a socket into listen mode.
 874:Middlewares/Third_Party/LwIP/src/api/sockets.c ****  * The socket may not have been used for another connection previously.
 875:Middlewares/Third_Party/LwIP/src/api/sockets.c ****  *
 876:Middlewares/Third_Party/LwIP/src/api/sockets.c ****  * @param s the socket to set to listening mode
 877:Middlewares/Third_Party/LwIP/src/api/sockets.c ****  * @param backlog (ATTENTION: needs TCP_LISTEN_BACKLOG=1)
 878:Middlewares/Third_Party/LwIP/src/api/sockets.c ****  * @return 0 on success, non-zero on failure
 879:Middlewares/Third_Party/LwIP/src/api/sockets.c ****  */
 880:Middlewares/Third_Party/LwIP/src/api/sockets.c **** int
 881:Middlewares/Third_Party/LwIP/src/api/sockets.c **** lwip_listen(int s, int backlog)
 882:Middlewares/Third_Party/LwIP/src/api/sockets.c **** {
 883:Middlewares/Third_Party/LwIP/src/api/sockets.c ****   struct lwip_sock *sock;
 884:Middlewares/Third_Party/LwIP/src/api/sockets.c ****   err_t err;
 885:Middlewares/Third_Party/LwIP/src/api/sockets.c **** 
 886:Middlewares/Third_Party/LwIP/src/api/sockets.c ****   LWIP_DEBUGF(SOCKETS_DEBUG, ("lwip_listen(%d, backlog=%d)\n", s, backlog));
 887:Middlewares/Third_Party/LwIP/src/api/sockets.c **** 
 888:Middlewares/Third_Party/LwIP/src/api/sockets.c ****   sock = get_socket(s);
 889:Middlewares/Third_Party/LwIP/src/api/sockets.c ****   if (!sock) {
 890:Middlewares/Third_Party/LwIP/src/api/sockets.c ****     return -1;
 891:Middlewares/Third_Party/LwIP/src/api/sockets.c ****   }
 892:Middlewares/Third_Party/LwIP/src/api/sockets.c **** 
 893:Middlewares/Third_Party/LwIP/src/api/sockets.c ****   /* limit the "backlog" parameter to fit in an u8_t */
 894:Middlewares/Third_Party/LwIP/src/api/sockets.c ****   backlog = LWIP_MIN(LWIP_MAX(backlog, 0), 0xff);
 895:Middlewares/Third_Party/LwIP/src/api/sockets.c **** 
 896:Middlewares/Third_Party/LwIP/src/api/sockets.c ****   err = netconn_listen_with_backlog(sock->conn, (u8_t)backlog);
 897:Middlewares/Third_Party/LwIP/src/api/sockets.c **** 
 898:Middlewares/Third_Party/LwIP/src/api/sockets.c ****   if (err != ERR_OK) {
 899:Middlewares/Third_Party/LwIP/src/api/sockets.c ****     LWIP_DEBUGF(SOCKETS_DEBUG, ("lwip_listen(%d) failed, err=%d\n", s, err));
 900:Middlewares/Third_Party/LwIP/src/api/sockets.c ****     if (NETCONNTYPE_GROUP(netconn_type(sock->conn)) != NETCONN_TCP) {
 901:Middlewares/Third_Party/LwIP/src/api/sockets.c ****       sock_set_errno(sock, EOPNOTSUPP);
 902:Middlewares/Third_Party/LwIP/src/api/sockets.c ****     } else {
 903:Middlewares/Third_Party/LwIP/src/api/sockets.c ****       sock_set_errno(sock, err_to_errno(err));
 904:Middlewares/Third_Party/LwIP/src/api/sockets.c ****     }
 905:Middlewares/Third_Party/LwIP/src/api/sockets.c ****     done_socket(sock);
 906:Middlewares/Third_Party/LwIP/src/api/sockets.c ****     return -1;
 907:Middlewares/Third_Party/LwIP/src/api/sockets.c ****   }
 908:Middlewares/Third_Party/LwIP/src/api/sockets.c **** 
 909:Middlewares/Third_Party/LwIP/src/api/sockets.c ****   sock_set_errno(sock, 0);
 910:Middlewares/Third_Party/LwIP/src/api/sockets.c ****   done_socket(sock);
 911:Middlewares/Third_Party/LwIP/src/api/sockets.c ****   return 0;
 912:Middlewares/Third_Party/LwIP/src/api/sockets.c **** }
 913:Middlewares/Third_Party/LwIP/src/api/sockets.c **** 
 914:Middlewares/Third_Party/LwIP/src/api/sockets.c **** #if LWIP_TCP
 915:Middlewares/Third_Party/LwIP/src/api/sockets.c **** /* Helper function to loop over receiving pbufs from netconn
 916:Middlewares/Third_Party/LwIP/src/api/sockets.c ****  * until "len" bytes are received or we're otherwise done.
 917:Middlewares/Third_Party/LwIP/src/api/sockets.c ****  * Keeps sock->lastdata for peeking or partly copying.
 918:Middlewares/Third_Party/LwIP/src/api/sockets.c ****  */
 919:Middlewares/Third_Party/LwIP/src/api/sockets.c **** static ssize_t
 920:Middlewares/Third_Party/LwIP/src/api/sockets.c **** lwip_recv_tcp(struct lwip_sock *sock, void *mem, size_t len, int flags)
 921:Middlewares/Third_Party/LwIP/src/api/sockets.c **** {
 922:Middlewares/Third_Party/LwIP/src/api/sockets.c ****   u8_t apiflags = NETCONN_NOAUTORCVD;
 923:Middlewares/Third_Party/LwIP/src/api/sockets.c ****   ssize_t recvd = 0;
 924:Middlewares/Third_Party/LwIP/src/api/sockets.c ****   ssize_t recv_left = (len <= SSIZE_MAX) ? (ssize_t)len : SSIZE_MAX;
 925:Middlewares/Third_Party/LwIP/src/api/sockets.c **** 
 926:Middlewares/Third_Party/LwIP/src/api/sockets.c ****   LWIP_ASSERT("no socket given", sock != NULL);
 927:Middlewares/Third_Party/LwIP/src/api/sockets.c ****   LWIP_ASSERT("this should be checked internally", NETCONNTYPE_GROUP(netconn_type(sock->conn)) == N
ARM GAS  /tmp/cc3tDhb2.s 			page 22


 928:Middlewares/Third_Party/LwIP/src/api/sockets.c **** 
 929:Middlewares/Third_Party/LwIP/src/api/sockets.c ****   if (flags & MSG_DONTWAIT) {
 930:Middlewares/Third_Party/LwIP/src/api/sockets.c ****     apiflags |= NETCONN_DONTBLOCK;
 931:Middlewares/Third_Party/LwIP/src/api/sockets.c ****   }
 932:Middlewares/Third_Party/LwIP/src/api/sockets.c **** 
 933:Middlewares/Third_Party/LwIP/src/api/sockets.c ****   do {
 934:Middlewares/Third_Party/LwIP/src/api/sockets.c ****     struct pbuf *p;
 935:Middlewares/Third_Party/LwIP/src/api/sockets.c ****     err_t err;
 936:Middlewares/Third_Party/LwIP/src/api/sockets.c ****     u16_t copylen;
 937:Middlewares/Third_Party/LwIP/src/api/sockets.c **** 
 938:Middlewares/Third_Party/LwIP/src/api/sockets.c ****     LWIP_DEBUGF(SOCKETS_DEBUG, ("lwip_recv_tcp: top while sock->lastdata=%p\n", (void *)sock->lastd
 939:Middlewares/Third_Party/LwIP/src/api/sockets.c ****     /* Check if there is data left from the last recv operation. */
 940:Middlewares/Third_Party/LwIP/src/api/sockets.c ****     if (sock->lastdata.pbuf) {
 941:Middlewares/Third_Party/LwIP/src/api/sockets.c ****       p = sock->lastdata.pbuf;
 942:Middlewares/Third_Party/LwIP/src/api/sockets.c ****     } else {
 943:Middlewares/Third_Party/LwIP/src/api/sockets.c ****       /* No data was left from the previous operation, so we try to get
 944:Middlewares/Third_Party/LwIP/src/api/sockets.c ****          some from the network. */
 945:Middlewares/Third_Party/LwIP/src/api/sockets.c ****       err = netconn_recv_tcp_pbuf_flags(sock->conn, &p, apiflags);
 946:Middlewares/Third_Party/LwIP/src/api/sockets.c ****       LWIP_DEBUGF(SOCKETS_DEBUG, ("lwip_recv_tcp: netconn_recv err=%d, pbuf=%p\n",
 947:Middlewares/Third_Party/LwIP/src/api/sockets.c ****                                   err, (void *)p));
 948:Middlewares/Third_Party/LwIP/src/api/sockets.c **** 
 949:Middlewares/Third_Party/LwIP/src/api/sockets.c ****       if (err != ERR_OK) {
 950:Middlewares/Third_Party/LwIP/src/api/sockets.c ****         if (recvd > 0) {
 951:Middlewares/Third_Party/LwIP/src/api/sockets.c ****           /* already received data, return that (this trusts in getting the same error from
 952:Middlewares/Third_Party/LwIP/src/api/sockets.c ****              netconn layer again next time netconn_recv is called) */
 953:Middlewares/Third_Party/LwIP/src/api/sockets.c ****           goto lwip_recv_tcp_done;
 954:Middlewares/Third_Party/LwIP/src/api/sockets.c ****         }
 955:Middlewares/Third_Party/LwIP/src/api/sockets.c ****         /* We should really do some error checking here. */
 956:Middlewares/Third_Party/LwIP/src/api/sockets.c ****         LWIP_DEBUGF(SOCKETS_DEBUG, ("lwip_recv_tcp: p == NULL, error is \"%s\"!\n",
 957:Middlewares/Third_Party/LwIP/src/api/sockets.c ****                                     lwip_strerr(err)));
 958:Middlewares/Third_Party/LwIP/src/api/sockets.c ****         sock_set_errno(sock, err_to_errno(err));
 959:Middlewares/Third_Party/LwIP/src/api/sockets.c ****         if (err == ERR_CLSD) {
 960:Middlewares/Third_Party/LwIP/src/api/sockets.c ****           return 0;
 961:Middlewares/Third_Party/LwIP/src/api/sockets.c ****         } else {
 962:Middlewares/Third_Party/LwIP/src/api/sockets.c ****           return -1;
 963:Middlewares/Third_Party/LwIP/src/api/sockets.c ****         }
 964:Middlewares/Third_Party/LwIP/src/api/sockets.c ****       }
 965:Middlewares/Third_Party/LwIP/src/api/sockets.c ****       LWIP_ASSERT("p != NULL", p != NULL);
 966:Middlewares/Third_Party/LwIP/src/api/sockets.c ****       sock->lastdata.pbuf = p;
 967:Middlewares/Third_Party/LwIP/src/api/sockets.c ****     }
 968:Middlewares/Third_Party/LwIP/src/api/sockets.c **** 
 969:Middlewares/Third_Party/LwIP/src/api/sockets.c ****     LWIP_DEBUGF(SOCKETS_DEBUG, ("lwip_recv_tcp: buflen=%"U16_F" recv_left=%d off=%d\n",
 970:Middlewares/Third_Party/LwIP/src/api/sockets.c ****                                 p->tot_len, (int)recv_left, (int)recvd));
 971:Middlewares/Third_Party/LwIP/src/api/sockets.c **** 
 972:Middlewares/Third_Party/LwIP/src/api/sockets.c ****     if (recv_left > p->tot_len) {
 973:Middlewares/Third_Party/LwIP/src/api/sockets.c ****       copylen = p->tot_len;
 974:Middlewares/Third_Party/LwIP/src/api/sockets.c ****     } else {
 975:Middlewares/Third_Party/LwIP/src/api/sockets.c ****       copylen = (u16_t)recv_left;
 976:Middlewares/Third_Party/LwIP/src/api/sockets.c ****     }
 977:Middlewares/Third_Party/LwIP/src/api/sockets.c ****     if (recvd + copylen < recvd) {
 978:Middlewares/Third_Party/LwIP/src/api/sockets.c ****       /* overflow */
 979:Middlewares/Third_Party/LwIP/src/api/sockets.c ****       copylen = (u16_t)(SSIZE_MAX - recvd);
 980:Middlewares/Third_Party/LwIP/src/api/sockets.c ****     }
 981:Middlewares/Third_Party/LwIP/src/api/sockets.c **** 
 982:Middlewares/Third_Party/LwIP/src/api/sockets.c ****     /* copy the contents of the received buffer into
 983:Middlewares/Third_Party/LwIP/src/api/sockets.c ****     the supplied memory pointer mem */
 984:Middlewares/Third_Party/LwIP/src/api/sockets.c ****     pbuf_copy_partial(p, (u8_t *)mem + recvd, copylen, 0);
ARM GAS  /tmp/cc3tDhb2.s 			page 23


 985:Middlewares/Third_Party/LwIP/src/api/sockets.c **** 
 986:Middlewares/Third_Party/LwIP/src/api/sockets.c ****     recvd += copylen;
 987:Middlewares/Third_Party/LwIP/src/api/sockets.c **** 
 988:Middlewares/Third_Party/LwIP/src/api/sockets.c ****     /* TCP combines multiple pbufs for one recv */
 989:Middlewares/Third_Party/LwIP/src/api/sockets.c ****     LWIP_ASSERT("invalid copylen, len would underflow", recv_left >= copylen);
 990:Middlewares/Third_Party/LwIP/src/api/sockets.c ****     recv_left -= copylen;
 991:Middlewares/Third_Party/LwIP/src/api/sockets.c **** 
 992:Middlewares/Third_Party/LwIP/src/api/sockets.c ****     /* Unless we peek the incoming message... */
 993:Middlewares/Third_Party/LwIP/src/api/sockets.c ****     if ((flags & MSG_PEEK) == 0) {
 994:Middlewares/Third_Party/LwIP/src/api/sockets.c ****       /* ... check if there is data left in the pbuf */
 995:Middlewares/Third_Party/LwIP/src/api/sockets.c ****       LWIP_ASSERT("invalid copylen", p->tot_len >= copylen);
 996:Middlewares/Third_Party/LwIP/src/api/sockets.c ****       if (p->tot_len - copylen > 0) {
 997:Middlewares/Third_Party/LwIP/src/api/sockets.c ****         /* If so, it should be saved in the sock structure for the next recv call.
 998:Middlewares/Third_Party/LwIP/src/api/sockets.c ****            We store the pbuf but hide/free the consumed data: */
 999:Middlewares/Third_Party/LwIP/src/api/sockets.c ****         sock->lastdata.pbuf = pbuf_free_header(p, copylen);
1000:Middlewares/Third_Party/LwIP/src/api/sockets.c ****         LWIP_DEBUGF(SOCKETS_DEBUG, ("lwip_recv_tcp: lastdata now pbuf=%p\n", (void *)sock->lastdata
1001:Middlewares/Third_Party/LwIP/src/api/sockets.c ****       } else {
1002:Middlewares/Third_Party/LwIP/src/api/sockets.c ****         sock->lastdata.pbuf = NULL;
1003:Middlewares/Third_Party/LwIP/src/api/sockets.c ****         LWIP_DEBUGF(SOCKETS_DEBUG, ("lwip_recv_tcp: deleting pbuf=%p\n", (void *)p));
1004:Middlewares/Third_Party/LwIP/src/api/sockets.c ****         pbuf_free(p);
1005:Middlewares/Third_Party/LwIP/src/api/sockets.c ****       }
1006:Middlewares/Third_Party/LwIP/src/api/sockets.c ****     }
1007:Middlewares/Third_Party/LwIP/src/api/sockets.c ****     /* once we have some data to return, only add more if we don't need to wait */
1008:Middlewares/Third_Party/LwIP/src/api/sockets.c ****     apiflags |= NETCONN_DONTBLOCK | NETCONN_NOFIN;
1009:Middlewares/Third_Party/LwIP/src/api/sockets.c ****     /* @todo: do we need to support peeking more than one pbuf? */
1010:Middlewares/Third_Party/LwIP/src/api/sockets.c ****   } while ((recv_left > 0) && !(flags & MSG_PEEK));
1011:Middlewares/Third_Party/LwIP/src/api/sockets.c **** lwip_recv_tcp_done:
1012:Middlewares/Third_Party/LwIP/src/api/sockets.c ****   if ((recvd > 0) && !(flags & MSG_PEEK)) {
1013:Middlewares/Third_Party/LwIP/src/api/sockets.c ****     /* ensure window update after copying all data */
1014:Middlewares/Third_Party/LwIP/src/api/sockets.c ****     netconn_tcp_recvd(sock->conn, (size_t)recvd);
1015:Middlewares/Third_Party/LwIP/src/api/sockets.c ****   }
1016:Middlewares/Third_Party/LwIP/src/api/sockets.c ****   sock_set_errno(sock, 0);
1017:Middlewares/Third_Party/LwIP/src/api/sockets.c ****   return recvd;
1018:Middlewares/Third_Party/LwIP/src/api/sockets.c **** }
1019:Middlewares/Third_Party/LwIP/src/api/sockets.c **** #endif
1020:Middlewares/Third_Party/LwIP/src/api/sockets.c **** 
1021:Middlewares/Third_Party/LwIP/src/api/sockets.c **** /* Convert a netbuf's address data to struct sockaddr */
1022:Middlewares/Third_Party/LwIP/src/api/sockets.c **** static int
1023:Middlewares/Third_Party/LwIP/src/api/sockets.c **** lwip_sock_make_addr(struct netconn *conn, ip_addr_t *fromaddr, u16_t port,
1024:Middlewares/Third_Party/LwIP/src/api/sockets.c ****                     struct sockaddr *from, socklen_t *fromlen)
1025:Middlewares/Third_Party/LwIP/src/api/sockets.c **** {
1026:Middlewares/Third_Party/LwIP/src/api/sockets.c ****   int truncated = 0;
1027:Middlewares/Third_Party/LwIP/src/api/sockets.c ****   union sockaddr_aligned saddr;
1028:Middlewares/Third_Party/LwIP/src/api/sockets.c **** 
1029:Middlewares/Third_Party/LwIP/src/api/sockets.c ****   LWIP_UNUSED_ARG(conn);
1030:Middlewares/Third_Party/LwIP/src/api/sockets.c **** 
1031:Middlewares/Third_Party/LwIP/src/api/sockets.c ****   LWIP_ASSERT("fromaddr != NULL", fromaddr != NULL);
1032:Middlewares/Third_Party/LwIP/src/api/sockets.c ****   LWIP_ASSERT("from != NULL", from != NULL);
1033:Middlewares/Third_Party/LwIP/src/api/sockets.c ****   LWIP_ASSERT("fromlen != NULL", fromlen != NULL);
1034:Middlewares/Third_Party/LwIP/src/api/sockets.c **** 
1035:Middlewares/Third_Party/LwIP/src/api/sockets.c **** #if LWIP_IPV4 && LWIP_IPV6
1036:Middlewares/Third_Party/LwIP/src/api/sockets.c ****   /* Dual-stack: Map IPv4 addresses to IPv4 mapped IPv6 */
1037:Middlewares/Third_Party/LwIP/src/api/sockets.c ****   if (NETCONNTYPE_ISIPV6(netconn_type(conn)) && IP_IS_V4(fromaddr)) {
1038:Middlewares/Third_Party/LwIP/src/api/sockets.c ****     ip4_2_ipv4_mapped_ipv6(ip_2_ip6(fromaddr), ip_2_ip4(fromaddr));
1039:Middlewares/Third_Party/LwIP/src/api/sockets.c ****     IP_SET_TYPE(fromaddr, IPADDR_TYPE_V6);
1040:Middlewares/Third_Party/LwIP/src/api/sockets.c ****   }
1041:Middlewares/Third_Party/LwIP/src/api/sockets.c **** #endif /* LWIP_IPV4 && LWIP_IPV6 */
ARM GAS  /tmp/cc3tDhb2.s 			page 24


1042:Middlewares/Third_Party/LwIP/src/api/sockets.c **** 
1043:Middlewares/Third_Party/LwIP/src/api/sockets.c ****   IPADDR_PORT_TO_SOCKADDR(&saddr, fromaddr, port);
1044:Middlewares/Third_Party/LwIP/src/api/sockets.c ****   if (*fromlen < saddr.sa.sa_len) {
1045:Middlewares/Third_Party/LwIP/src/api/sockets.c ****     truncated = 1;
1046:Middlewares/Third_Party/LwIP/src/api/sockets.c ****   } else if (*fromlen > saddr.sa.sa_len) {
1047:Middlewares/Third_Party/LwIP/src/api/sockets.c ****     *fromlen = saddr.sa.sa_len;
1048:Middlewares/Third_Party/LwIP/src/api/sockets.c ****   }
1049:Middlewares/Third_Party/LwIP/src/api/sockets.c ****   MEMCPY(from, &saddr, *fromlen);
1050:Middlewares/Third_Party/LwIP/src/api/sockets.c ****   return truncated;
1051:Middlewares/Third_Party/LwIP/src/api/sockets.c **** }
1052:Middlewares/Third_Party/LwIP/src/api/sockets.c **** 
1053:Middlewares/Third_Party/LwIP/src/api/sockets.c **** #if LWIP_TCP
1054:Middlewares/Third_Party/LwIP/src/api/sockets.c **** /* Helper function to get a tcp socket's remote address info */
1055:Middlewares/Third_Party/LwIP/src/api/sockets.c **** static int
1056:Middlewares/Third_Party/LwIP/src/api/sockets.c **** lwip_recv_tcp_from(struct lwip_sock *sock, struct sockaddr *from, socklen_t *fromlen, const char *d
1057:Middlewares/Third_Party/LwIP/src/api/sockets.c **** {
1058:Middlewares/Third_Party/LwIP/src/api/sockets.c ****   if (sock == NULL) {
1059:Middlewares/Third_Party/LwIP/src/api/sockets.c ****     return 0;
1060:Middlewares/Third_Party/LwIP/src/api/sockets.c ****   }
1061:Middlewares/Third_Party/LwIP/src/api/sockets.c ****   LWIP_UNUSED_ARG(dbg_fn);
1062:Middlewares/Third_Party/LwIP/src/api/sockets.c ****   LWIP_UNUSED_ARG(dbg_s);
1063:Middlewares/Third_Party/LwIP/src/api/sockets.c ****   LWIP_UNUSED_ARG(dbg_ret);
1064:Middlewares/Third_Party/LwIP/src/api/sockets.c **** 
1065:Middlewares/Third_Party/LwIP/src/api/sockets.c **** #if !SOCKETS_DEBUG
1066:Middlewares/Third_Party/LwIP/src/api/sockets.c ****   if (from && fromlen)
1067:Middlewares/Third_Party/LwIP/src/api/sockets.c **** #endif /* !SOCKETS_DEBUG */
1068:Middlewares/Third_Party/LwIP/src/api/sockets.c ****   {
1069:Middlewares/Third_Party/LwIP/src/api/sockets.c ****     /* get remote addr/port from tcp_pcb */
1070:Middlewares/Third_Party/LwIP/src/api/sockets.c ****     u16_t port;
1071:Middlewares/Third_Party/LwIP/src/api/sockets.c ****     ip_addr_t tmpaddr;
1072:Middlewares/Third_Party/LwIP/src/api/sockets.c ****     netconn_getaddr(sock->conn, &tmpaddr, &port, 0);
1073:Middlewares/Third_Party/LwIP/src/api/sockets.c ****     LWIP_DEBUGF(SOCKETS_DEBUG, ("%s(%d):  addr=", dbg_fn, dbg_s));
1074:Middlewares/Third_Party/LwIP/src/api/sockets.c ****     ip_addr_debug_print_val(SOCKETS_DEBUG, tmpaddr);
1075:Middlewares/Third_Party/LwIP/src/api/sockets.c ****     LWIP_DEBUGF(SOCKETS_DEBUG, (" port=%"U16_F" len=%d\n", port, (int)dbg_ret));
1076:Middlewares/Third_Party/LwIP/src/api/sockets.c ****     if (from && fromlen) {
1077:Middlewares/Third_Party/LwIP/src/api/sockets.c ****       return lwip_sock_make_addr(sock->conn, &tmpaddr, port, from, fromlen);
1078:Middlewares/Third_Party/LwIP/src/api/sockets.c ****     }
1079:Middlewares/Third_Party/LwIP/src/api/sockets.c ****   }
1080:Middlewares/Third_Party/LwIP/src/api/sockets.c ****   return 0;
1081:Middlewares/Third_Party/LwIP/src/api/sockets.c **** }
1082:Middlewares/Third_Party/LwIP/src/api/sockets.c **** #endif
1083:Middlewares/Third_Party/LwIP/src/api/sockets.c **** 
1084:Middlewares/Third_Party/LwIP/src/api/sockets.c **** /* Helper function to receive a netbuf from a udp or raw netconn.
1085:Middlewares/Third_Party/LwIP/src/api/sockets.c ****  * Keeps sock->lastdata for peeking.
1086:Middlewares/Third_Party/LwIP/src/api/sockets.c ****  */
1087:Middlewares/Third_Party/LwIP/src/api/sockets.c **** static err_t
1088:Middlewares/Third_Party/LwIP/src/api/sockets.c **** lwip_recvfrom_udp_raw(struct lwip_sock *sock, int flags, struct msghdr *msg, u16_t *datagram_len, i
1089:Middlewares/Third_Party/LwIP/src/api/sockets.c **** {
1090:Middlewares/Third_Party/LwIP/src/api/sockets.c ****   struct netbuf *buf;
1091:Middlewares/Third_Party/LwIP/src/api/sockets.c ****   u8_t apiflags;
1092:Middlewares/Third_Party/LwIP/src/api/sockets.c ****   err_t err;
1093:Middlewares/Third_Party/LwIP/src/api/sockets.c ****   u16_t buflen, copylen, copied;
1094:Middlewares/Third_Party/LwIP/src/api/sockets.c ****   int i;
1095:Middlewares/Third_Party/LwIP/src/api/sockets.c **** 
1096:Middlewares/Third_Party/LwIP/src/api/sockets.c ****   LWIP_UNUSED_ARG(dbg_s);
1097:Middlewares/Third_Party/LwIP/src/api/sockets.c ****   LWIP_ERROR("lwip_recvfrom_udp_raw: invalid arguments", (msg->msg_iov != NULL) || (msg->msg_iovlen
1098:Middlewares/Third_Party/LwIP/src/api/sockets.c **** 
ARM GAS  /tmp/cc3tDhb2.s 			page 25


1099:Middlewares/Third_Party/LwIP/src/api/sockets.c ****   if (flags & MSG_DONTWAIT) {
1100:Middlewares/Third_Party/LwIP/src/api/sockets.c ****     apiflags = NETCONN_DONTBLOCK;
1101:Middlewares/Third_Party/LwIP/src/api/sockets.c ****   } else {
1102:Middlewares/Third_Party/LwIP/src/api/sockets.c ****     apiflags = 0;
1103:Middlewares/Third_Party/LwIP/src/api/sockets.c ****   }
1104:Middlewares/Third_Party/LwIP/src/api/sockets.c **** 
1105:Middlewares/Third_Party/LwIP/src/api/sockets.c ****   LWIP_DEBUGF(SOCKETS_DEBUG, ("lwip_recvfrom_udp_raw[UDP/RAW]: top sock->lastdata=%p\n", (void *)so
1106:Middlewares/Third_Party/LwIP/src/api/sockets.c ****   /* Check if there is data left from the last recv operation. */
1107:Middlewares/Third_Party/LwIP/src/api/sockets.c ****   buf = sock->lastdata.netbuf;
1108:Middlewares/Third_Party/LwIP/src/api/sockets.c ****   if (buf == NULL) {
1109:Middlewares/Third_Party/LwIP/src/api/sockets.c ****     /* No data was left from the previous operation, so we try to get
1110:Middlewares/Third_Party/LwIP/src/api/sockets.c ****         some from the network. */
1111:Middlewares/Third_Party/LwIP/src/api/sockets.c ****     err = netconn_recv_udp_raw_netbuf_flags(sock->conn, &buf, apiflags);
1112:Middlewares/Third_Party/LwIP/src/api/sockets.c ****     LWIP_DEBUGF(SOCKETS_DEBUG, ("lwip_recvfrom_udp_raw[UDP/RAW]: netconn_recv err=%d, netbuf=%p\n",
1113:Middlewares/Third_Party/LwIP/src/api/sockets.c ****                                 err, (void *)buf));
1114:Middlewares/Third_Party/LwIP/src/api/sockets.c **** 
1115:Middlewares/Third_Party/LwIP/src/api/sockets.c ****     if (err != ERR_OK) {
1116:Middlewares/Third_Party/LwIP/src/api/sockets.c ****       return err;
1117:Middlewares/Third_Party/LwIP/src/api/sockets.c ****     }
1118:Middlewares/Third_Party/LwIP/src/api/sockets.c ****     LWIP_ASSERT("buf != NULL", buf != NULL);
1119:Middlewares/Third_Party/LwIP/src/api/sockets.c ****     sock->lastdata.netbuf = buf;
1120:Middlewares/Third_Party/LwIP/src/api/sockets.c ****   }
1121:Middlewares/Third_Party/LwIP/src/api/sockets.c ****   buflen = buf->p->tot_len;
1122:Middlewares/Third_Party/LwIP/src/api/sockets.c ****   LWIP_DEBUGF(SOCKETS_DEBUG, ("lwip_recvfrom_udp_raw: buflen=%"U16_F"\n", buflen));
1123:Middlewares/Third_Party/LwIP/src/api/sockets.c **** 
1124:Middlewares/Third_Party/LwIP/src/api/sockets.c ****   copied = 0;
1125:Middlewares/Third_Party/LwIP/src/api/sockets.c ****   /* copy the pbuf payload into the iovs */
1126:Middlewares/Third_Party/LwIP/src/api/sockets.c ****   for (i = 0; (i < msg->msg_iovlen) && (copied < buflen); i++) {
1127:Middlewares/Third_Party/LwIP/src/api/sockets.c ****     u16_t len_left = (u16_t)(buflen - copied);
1128:Middlewares/Third_Party/LwIP/src/api/sockets.c ****     if (msg->msg_iov[i].iov_len > len_left) {
1129:Middlewares/Third_Party/LwIP/src/api/sockets.c ****       copylen = len_left;
1130:Middlewares/Third_Party/LwIP/src/api/sockets.c ****     } else {
1131:Middlewares/Third_Party/LwIP/src/api/sockets.c ****       copylen = (u16_t)msg->msg_iov[i].iov_len;
1132:Middlewares/Third_Party/LwIP/src/api/sockets.c ****     }
1133:Middlewares/Third_Party/LwIP/src/api/sockets.c **** 
1134:Middlewares/Third_Party/LwIP/src/api/sockets.c ****     /* copy the contents of the received buffer into
1135:Middlewares/Third_Party/LwIP/src/api/sockets.c ****         the supplied memory buffer */
1136:Middlewares/Third_Party/LwIP/src/api/sockets.c ****     pbuf_copy_partial(buf->p, (u8_t *)msg->msg_iov[i].iov_base, copylen, copied);
1137:Middlewares/Third_Party/LwIP/src/api/sockets.c ****     copied = (u16_t)(copied + copylen);
1138:Middlewares/Third_Party/LwIP/src/api/sockets.c ****   }
1139:Middlewares/Third_Party/LwIP/src/api/sockets.c **** 
1140:Middlewares/Third_Party/LwIP/src/api/sockets.c ****   /* Check to see from where the data was.*/
1141:Middlewares/Third_Party/LwIP/src/api/sockets.c **** #if !SOCKETS_DEBUG
1142:Middlewares/Third_Party/LwIP/src/api/sockets.c ****   if (msg->msg_name && msg->msg_namelen)
1143:Middlewares/Third_Party/LwIP/src/api/sockets.c **** #endif /* !SOCKETS_DEBUG */
1144:Middlewares/Third_Party/LwIP/src/api/sockets.c ****   {
1145:Middlewares/Third_Party/LwIP/src/api/sockets.c ****     LWIP_DEBUGF(SOCKETS_DEBUG, ("lwip_recvfrom_udp_raw(%d):  addr=", dbg_s));
1146:Middlewares/Third_Party/LwIP/src/api/sockets.c ****     ip_addr_debug_print_val(SOCKETS_DEBUG, *netbuf_fromaddr(buf));
1147:Middlewares/Third_Party/LwIP/src/api/sockets.c ****     LWIP_DEBUGF(SOCKETS_DEBUG, (" port=%"U16_F" len=%d\n", netbuf_fromport(buf), copied));
1148:Middlewares/Third_Party/LwIP/src/api/sockets.c ****     if (msg->msg_name && msg->msg_namelen) {
1149:Middlewares/Third_Party/LwIP/src/api/sockets.c ****       lwip_sock_make_addr(sock->conn, netbuf_fromaddr(buf), netbuf_fromport(buf),
1150:Middlewares/Third_Party/LwIP/src/api/sockets.c ****                           (struct sockaddr *)msg->msg_name, &msg->msg_namelen);
1151:Middlewares/Third_Party/LwIP/src/api/sockets.c ****     }
1152:Middlewares/Third_Party/LwIP/src/api/sockets.c ****   }
1153:Middlewares/Third_Party/LwIP/src/api/sockets.c **** 
1154:Middlewares/Third_Party/LwIP/src/api/sockets.c ****   /* Initialize flag output */
1155:Middlewares/Third_Party/LwIP/src/api/sockets.c ****   msg->msg_flags = 0;
ARM GAS  /tmp/cc3tDhb2.s 			page 26


1156:Middlewares/Third_Party/LwIP/src/api/sockets.c **** 
1157:Middlewares/Third_Party/LwIP/src/api/sockets.c ****   if (msg->msg_control) {
1158:Middlewares/Third_Party/LwIP/src/api/sockets.c ****     u8_t wrote_msg = 0;
1159:Middlewares/Third_Party/LwIP/src/api/sockets.c **** #if LWIP_NETBUF_RECVINFO
1160:Middlewares/Third_Party/LwIP/src/api/sockets.c ****     /* Check if packet info was recorded */
1161:Middlewares/Third_Party/LwIP/src/api/sockets.c ****     if (buf->flags & NETBUF_FLAG_DESTADDR) {
1162:Middlewares/Third_Party/LwIP/src/api/sockets.c ****       if (IP_IS_V4(&buf->toaddr)) {
1163:Middlewares/Third_Party/LwIP/src/api/sockets.c **** #if LWIP_IPV4
1164:Middlewares/Third_Party/LwIP/src/api/sockets.c ****         if (msg->msg_controllen >= CMSG_SPACE(sizeof(struct in_pktinfo))) {
1165:Middlewares/Third_Party/LwIP/src/api/sockets.c ****           struct cmsghdr *chdr = CMSG_FIRSTHDR(msg); /* This will always return a header!! */
1166:Middlewares/Third_Party/LwIP/src/api/sockets.c ****           struct in_pktinfo *pkti = (struct in_pktinfo *)CMSG_DATA(chdr);
1167:Middlewares/Third_Party/LwIP/src/api/sockets.c ****           chdr->cmsg_level = IPPROTO_IP;
1168:Middlewares/Third_Party/LwIP/src/api/sockets.c ****           chdr->cmsg_type = IP_PKTINFO;
1169:Middlewares/Third_Party/LwIP/src/api/sockets.c ****           chdr->cmsg_len = CMSG_LEN(sizeof(struct in_pktinfo));
1170:Middlewares/Third_Party/LwIP/src/api/sockets.c ****           pkti->ipi_ifindex = buf->p->if_idx;
1171:Middlewares/Third_Party/LwIP/src/api/sockets.c ****           inet_addr_from_ip4addr(&pkti->ipi_addr, ip_2_ip4(netbuf_destaddr(buf)));
1172:Middlewares/Third_Party/LwIP/src/api/sockets.c ****           msg->msg_controllen = CMSG_SPACE(sizeof(struct in_pktinfo));
1173:Middlewares/Third_Party/LwIP/src/api/sockets.c ****           wrote_msg = 1;
1174:Middlewares/Third_Party/LwIP/src/api/sockets.c ****         } else {
1175:Middlewares/Third_Party/LwIP/src/api/sockets.c ****           msg->msg_flags |= MSG_CTRUNC;
1176:Middlewares/Third_Party/LwIP/src/api/sockets.c ****         }
1177:Middlewares/Third_Party/LwIP/src/api/sockets.c **** #endif /* LWIP_IPV4 */
1178:Middlewares/Third_Party/LwIP/src/api/sockets.c ****       }
1179:Middlewares/Third_Party/LwIP/src/api/sockets.c ****     }
1180:Middlewares/Third_Party/LwIP/src/api/sockets.c **** #endif /* LWIP_NETBUF_RECVINFO */
1181:Middlewares/Third_Party/LwIP/src/api/sockets.c **** 
1182:Middlewares/Third_Party/LwIP/src/api/sockets.c ****     if (!wrote_msg) {
1183:Middlewares/Third_Party/LwIP/src/api/sockets.c ****       msg->msg_controllen = 0;
1184:Middlewares/Third_Party/LwIP/src/api/sockets.c ****     }
1185:Middlewares/Third_Party/LwIP/src/api/sockets.c ****   }
1186:Middlewares/Third_Party/LwIP/src/api/sockets.c **** 
1187:Middlewares/Third_Party/LwIP/src/api/sockets.c ****   /* If we don't peek the incoming message: zero lastdata pointer and free the netbuf */
1188:Middlewares/Third_Party/LwIP/src/api/sockets.c ****   if ((flags & MSG_PEEK) == 0) {
1189:Middlewares/Third_Party/LwIP/src/api/sockets.c ****     sock->lastdata.netbuf = NULL;
1190:Middlewares/Third_Party/LwIP/src/api/sockets.c ****     netbuf_delete(buf);
1191:Middlewares/Third_Party/LwIP/src/api/sockets.c ****   }
1192:Middlewares/Third_Party/LwIP/src/api/sockets.c ****   if (datagram_len) {
1193:Middlewares/Third_Party/LwIP/src/api/sockets.c ****     *datagram_len = buflen;
1194:Middlewares/Third_Party/LwIP/src/api/sockets.c ****   }
1195:Middlewares/Third_Party/LwIP/src/api/sockets.c ****   return ERR_OK;
1196:Middlewares/Third_Party/LwIP/src/api/sockets.c **** }
1197:Middlewares/Third_Party/LwIP/src/api/sockets.c **** 
1198:Middlewares/Third_Party/LwIP/src/api/sockets.c **** ssize_t
1199:Middlewares/Third_Party/LwIP/src/api/sockets.c **** lwip_recvfrom(int s, void *mem, size_t len, int flags,
1200:Middlewares/Third_Party/LwIP/src/api/sockets.c ****               struct sockaddr *from, socklen_t *fromlen)
1201:Middlewares/Third_Party/LwIP/src/api/sockets.c **** {
1202:Middlewares/Third_Party/LwIP/src/api/sockets.c ****   struct lwip_sock *sock;
1203:Middlewares/Third_Party/LwIP/src/api/sockets.c ****   ssize_t ret;
1204:Middlewares/Third_Party/LwIP/src/api/sockets.c **** 
1205:Middlewares/Third_Party/LwIP/src/api/sockets.c ****   LWIP_DEBUGF(SOCKETS_DEBUG, ("lwip_recvfrom(%d, %p, %"SZT_F", 0x%x, ..)\n", s, mem, len, flags));
1206:Middlewares/Third_Party/LwIP/src/api/sockets.c ****   sock = get_socket(s);
1207:Middlewares/Third_Party/LwIP/src/api/sockets.c ****   if (!sock) {
1208:Middlewares/Third_Party/LwIP/src/api/sockets.c ****     return -1;
1209:Middlewares/Third_Party/LwIP/src/api/sockets.c ****   }
1210:Middlewares/Third_Party/LwIP/src/api/sockets.c **** #if LWIP_TCP
1211:Middlewares/Third_Party/LwIP/src/api/sockets.c ****   if (NETCONNTYPE_GROUP(netconn_type(sock->conn)) == NETCONN_TCP) {
1212:Middlewares/Third_Party/LwIP/src/api/sockets.c ****     ret = lwip_recv_tcp(sock, mem, len, flags);
ARM GAS  /tmp/cc3tDhb2.s 			page 27


1213:Middlewares/Third_Party/LwIP/src/api/sockets.c ****     lwip_recv_tcp_from(sock, from, fromlen, "lwip_recvfrom", s, ret);
1214:Middlewares/Third_Party/LwIP/src/api/sockets.c ****     done_socket(sock);
1215:Middlewares/Third_Party/LwIP/src/api/sockets.c ****     return ret;
1216:Middlewares/Third_Party/LwIP/src/api/sockets.c ****   } else
1217:Middlewares/Third_Party/LwIP/src/api/sockets.c **** #endif
1218:Middlewares/Third_Party/LwIP/src/api/sockets.c ****   {
1219:Middlewares/Third_Party/LwIP/src/api/sockets.c ****     u16_t datagram_len = 0;
1220:Middlewares/Third_Party/LwIP/src/api/sockets.c ****     struct iovec vec;
1221:Middlewares/Third_Party/LwIP/src/api/sockets.c ****     struct msghdr msg;
1222:Middlewares/Third_Party/LwIP/src/api/sockets.c ****     err_t err;
1223:Middlewares/Third_Party/LwIP/src/api/sockets.c ****     vec.iov_base = mem;
1224:Middlewares/Third_Party/LwIP/src/api/sockets.c ****     vec.iov_len = len;
1225:Middlewares/Third_Party/LwIP/src/api/sockets.c ****     msg.msg_control = NULL;
1226:Middlewares/Third_Party/LwIP/src/api/sockets.c ****     msg.msg_controllen = 0;
1227:Middlewares/Third_Party/LwIP/src/api/sockets.c ****     msg.msg_flags = 0;
1228:Middlewares/Third_Party/LwIP/src/api/sockets.c ****     msg.msg_iov = &vec;
1229:Middlewares/Third_Party/LwIP/src/api/sockets.c ****     msg.msg_iovlen = 1;
1230:Middlewares/Third_Party/LwIP/src/api/sockets.c ****     msg.msg_name = from;
1231:Middlewares/Third_Party/LwIP/src/api/sockets.c ****     msg.msg_namelen = (fromlen ? *fromlen : 0);
1232:Middlewares/Third_Party/LwIP/src/api/sockets.c ****     err = lwip_recvfrom_udp_raw(sock, flags, &msg, &datagram_len, s);
1233:Middlewares/Third_Party/LwIP/src/api/sockets.c ****     if (err != ERR_OK) {
1234:Middlewares/Third_Party/LwIP/src/api/sockets.c ****       LWIP_DEBUGF(SOCKETS_DEBUG, ("lwip_recvfrom[UDP/RAW](%d): buf == NULL, error is \"%s\"!\n",
1235:Middlewares/Third_Party/LwIP/src/api/sockets.c ****                                   s, lwip_strerr(err)));
1236:Middlewares/Third_Party/LwIP/src/api/sockets.c ****       sock_set_errno(sock, err_to_errno(err));
1237:Middlewares/Third_Party/LwIP/src/api/sockets.c ****       done_socket(sock);
1238:Middlewares/Third_Party/LwIP/src/api/sockets.c ****       return -1;
1239:Middlewares/Third_Party/LwIP/src/api/sockets.c ****     }
1240:Middlewares/Third_Party/LwIP/src/api/sockets.c ****     ret = (ssize_t)LWIP_MIN(LWIP_MIN(len, datagram_len), SSIZE_MAX);
1241:Middlewares/Third_Party/LwIP/src/api/sockets.c ****     if (fromlen) {
1242:Middlewares/Third_Party/LwIP/src/api/sockets.c ****       *fromlen = msg.msg_namelen;
1243:Middlewares/Third_Party/LwIP/src/api/sockets.c ****     }
1244:Middlewares/Third_Party/LwIP/src/api/sockets.c ****   }
1245:Middlewares/Third_Party/LwIP/src/api/sockets.c **** 
1246:Middlewares/Third_Party/LwIP/src/api/sockets.c ****   sock_set_errno(sock, 0);
1247:Middlewares/Third_Party/LwIP/src/api/sockets.c ****   done_socket(sock);
1248:Middlewares/Third_Party/LwIP/src/api/sockets.c ****   return ret;
1249:Middlewares/Third_Party/LwIP/src/api/sockets.c **** }
1250:Middlewares/Third_Party/LwIP/src/api/sockets.c **** 
1251:Middlewares/Third_Party/LwIP/src/api/sockets.c **** ssize_t
1252:Middlewares/Third_Party/LwIP/src/api/sockets.c **** lwip_read(int s, void *mem, size_t len)
1253:Middlewares/Third_Party/LwIP/src/api/sockets.c **** {
1254:Middlewares/Third_Party/LwIP/src/api/sockets.c ****   return lwip_recvfrom(s, mem, len, 0, NULL, NULL);
1255:Middlewares/Third_Party/LwIP/src/api/sockets.c **** }
1256:Middlewares/Third_Party/LwIP/src/api/sockets.c **** 
1257:Middlewares/Third_Party/LwIP/src/api/sockets.c **** ssize_t
1258:Middlewares/Third_Party/LwIP/src/api/sockets.c **** lwip_readv(int s, const struct iovec *iov, int iovcnt)
1259:Middlewares/Third_Party/LwIP/src/api/sockets.c **** {
1260:Middlewares/Third_Party/LwIP/src/api/sockets.c ****   struct msghdr msg;
1261:Middlewares/Third_Party/LwIP/src/api/sockets.c **** 
1262:Middlewares/Third_Party/LwIP/src/api/sockets.c ****   msg.msg_name = NULL;
1263:Middlewares/Third_Party/LwIP/src/api/sockets.c ****   msg.msg_namelen = 0;
1264:Middlewares/Third_Party/LwIP/src/api/sockets.c ****   /* Hack: we have to cast via number to cast from 'const' pointer to non-const.
1265:Middlewares/Third_Party/LwIP/src/api/sockets.c ****      Blame the opengroup standard for this inconsistency. */
1266:Middlewares/Third_Party/LwIP/src/api/sockets.c ****   msg.msg_iov = LWIP_CONST_CAST(struct iovec *, iov);
1267:Middlewares/Third_Party/LwIP/src/api/sockets.c ****   msg.msg_iovlen = iovcnt;
1268:Middlewares/Third_Party/LwIP/src/api/sockets.c ****   msg.msg_control = NULL;
1269:Middlewares/Third_Party/LwIP/src/api/sockets.c ****   msg.msg_controllen = 0;
ARM GAS  /tmp/cc3tDhb2.s 			page 28


1270:Middlewares/Third_Party/LwIP/src/api/sockets.c ****   msg.msg_flags = 0;
1271:Middlewares/Third_Party/LwIP/src/api/sockets.c ****   return lwip_recvmsg(s, &msg, 0);
1272:Middlewares/Third_Party/LwIP/src/api/sockets.c **** }
1273:Middlewares/Third_Party/LwIP/src/api/sockets.c **** 
1274:Middlewares/Third_Party/LwIP/src/api/sockets.c **** ssize_t
1275:Middlewares/Third_Party/LwIP/src/api/sockets.c **** lwip_recv(int s, void *mem, size_t len, int flags)
1276:Middlewares/Third_Party/LwIP/src/api/sockets.c **** {
1277:Middlewares/Third_Party/LwIP/src/api/sockets.c ****   return lwip_recvfrom(s, mem, len, flags, NULL, NULL);
1278:Middlewares/Third_Party/LwIP/src/api/sockets.c **** }
1279:Middlewares/Third_Party/LwIP/src/api/sockets.c **** 
1280:Middlewares/Third_Party/LwIP/src/api/sockets.c **** ssize_t
1281:Middlewares/Third_Party/LwIP/src/api/sockets.c **** lwip_recvmsg(int s, struct msghdr *message, int flags)
1282:Middlewares/Third_Party/LwIP/src/api/sockets.c **** {
1283:Middlewares/Third_Party/LwIP/src/api/sockets.c ****   struct lwip_sock *sock;
1284:Middlewares/Third_Party/LwIP/src/api/sockets.c ****   int i;
1285:Middlewares/Third_Party/LwIP/src/api/sockets.c ****   ssize_t buflen;
1286:Middlewares/Third_Party/LwIP/src/api/sockets.c **** 
1287:Middlewares/Third_Party/LwIP/src/api/sockets.c ****   LWIP_DEBUGF(SOCKETS_DEBUG, ("lwip_recvmsg(%d, message=%p, flags=0x%x)\n", s, (void *)message, fla
1288:Middlewares/Third_Party/LwIP/src/api/sockets.c ****   LWIP_ERROR("lwip_recvmsg: invalid message pointer", message != NULL, return ERR_ARG;);
1289:Middlewares/Third_Party/LwIP/src/api/sockets.c ****   LWIP_ERROR("lwip_recvmsg: unsupported flags", (flags & ~(MSG_PEEK|MSG_DONTWAIT)) == 0,
1290:Middlewares/Third_Party/LwIP/src/api/sockets.c ****              set_errno(EOPNOTSUPP); return -1;);
1291:Middlewares/Third_Party/LwIP/src/api/sockets.c **** 
1292:Middlewares/Third_Party/LwIP/src/api/sockets.c ****   if ((message->msg_iovlen <= 0) || (message->msg_iovlen > IOV_MAX)) {
1293:Middlewares/Third_Party/LwIP/src/api/sockets.c ****     set_errno(EMSGSIZE);
1294:Middlewares/Third_Party/LwIP/src/api/sockets.c ****     return -1;
1295:Middlewares/Third_Party/LwIP/src/api/sockets.c ****   }
1296:Middlewares/Third_Party/LwIP/src/api/sockets.c **** 
1297:Middlewares/Third_Party/LwIP/src/api/sockets.c ****   sock = get_socket(s);
1298:Middlewares/Third_Party/LwIP/src/api/sockets.c ****   if (!sock) {
1299:Middlewares/Third_Party/LwIP/src/api/sockets.c ****     return -1;
1300:Middlewares/Third_Party/LwIP/src/api/sockets.c ****   }
1301:Middlewares/Third_Party/LwIP/src/api/sockets.c **** 
1302:Middlewares/Third_Party/LwIP/src/api/sockets.c ****   /* check for valid vectors */
1303:Middlewares/Third_Party/LwIP/src/api/sockets.c ****   buflen = 0;
1304:Middlewares/Third_Party/LwIP/src/api/sockets.c ****   for (i = 0; i < message->msg_iovlen; i++) {
1305:Middlewares/Third_Party/LwIP/src/api/sockets.c ****     if ((message->msg_iov[i].iov_base == NULL) || ((ssize_t)message->msg_iov[i].iov_len <= 0) ||
1306:Middlewares/Third_Party/LwIP/src/api/sockets.c ****         ((size_t)(ssize_t)message->msg_iov[i].iov_len != message->msg_iov[i].iov_len) ||
1307:Middlewares/Third_Party/LwIP/src/api/sockets.c ****         ((ssize_t)(buflen + (ssize_t)message->msg_iov[i].iov_len) <= 0)) {
1308:Middlewares/Third_Party/LwIP/src/api/sockets.c ****       sock_set_errno(sock, err_to_errno(ERR_VAL));
1309:Middlewares/Third_Party/LwIP/src/api/sockets.c ****       done_socket(sock);
1310:Middlewares/Third_Party/LwIP/src/api/sockets.c ****       return -1;
1311:Middlewares/Third_Party/LwIP/src/api/sockets.c ****     }
1312:Middlewares/Third_Party/LwIP/src/api/sockets.c ****     buflen = (ssize_t)(buflen + (ssize_t)message->msg_iov[i].iov_len);
1313:Middlewares/Third_Party/LwIP/src/api/sockets.c ****   }
1314:Middlewares/Third_Party/LwIP/src/api/sockets.c **** 
1315:Middlewares/Third_Party/LwIP/src/api/sockets.c ****   if (NETCONNTYPE_GROUP(netconn_type(sock->conn)) == NETCONN_TCP) {
1316:Middlewares/Third_Party/LwIP/src/api/sockets.c **** #if LWIP_TCP
1317:Middlewares/Third_Party/LwIP/src/api/sockets.c ****     int recv_flags = flags;
1318:Middlewares/Third_Party/LwIP/src/api/sockets.c ****     message->msg_flags = 0;
1319:Middlewares/Third_Party/LwIP/src/api/sockets.c ****     /* recv the data */
1320:Middlewares/Third_Party/LwIP/src/api/sockets.c ****     buflen = 0;
1321:Middlewares/Third_Party/LwIP/src/api/sockets.c ****     for (i = 0; i < message->msg_iovlen; i++) {
1322:Middlewares/Third_Party/LwIP/src/api/sockets.c ****       /* try to receive into this vector's buffer */
1323:Middlewares/Third_Party/LwIP/src/api/sockets.c ****       ssize_t recvd_local = lwip_recv_tcp(sock, message->msg_iov[i].iov_base, message->msg_iov[i].i
1324:Middlewares/Third_Party/LwIP/src/api/sockets.c ****       if (recvd_local > 0) {
1325:Middlewares/Third_Party/LwIP/src/api/sockets.c ****         /* sum up received bytes */
1326:Middlewares/Third_Party/LwIP/src/api/sockets.c ****         buflen += recvd_local;
ARM GAS  /tmp/cc3tDhb2.s 			page 29


1327:Middlewares/Third_Party/LwIP/src/api/sockets.c ****       }
1328:Middlewares/Third_Party/LwIP/src/api/sockets.c ****       if ((recvd_local < 0) || (recvd_local < (int)message->msg_iov[i].iov_len) ||
1329:Middlewares/Third_Party/LwIP/src/api/sockets.c ****           (flags & MSG_PEEK)) {
1330:Middlewares/Third_Party/LwIP/src/api/sockets.c ****         /* returned prematurely (or peeking, which might actually be limitated to the first iov) */
1331:Middlewares/Third_Party/LwIP/src/api/sockets.c ****         if (buflen <= 0) {
1332:Middlewares/Third_Party/LwIP/src/api/sockets.c ****           /* nothing received at all, propagate the error */
1333:Middlewares/Third_Party/LwIP/src/api/sockets.c ****           buflen = recvd_local;
1334:Middlewares/Third_Party/LwIP/src/api/sockets.c ****         }
1335:Middlewares/Third_Party/LwIP/src/api/sockets.c ****         break;
1336:Middlewares/Third_Party/LwIP/src/api/sockets.c ****       }
1337:Middlewares/Third_Party/LwIP/src/api/sockets.c ****       /* pass MSG_DONTWAIT to lwip_recv_tcp() to prevent waiting for more data */
1338:Middlewares/Third_Party/LwIP/src/api/sockets.c ****       recv_flags |= MSG_DONTWAIT;
1339:Middlewares/Third_Party/LwIP/src/api/sockets.c ****     }
1340:Middlewares/Third_Party/LwIP/src/api/sockets.c ****     if (buflen > 0) {
1341:Middlewares/Third_Party/LwIP/src/api/sockets.c ****       /* reset socket error since we have received something */
1342:Middlewares/Third_Party/LwIP/src/api/sockets.c ****       sock_set_errno(sock, 0);
1343:Middlewares/Third_Party/LwIP/src/api/sockets.c ****     }
1344:Middlewares/Third_Party/LwIP/src/api/sockets.c ****     /* " If the socket is connected, the msg_name and msg_namelen members shall be ignored." */
1345:Middlewares/Third_Party/LwIP/src/api/sockets.c ****     done_socket(sock);
1346:Middlewares/Third_Party/LwIP/src/api/sockets.c ****     return buflen;
1347:Middlewares/Third_Party/LwIP/src/api/sockets.c **** #else /* LWIP_TCP */
1348:Middlewares/Third_Party/LwIP/src/api/sockets.c ****     sock_set_errno(sock, err_to_errno(ERR_ARG));
1349:Middlewares/Third_Party/LwIP/src/api/sockets.c ****     done_socket(sock);
1350:Middlewares/Third_Party/LwIP/src/api/sockets.c ****     return -1;
1351:Middlewares/Third_Party/LwIP/src/api/sockets.c **** #endif /* LWIP_TCP */
1352:Middlewares/Third_Party/LwIP/src/api/sockets.c ****   }
1353:Middlewares/Third_Party/LwIP/src/api/sockets.c ****   /* else, UDP and RAW NETCONNs */
1354:Middlewares/Third_Party/LwIP/src/api/sockets.c **** #if LWIP_UDP || LWIP_RAW
1355:Middlewares/Third_Party/LwIP/src/api/sockets.c ****   {
1356:Middlewares/Third_Party/LwIP/src/api/sockets.c ****     u16_t datagram_len = 0;
1357:Middlewares/Third_Party/LwIP/src/api/sockets.c ****     err_t err;
1358:Middlewares/Third_Party/LwIP/src/api/sockets.c ****     err = lwip_recvfrom_udp_raw(sock, flags, message, &datagram_len, s);
1359:Middlewares/Third_Party/LwIP/src/api/sockets.c ****     if (err != ERR_OK) {
1360:Middlewares/Third_Party/LwIP/src/api/sockets.c ****       LWIP_DEBUGF(SOCKETS_DEBUG, ("lwip_recvmsg[UDP/RAW](%d): buf == NULL, error is \"%s\"!\n",
1361:Middlewares/Third_Party/LwIP/src/api/sockets.c ****                                   s, lwip_strerr(err)));
1362:Middlewares/Third_Party/LwIP/src/api/sockets.c ****       sock_set_errno(sock, err_to_errno(err));
1363:Middlewares/Third_Party/LwIP/src/api/sockets.c ****       done_socket(sock);
1364:Middlewares/Third_Party/LwIP/src/api/sockets.c ****       return -1;
1365:Middlewares/Third_Party/LwIP/src/api/sockets.c ****     }
1366:Middlewares/Third_Party/LwIP/src/api/sockets.c ****     if (datagram_len > buflen) {
1367:Middlewares/Third_Party/LwIP/src/api/sockets.c ****       message->msg_flags |= MSG_TRUNC;
1368:Middlewares/Third_Party/LwIP/src/api/sockets.c ****     }
1369:Middlewares/Third_Party/LwIP/src/api/sockets.c **** 
1370:Middlewares/Third_Party/LwIP/src/api/sockets.c ****     sock_set_errno(sock, 0);
1371:Middlewares/Third_Party/LwIP/src/api/sockets.c ****     done_socket(sock);
1372:Middlewares/Third_Party/LwIP/src/api/sockets.c ****     return (int)datagram_len;
1373:Middlewares/Third_Party/LwIP/src/api/sockets.c ****   }
1374:Middlewares/Third_Party/LwIP/src/api/sockets.c **** #else /* LWIP_UDP || LWIP_RAW */
1375:Middlewares/Third_Party/LwIP/src/api/sockets.c ****   sock_set_errno(sock, err_to_errno(ERR_ARG));
1376:Middlewares/Third_Party/LwIP/src/api/sockets.c ****   done_socket(sock);
1377:Middlewares/Third_Party/LwIP/src/api/sockets.c ****   return -1;
1378:Middlewares/Third_Party/LwIP/src/api/sockets.c **** #endif /* LWIP_UDP || LWIP_RAW */
1379:Middlewares/Third_Party/LwIP/src/api/sockets.c **** }
1380:Middlewares/Third_Party/LwIP/src/api/sockets.c **** 
1381:Middlewares/Third_Party/LwIP/src/api/sockets.c **** ssize_t
1382:Middlewares/Third_Party/LwIP/src/api/sockets.c **** lwip_send(int s, const void *data, size_t size, int flags)
1383:Middlewares/Third_Party/LwIP/src/api/sockets.c **** {
ARM GAS  /tmp/cc3tDhb2.s 			page 30


1384:Middlewares/Third_Party/LwIP/src/api/sockets.c ****   struct lwip_sock *sock;
1385:Middlewares/Third_Party/LwIP/src/api/sockets.c ****   err_t err;
1386:Middlewares/Third_Party/LwIP/src/api/sockets.c ****   u8_t write_flags;
1387:Middlewares/Third_Party/LwIP/src/api/sockets.c ****   size_t written;
1388:Middlewares/Third_Party/LwIP/src/api/sockets.c **** 
1389:Middlewares/Third_Party/LwIP/src/api/sockets.c ****   LWIP_DEBUGF(SOCKETS_DEBUG, ("lwip_send(%d, data=%p, size=%"SZT_F", flags=0x%x)\n",
1390:Middlewares/Third_Party/LwIP/src/api/sockets.c ****                               s, data, size, flags));
1391:Middlewares/Third_Party/LwIP/src/api/sockets.c **** 
1392:Middlewares/Third_Party/LwIP/src/api/sockets.c ****   sock = get_socket(s);
1393:Middlewares/Third_Party/LwIP/src/api/sockets.c ****   if (!sock) {
1394:Middlewares/Third_Party/LwIP/src/api/sockets.c ****     return -1;
1395:Middlewares/Third_Party/LwIP/src/api/sockets.c ****   }
1396:Middlewares/Third_Party/LwIP/src/api/sockets.c **** 
1397:Middlewares/Third_Party/LwIP/src/api/sockets.c ****   if (NETCONNTYPE_GROUP(netconn_type(sock->conn)) != NETCONN_TCP) {
1398:Middlewares/Third_Party/LwIP/src/api/sockets.c **** #if (LWIP_UDP || LWIP_RAW)
1399:Middlewares/Third_Party/LwIP/src/api/sockets.c ****     done_socket(sock);
1400:Middlewares/Third_Party/LwIP/src/api/sockets.c ****     return lwip_sendto(s, data, size, flags, NULL, 0);
1401:Middlewares/Third_Party/LwIP/src/api/sockets.c **** #else /* (LWIP_UDP || LWIP_RAW) */
1402:Middlewares/Third_Party/LwIP/src/api/sockets.c ****     sock_set_errno(sock, err_to_errno(ERR_ARG));
1403:Middlewares/Third_Party/LwIP/src/api/sockets.c ****     done_socket(sock);
1404:Middlewares/Third_Party/LwIP/src/api/sockets.c ****     return -1;
1405:Middlewares/Third_Party/LwIP/src/api/sockets.c **** #endif /* (LWIP_UDP || LWIP_RAW) */
1406:Middlewares/Third_Party/LwIP/src/api/sockets.c ****   }
1407:Middlewares/Third_Party/LwIP/src/api/sockets.c **** 
1408:Middlewares/Third_Party/LwIP/src/api/sockets.c ****   write_flags = (u8_t)(NETCONN_COPY |
1409:Middlewares/Third_Party/LwIP/src/api/sockets.c ****                        ((flags & MSG_MORE)     ? NETCONN_MORE      : 0) |
1410:Middlewares/Third_Party/LwIP/src/api/sockets.c ****                        ((flags & MSG_DONTWAIT) ? NETCONN_DONTBLOCK : 0));
1411:Middlewares/Third_Party/LwIP/src/api/sockets.c ****   written = 0;
1412:Middlewares/Third_Party/LwIP/src/api/sockets.c ****   err = netconn_write_partly(sock->conn, data, size, write_flags, &written);
1413:Middlewares/Third_Party/LwIP/src/api/sockets.c **** 
1414:Middlewares/Third_Party/LwIP/src/api/sockets.c ****   LWIP_DEBUGF(SOCKETS_DEBUG, ("lwip_send(%d) err=%d written=%"SZT_F"\n", s, err, written));
1415:Middlewares/Third_Party/LwIP/src/api/sockets.c ****   sock_set_errno(sock, err_to_errno(err));
1416:Middlewares/Third_Party/LwIP/src/api/sockets.c ****   done_socket(sock);
1417:Middlewares/Third_Party/LwIP/src/api/sockets.c ****   /* casting 'written' to ssize_t is OK here since the netconn API limits it to SSIZE_MAX */
1418:Middlewares/Third_Party/LwIP/src/api/sockets.c ****   return (err == ERR_OK ? (ssize_t)written : -1);
1419:Middlewares/Third_Party/LwIP/src/api/sockets.c **** }
1420:Middlewares/Third_Party/LwIP/src/api/sockets.c **** 
1421:Middlewares/Third_Party/LwIP/src/api/sockets.c **** ssize_t
1422:Middlewares/Third_Party/LwIP/src/api/sockets.c **** lwip_sendmsg(int s, const struct msghdr *msg, int flags)
1423:Middlewares/Third_Party/LwIP/src/api/sockets.c **** {
1424:Middlewares/Third_Party/LwIP/src/api/sockets.c ****   struct lwip_sock *sock;
1425:Middlewares/Third_Party/LwIP/src/api/sockets.c **** #if LWIP_TCP
1426:Middlewares/Third_Party/LwIP/src/api/sockets.c ****   u8_t write_flags;
1427:Middlewares/Third_Party/LwIP/src/api/sockets.c ****   size_t written;
1428:Middlewares/Third_Party/LwIP/src/api/sockets.c **** #endif
1429:Middlewares/Third_Party/LwIP/src/api/sockets.c ****   err_t err = ERR_OK;
1430:Middlewares/Third_Party/LwIP/src/api/sockets.c **** 
1431:Middlewares/Third_Party/LwIP/src/api/sockets.c ****   sock = get_socket(s);
1432:Middlewares/Third_Party/LwIP/src/api/sockets.c ****   if (!sock) {
1433:Middlewares/Third_Party/LwIP/src/api/sockets.c ****     return -1;
1434:Middlewares/Third_Party/LwIP/src/api/sockets.c ****   }
1435:Middlewares/Third_Party/LwIP/src/api/sockets.c **** 
1436:Middlewares/Third_Party/LwIP/src/api/sockets.c ****   LWIP_ERROR("lwip_sendmsg: invalid msghdr", msg != NULL,
1437:Middlewares/Third_Party/LwIP/src/api/sockets.c ****              sock_set_errno(sock, err_to_errno(ERR_ARG)); done_socket(sock); return -1;);
1438:Middlewares/Third_Party/LwIP/src/api/sockets.c ****   LWIP_ERROR("lwip_sendmsg: invalid msghdr iov", msg->msg_iov != NULL,
1439:Middlewares/Third_Party/LwIP/src/api/sockets.c ****              sock_set_errno(sock, err_to_errno(ERR_ARG)); done_socket(sock); return -1;);
1440:Middlewares/Third_Party/LwIP/src/api/sockets.c ****   LWIP_ERROR("lwip_sendmsg: maximum iovs exceeded", (msg->msg_iovlen > 0) && (msg->msg_iovlen <= IO
ARM GAS  /tmp/cc3tDhb2.s 			page 31


1441:Middlewares/Third_Party/LwIP/src/api/sockets.c ****              sock_set_errno(sock, EMSGSIZE); done_socket(sock); return -1;);
1442:Middlewares/Third_Party/LwIP/src/api/sockets.c ****   LWIP_ERROR("lwip_sendmsg: unsupported flags", (flags & ~(MSG_DONTWAIT | MSG_MORE)) == 0,
1443:Middlewares/Third_Party/LwIP/src/api/sockets.c ****              sock_set_errno(sock, EOPNOTSUPP); done_socket(sock); return -1;);
1444:Middlewares/Third_Party/LwIP/src/api/sockets.c **** 
1445:Middlewares/Third_Party/LwIP/src/api/sockets.c ****   LWIP_UNUSED_ARG(msg->msg_control);
1446:Middlewares/Third_Party/LwIP/src/api/sockets.c ****   LWIP_UNUSED_ARG(msg->msg_controllen);
1447:Middlewares/Third_Party/LwIP/src/api/sockets.c ****   LWIP_UNUSED_ARG(msg->msg_flags);
1448:Middlewares/Third_Party/LwIP/src/api/sockets.c **** 
1449:Middlewares/Third_Party/LwIP/src/api/sockets.c ****   if (NETCONNTYPE_GROUP(netconn_type(sock->conn)) == NETCONN_TCP) {
1450:Middlewares/Third_Party/LwIP/src/api/sockets.c **** #if LWIP_TCP
1451:Middlewares/Third_Party/LwIP/src/api/sockets.c ****     write_flags = (u8_t)(NETCONN_COPY |
1452:Middlewares/Third_Party/LwIP/src/api/sockets.c ****                          ((flags & MSG_MORE)     ? NETCONN_MORE      : 0) |
1453:Middlewares/Third_Party/LwIP/src/api/sockets.c ****                          ((flags & MSG_DONTWAIT) ? NETCONN_DONTBLOCK : 0));
1454:Middlewares/Third_Party/LwIP/src/api/sockets.c **** 
1455:Middlewares/Third_Party/LwIP/src/api/sockets.c ****     written = 0;
1456:Middlewares/Third_Party/LwIP/src/api/sockets.c ****     err = netconn_write_vectors_partly(sock->conn, (struct netvector *)msg->msg_iov, (u16_t)msg->ms
1457:Middlewares/Third_Party/LwIP/src/api/sockets.c ****     sock_set_errno(sock, err_to_errno(err));
1458:Middlewares/Third_Party/LwIP/src/api/sockets.c ****     done_socket(sock);
1459:Middlewares/Third_Party/LwIP/src/api/sockets.c ****     /* casting 'written' to ssize_t is OK here since the netconn API limits it to SSIZE_MAX */
1460:Middlewares/Third_Party/LwIP/src/api/sockets.c ****     return (err == ERR_OK ? (ssize_t)written : -1);
1461:Middlewares/Third_Party/LwIP/src/api/sockets.c **** #else /* LWIP_TCP */
1462:Middlewares/Third_Party/LwIP/src/api/sockets.c ****     sock_set_errno(sock, err_to_errno(ERR_ARG));
1463:Middlewares/Third_Party/LwIP/src/api/sockets.c ****     done_socket(sock);
1464:Middlewares/Third_Party/LwIP/src/api/sockets.c ****     return -1;
1465:Middlewares/Third_Party/LwIP/src/api/sockets.c **** #endif /* LWIP_TCP */
1466:Middlewares/Third_Party/LwIP/src/api/sockets.c ****   }
1467:Middlewares/Third_Party/LwIP/src/api/sockets.c ****   /* else, UDP and RAW NETCONNs */
1468:Middlewares/Third_Party/LwIP/src/api/sockets.c **** #if LWIP_UDP || LWIP_RAW
1469:Middlewares/Third_Party/LwIP/src/api/sockets.c ****   {
1470:Middlewares/Third_Party/LwIP/src/api/sockets.c ****     struct netbuf chain_buf;
1471:Middlewares/Third_Party/LwIP/src/api/sockets.c ****     int i;
1472:Middlewares/Third_Party/LwIP/src/api/sockets.c ****     ssize_t size = 0;
1473:Middlewares/Third_Party/LwIP/src/api/sockets.c **** 
1474:Middlewares/Third_Party/LwIP/src/api/sockets.c ****     LWIP_UNUSED_ARG(flags);
1475:Middlewares/Third_Party/LwIP/src/api/sockets.c ****     LWIP_ERROR("lwip_sendmsg: invalid msghdr name", (((msg->msg_name == NULL) && (msg->msg_namelen 
1476:Middlewares/Third_Party/LwIP/src/api/sockets.c ****                IS_SOCK_ADDR_LEN_VALID(msg->msg_namelen)),
1477:Middlewares/Third_Party/LwIP/src/api/sockets.c ****                sock_set_errno(sock, err_to_errno(ERR_ARG)); done_socket(sock); return -1;);
1478:Middlewares/Third_Party/LwIP/src/api/sockets.c **** 
1479:Middlewares/Third_Party/LwIP/src/api/sockets.c ****     /* initialize chain buffer with destination */
1480:Middlewares/Third_Party/LwIP/src/api/sockets.c ****     memset(&chain_buf, 0, sizeof(struct netbuf));
1481:Middlewares/Third_Party/LwIP/src/api/sockets.c ****     if (msg->msg_name) {
1482:Middlewares/Third_Party/LwIP/src/api/sockets.c ****       u16_t remote_port;
1483:Middlewares/Third_Party/LwIP/src/api/sockets.c ****       SOCKADDR_TO_IPADDR_PORT((const struct sockaddr *)msg->msg_name, &chain_buf.addr, remote_port)
1484:Middlewares/Third_Party/LwIP/src/api/sockets.c ****       netbuf_fromport(&chain_buf) = remote_port;
1485:Middlewares/Third_Party/LwIP/src/api/sockets.c ****     }
1486:Middlewares/Third_Party/LwIP/src/api/sockets.c **** #if LWIP_NETIF_TX_SINGLE_PBUF
1487:Middlewares/Third_Party/LwIP/src/api/sockets.c ****     for (i = 0; i < msg->msg_iovlen; i++) {
1488:Middlewares/Third_Party/LwIP/src/api/sockets.c ****       size += msg->msg_iov[i].iov_len;
1489:Middlewares/Third_Party/LwIP/src/api/sockets.c ****       if ((msg->msg_iov[i].iov_len > INT_MAX) || (size < (int)msg->msg_iov[i].iov_len)) {
1490:Middlewares/Third_Party/LwIP/src/api/sockets.c ****         /* overflow */
1491:Middlewares/Third_Party/LwIP/src/api/sockets.c ****         goto sendmsg_emsgsize;
1492:Middlewares/Third_Party/LwIP/src/api/sockets.c ****       }
1493:Middlewares/Third_Party/LwIP/src/api/sockets.c ****     }
1494:Middlewares/Third_Party/LwIP/src/api/sockets.c ****     if (size > 0xFFFF) {
1495:Middlewares/Third_Party/LwIP/src/api/sockets.c ****       /* overflow */
1496:Middlewares/Third_Party/LwIP/src/api/sockets.c ****       goto sendmsg_emsgsize;
1497:Middlewares/Third_Party/LwIP/src/api/sockets.c ****     }
ARM GAS  /tmp/cc3tDhb2.s 			page 32


1498:Middlewares/Third_Party/LwIP/src/api/sockets.c ****     /* Allocate a new netbuf and copy the data into it. */
1499:Middlewares/Third_Party/LwIP/src/api/sockets.c ****     if (netbuf_alloc(&chain_buf, (u16_t)size) == NULL) {
1500:Middlewares/Third_Party/LwIP/src/api/sockets.c ****       err = ERR_MEM;
1501:Middlewares/Third_Party/LwIP/src/api/sockets.c ****     } else {
1502:Middlewares/Third_Party/LwIP/src/api/sockets.c ****       /* flatten the IO vectors */
1503:Middlewares/Third_Party/LwIP/src/api/sockets.c ****       size_t offset = 0;
1504:Middlewares/Third_Party/LwIP/src/api/sockets.c ****       for (i = 0; i < msg->msg_iovlen; i++) {
1505:Middlewares/Third_Party/LwIP/src/api/sockets.c ****         MEMCPY(&((u8_t *)chain_buf.p->payload)[offset], msg->msg_iov[i].iov_base, msg->msg_iov[i].i
1506:Middlewares/Third_Party/LwIP/src/api/sockets.c ****         offset += msg->msg_iov[i].iov_len;
1507:Middlewares/Third_Party/LwIP/src/api/sockets.c ****       }
1508:Middlewares/Third_Party/LwIP/src/api/sockets.c **** #if LWIP_CHECKSUM_ON_COPY
1509:Middlewares/Third_Party/LwIP/src/api/sockets.c ****       {
1510:Middlewares/Third_Party/LwIP/src/api/sockets.c ****         /* This can be improved by using LWIP_CHKSUM_COPY() and aggregating the checksum for each I
1511:Middlewares/Third_Party/LwIP/src/api/sockets.c ****         u16_t chksum = ~inet_chksum_pbuf(chain_buf.p);
1512:Middlewares/Third_Party/LwIP/src/api/sockets.c ****         netbuf_set_chksum(&chain_buf, chksum);
1513:Middlewares/Third_Party/LwIP/src/api/sockets.c ****       }
1514:Middlewares/Third_Party/LwIP/src/api/sockets.c **** #endif /* LWIP_CHECKSUM_ON_COPY */
1515:Middlewares/Third_Party/LwIP/src/api/sockets.c ****       err = ERR_OK;
1516:Middlewares/Third_Party/LwIP/src/api/sockets.c ****     }
1517:Middlewares/Third_Party/LwIP/src/api/sockets.c **** #else /* LWIP_NETIF_TX_SINGLE_PBUF */
1518:Middlewares/Third_Party/LwIP/src/api/sockets.c ****     /* create a chained netbuf from the IO vectors. NOTE: we assemble a pbuf chain
1519:Middlewares/Third_Party/LwIP/src/api/sockets.c ****        manually to avoid having to allocate, chain, and delete a netbuf for each iov */
1520:Middlewares/Third_Party/LwIP/src/api/sockets.c ****     for (i = 0; i < msg->msg_iovlen; i++) {
1521:Middlewares/Third_Party/LwIP/src/api/sockets.c ****       struct pbuf *p;
1522:Middlewares/Third_Party/LwIP/src/api/sockets.c ****       if (msg->msg_iov[i].iov_len > 0xFFFF) {
1523:Middlewares/Third_Party/LwIP/src/api/sockets.c ****         /* overflow */
1524:Middlewares/Third_Party/LwIP/src/api/sockets.c ****         goto sendmsg_emsgsize;
1525:Middlewares/Third_Party/LwIP/src/api/sockets.c ****       }
1526:Middlewares/Third_Party/LwIP/src/api/sockets.c ****       p = pbuf_alloc(PBUF_TRANSPORT, 0, PBUF_REF);
1527:Middlewares/Third_Party/LwIP/src/api/sockets.c ****       if (p == NULL) {
1528:Middlewares/Third_Party/LwIP/src/api/sockets.c ****         err = ERR_MEM; /* let netbuf_delete() cleanup chain_buf */
1529:Middlewares/Third_Party/LwIP/src/api/sockets.c ****         break;
1530:Middlewares/Third_Party/LwIP/src/api/sockets.c ****       }
1531:Middlewares/Third_Party/LwIP/src/api/sockets.c ****       p->payload = msg->msg_iov[i].iov_base;
1532:Middlewares/Third_Party/LwIP/src/api/sockets.c ****       p->len = p->tot_len = (u16_t)msg->msg_iov[i].iov_len;
1533:Middlewares/Third_Party/LwIP/src/api/sockets.c ****       /* netbuf empty, add new pbuf */
1534:Middlewares/Third_Party/LwIP/src/api/sockets.c ****       if (chain_buf.p == NULL) {
1535:Middlewares/Third_Party/LwIP/src/api/sockets.c ****         chain_buf.p = chain_buf.ptr = p;
1536:Middlewares/Third_Party/LwIP/src/api/sockets.c ****         /* add pbuf to existing pbuf chain */
1537:Middlewares/Third_Party/LwIP/src/api/sockets.c ****       } else {
1538:Middlewares/Third_Party/LwIP/src/api/sockets.c ****         if (chain_buf.p->tot_len + p->len > 0xffff) {
1539:Middlewares/Third_Party/LwIP/src/api/sockets.c ****           /* overflow */
1540:Middlewares/Third_Party/LwIP/src/api/sockets.c ****           pbuf_free(p);
1541:Middlewares/Third_Party/LwIP/src/api/sockets.c ****           goto sendmsg_emsgsize;
1542:Middlewares/Third_Party/LwIP/src/api/sockets.c ****         }
1543:Middlewares/Third_Party/LwIP/src/api/sockets.c ****         pbuf_cat(chain_buf.p, p);
1544:Middlewares/Third_Party/LwIP/src/api/sockets.c ****       }
1545:Middlewares/Third_Party/LwIP/src/api/sockets.c ****     }
1546:Middlewares/Third_Party/LwIP/src/api/sockets.c ****     /* save size of total chain */
1547:Middlewares/Third_Party/LwIP/src/api/sockets.c ****     if (err == ERR_OK) {
1548:Middlewares/Third_Party/LwIP/src/api/sockets.c ****       size = netbuf_len(&chain_buf);
1549:Middlewares/Third_Party/LwIP/src/api/sockets.c ****     }
1550:Middlewares/Third_Party/LwIP/src/api/sockets.c **** #endif /* LWIP_NETIF_TX_SINGLE_PBUF */
1551:Middlewares/Third_Party/LwIP/src/api/sockets.c **** 
1552:Middlewares/Third_Party/LwIP/src/api/sockets.c ****     if (err == ERR_OK) {
1553:Middlewares/Third_Party/LwIP/src/api/sockets.c **** #if LWIP_IPV4 && LWIP_IPV6
1554:Middlewares/Third_Party/LwIP/src/api/sockets.c ****       /* Dual-stack: Unmap IPv4 mapped IPv6 addresses */
ARM GAS  /tmp/cc3tDhb2.s 			page 33


1555:Middlewares/Third_Party/LwIP/src/api/sockets.c ****       if (IP_IS_V6_VAL(chain_buf.addr) && ip6_addr_isipv4mappedipv6(ip_2_ip6(&chain_buf.addr))) {
1556:Middlewares/Third_Party/LwIP/src/api/sockets.c ****         unmap_ipv4_mapped_ipv6(ip_2_ip4(&chain_buf.addr), ip_2_ip6(&chain_buf.addr));
1557:Middlewares/Third_Party/LwIP/src/api/sockets.c ****         IP_SET_TYPE_VAL(chain_buf.addr, IPADDR_TYPE_V4);
1558:Middlewares/Third_Party/LwIP/src/api/sockets.c ****       }
1559:Middlewares/Third_Party/LwIP/src/api/sockets.c **** #endif /* LWIP_IPV4 && LWIP_IPV6 */
1560:Middlewares/Third_Party/LwIP/src/api/sockets.c **** 
1561:Middlewares/Third_Party/LwIP/src/api/sockets.c ****       /* send the data */
1562:Middlewares/Third_Party/LwIP/src/api/sockets.c ****       err = netconn_send(sock->conn, &chain_buf);
1563:Middlewares/Third_Party/LwIP/src/api/sockets.c ****     }
1564:Middlewares/Third_Party/LwIP/src/api/sockets.c **** 
1565:Middlewares/Third_Party/LwIP/src/api/sockets.c ****     /* deallocated the buffer */
1566:Middlewares/Third_Party/LwIP/src/api/sockets.c ****     netbuf_free(&chain_buf);
1567:Middlewares/Third_Party/LwIP/src/api/sockets.c **** 
1568:Middlewares/Third_Party/LwIP/src/api/sockets.c ****     sock_set_errno(sock, err_to_errno(err));
1569:Middlewares/Third_Party/LwIP/src/api/sockets.c ****     done_socket(sock);
1570:Middlewares/Third_Party/LwIP/src/api/sockets.c ****     return (err == ERR_OK ? size : -1);
1571:Middlewares/Third_Party/LwIP/src/api/sockets.c **** sendmsg_emsgsize:
1572:Middlewares/Third_Party/LwIP/src/api/sockets.c ****     sock_set_errno(sock, EMSGSIZE);
1573:Middlewares/Third_Party/LwIP/src/api/sockets.c ****     netbuf_free(&chain_buf);
1574:Middlewares/Third_Party/LwIP/src/api/sockets.c ****     done_socket(sock);
1575:Middlewares/Third_Party/LwIP/src/api/sockets.c ****     return -1;
1576:Middlewares/Third_Party/LwIP/src/api/sockets.c ****   }
1577:Middlewares/Third_Party/LwIP/src/api/sockets.c **** #else /* LWIP_UDP || LWIP_RAW */
1578:Middlewares/Third_Party/LwIP/src/api/sockets.c ****   sock_set_errno(sock, err_to_errno(ERR_ARG));
1579:Middlewares/Third_Party/LwIP/src/api/sockets.c ****   done_socket(sock);
1580:Middlewares/Third_Party/LwIP/src/api/sockets.c ****   return -1;
1581:Middlewares/Third_Party/LwIP/src/api/sockets.c **** #endif /* LWIP_UDP || LWIP_RAW */
1582:Middlewares/Third_Party/LwIP/src/api/sockets.c **** }
1583:Middlewares/Third_Party/LwIP/src/api/sockets.c **** 
1584:Middlewares/Third_Party/LwIP/src/api/sockets.c **** ssize_t
1585:Middlewares/Third_Party/LwIP/src/api/sockets.c **** lwip_sendto(int s, const void *data, size_t size, int flags,
1586:Middlewares/Third_Party/LwIP/src/api/sockets.c ****             const struct sockaddr *to, socklen_t tolen)
1587:Middlewares/Third_Party/LwIP/src/api/sockets.c **** {
1588:Middlewares/Third_Party/LwIP/src/api/sockets.c ****   struct lwip_sock *sock;
1589:Middlewares/Third_Party/LwIP/src/api/sockets.c ****   err_t err;
1590:Middlewares/Third_Party/LwIP/src/api/sockets.c ****   u16_t short_size;
1591:Middlewares/Third_Party/LwIP/src/api/sockets.c ****   u16_t remote_port;
1592:Middlewares/Third_Party/LwIP/src/api/sockets.c ****   struct netbuf buf;
1593:Middlewares/Third_Party/LwIP/src/api/sockets.c **** 
1594:Middlewares/Third_Party/LwIP/src/api/sockets.c ****   sock = get_socket(s);
1595:Middlewares/Third_Party/LwIP/src/api/sockets.c ****   if (!sock) {
1596:Middlewares/Third_Party/LwIP/src/api/sockets.c ****     return -1;
1597:Middlewares/Third_Party/LwIP/src/api/sockets.c ****   }
1598:Middlewares/Third_Party/LwIP/src/api/sockets.c **** 
1599:Middlewares/Third_Party/LwIP/src/api/sockets.c ****   if (NETCONNTYPE_GROUP(netconn_type(sock->conn)) == NETCONN_TCP) {
1600:Middlewares/Third_Party/LwIP/src/api/sockets.c **** #if LWIP_TCP
1601:Middlewares/Third_Party/LwIP/src/api/sockets.c ****     done_socket(sock);
1602:Middlewares/Third_Party/LwIP/src/api/sockets.c ****     return lwip_send(s, data, size, flags);
1603:Middlewares/Third_Party/LwIP/src/api/sockets.c **** #else /* LWIP_TCP */
1604:Middlewares/Third_Party/LwIP/src/api/sockets.c ****     LWIP_UNUSED_ARG(flags);
1605:Middlewares/Third_Party/LwIP/src/api/sockets.c ****     sock_set_errno(sock, err_to_errno(ERR_ARG));
1606:Middlewares/Third_Party/LwIP/src/api/sockets.c ****     done_socket(sock);
1607:Middlewares/Third_Party/LwIP/src/api/sockets.c ****     return -1;
1608:Middlewares/Third_Party/LwIP/src/api/sockets.c **** #endif /* LWIP_TCP */
1609:Middlewares/Third_Party/LwIP/src/api/sockets.c ****   }
1610:Middlewares/Third_Party/LwIP/src/api/sockets.c **** 
1611:Middlewares/Third_Party/LwIP/src/api/sockets.c ****   if (size > LWIP_MIN(0xFFFF, SSIZE_MAX)) {
ARM GAS  /tmp/cc3tDhb2.s 			page 34


1612:Middlewares/Third_Party/LwIP/src/api/sockets.c ****     /* cannot fit into one datagram (at least for us) */
1613:Middlewares/Third_Party/LwIP/src/api/sockets.c ****     sock_set_errno(sock, EMSGSIZE);
1614:Middlewares/Third_Party/LwIP/src/api/sockets.c ****     done_socket(sock);
1615:Middlewares/Third_Party/LwIP/src/api/sockets.c ****     return -1;
1616:Middlewares/Third_Party/LwIP/src/api/sockets.c ****   }
1617:Middlewares/Third_Party/LwIP/src/api/sockets.c ****   short_size = (u16_t)size;
1618:Middlewares/Third_Party/LwIP/src/api/sockets.c ****   LWIP_ERROR("lwip_sendto: invalid address", (((to == NULL) && (tolen == 0)) ||
1619:Middlewares/Third_Party/LwIP/src/api/sockets.c ****              (IS_SOCK_ADDR_LEN_VALID(tolen) &&
1620:Middlewares/Third_Party/LwIP/src/api/sockets.c ****               ((to != NULL) && (IS_SOCK_ADDR_TYPE_VALID(to) && IS_SOCK_ADDR_ALIGNED(to))))),
1621:Middlewares/Third_Party/LwIP/src/api/sockets.c ****              sock_set_errno(sock, err_to_errno(ERR_ARG)); done_socket(sock); return -1;);
1622:Middlewares/Third_Party/LwIP/src/api/sockets.c ****   LWIP_UNUSED_ARG(tolen);
1623:Middlewares/Third_Party/LwIP/src/api/sockets.c **** 
1624:Middlewares/Third_Party/LwIP/src/api/sockets.c ****   /* initialize a buffer */
1625:Middlewares/Third_Party/LwIP/src/api/sockets.c ****   buf.p = buf.ptr = NULL;
1626:Middlewares/Third_Party/LwIP/src/api/sockets.c **** #if LWIP_CHECKSUM_ON_COPY
1627:Middlewares/Third_Party/LwIP/src/api/sockets.c ****   buf.flags = 0;
1628:Middlewares/Third_Party/LwIP/src/api/sockets.c **** #endif /* LWIP_CHECKSUM_ON_COPY */
1629:Middlewares/Third_Party/LwIP/src/api/sockets.c ****   if (to) {
1630:Middlewares/Third_Party/LwIP/src/api/sockets.c ****     SOCKADDR_TO_IPADDR_PORT(to, &buf.addr, remote_port);
1631:Middlewares/Third_Party/LwIP/src/api/sockets.c ****   } else {
1632:Middlewares/Third_Party/LwIP/src/api/sockets.c ****     remote_port = 0;
1633:Middlewares/Third_Party/LwIP/src/api/sockets.c ****     ip_addr_set_any(NETCONNTYPE_ISIPV6(netconn_type(sock->conn)), &buf.addr);
1634:Middlewares/Third_Party/LwIP/src/api/sockets.c ****   }
1635:Middlewares/Third_Party/LwIP/src/api/sockets.c ****   netbuf_fromport(&buf) = remote_port;
1636:Middlewares/Third_Party/LwIP/src/api/sockets.c **** 
1637:Middlewares/Third_Party/LwIP/src/api/sockets.c **** 
1638:Middlewares/Third_Party/LwIP/src/api/sockets.c ****   LWIP_DEBUGF(SOCKETS_DEBUG, ("lwip_sendto(%d, data=%p, short_size=%"U16_F", flags=0x%x to=",
1639:Middlewares/Third_Party/LwIP/src/api/sockets.c ****                               s, data, short_size, flags));
1640:Middlewares/Third_Party/LwIP/src/api/sockets.c ****   ip_addr_debug_print_val(SOCKETS_DEBUG, buf.addr);
1641:Middlewares/Third_Party/LwIP/src/api/sockets.c ****   LWIP_DEBUGF(SOCKETS_DEBUG, (" port=%"U16_F"\n", remote_port));
1642:Middlewares/Third_Party/LwIP/src/api/sockets.c **** 
1643:Middlewares/Third_Party/LwIP/src/api/sockets.c ****   /* make the buffer point to the data that should be sent */
1644:Middlewares/Third_Party/LwIP/src/api/sockets.c **** #if LWIP_NETIF_TX_SINGLE_PBUF
1645:Middlewares/Third_Party/LwIP/src/api/sockets.c ****   /* Allocate a new netbuf and copy the data into it. */
1646:Middlewares/Third_Party/LwIP/src/api/sockets.c ****   if (netbuf_alloc(&buf, short_size) == NULL) {
1647:Middlewares/Third_Party/LwIP/src/api/sockets.c ****     err = ERR_MEM;
1648:Middlewares/Third_Party/LwIP/src/api/sockets.c ****   } else {
1649:Middlewares/Third_Party/LwIP/src/api/sockets.c **** #if LWIP_CHECKSUM_ON_COPY
1650:Middlewares/Third_Party/LwIP/src/api/sockets.c ****     if (NETCONNTYPE_GROUP(netconn_type(sock->conn)) != NETCONN_RAW) {
1651:Middlewares/Third_Party/LwIP/src/api/sockets.c ****       u16_t chksum = LWIP_CHKSUM_COPY(buf.p->payload, data, short_size);
1652:Middlewares/Third_Party/LwIP/src/api/sockets.c ****       netbuf_set_chksum(&buf, chksum);
1653:Middlewares/Third_Party/LwIP/src/api/sockets.c ****     } else
1654:Middlewares/Third_Party/LwIP/src/api/sockets.c **** #endif /* LWIP_CHECKSUM_ON_COPY */
1655:Middlewares/Third_Party/LwIP/src/api/sockets.c ****     {
1656:Middlewares/Third_Party/LwIP/src/api/sockets.c ****       MEMCPY(buf.p->payload, data, short_size);
1657:Middlewares/Third_Party/LwIP/src/api/sockets.c ****     }
1658:Middlewares/Third_Party/LwIP/src/api/sockets.c ****     err = ERR_OK;
1659:Middlewares/Third_Party/LwIP/src/api/sockets.c ****   }
1660:Middlewares/Third_Party/LwIP/src/api/sockets.c **** #else /* LWIP_NETIF_TX_SINGLE_PBUF */
1661:Middlewares/Third_Party/LwIP/src/api/sockets.c ****   err = netbuf_ref(&buf, data, short_size);
1662:Middlewares/Third_Party/LwIP/src/api/sockets.c **** #endif /* LWIP_NETIF_TX_SINGLE_PBUF */
1663:Middlewares/Third_Party/LwIP/src/api/sockets.c ****   if (err == ERR_OK) {
1664:Middlewares/Third_Party/LwIP/src/api/sockets.c **** #if LWIP_IPV4 && LWIP_IPV6
1665:Middlewares/Third_Party/LwIP/src/api/sockets.c ****     /* Dual-stack: Unmap IPv4 mapped IPv6 addresses */
1666:Middlewares/Third_Party/LwIP/src/api/sockets.c ****     if (IP_IS_V6_VAL(buf.addr) && ip6_addr_isipv4mappedipv6(ip_2_ip6(&buf.addr))) {
1667:Middlewares/Third_Party/LwIP/src/api/sockets.c ****       unmap_ipv4_mapped_ipv6(ip_2_ip4(&buf.addr), ip_2_ip6(&buf.addr));
1668:Middlewares/Third_Party/LwIP/src/api/sockets.c ****       IP_SET_TYPE_VAL(buf.addr, IPADDR_TYPE_V4);
ARM GAS  /tmp/cc3tDhb2.s 			page 35


1669:Middlewares/Third_Party/LwIP/src/api/sockets.c ****     }
1670:Middlewares/Third_Party/LwIP/src/api/sockets.c **** #endif /* LWIP_IPV4 && LWIP_IPV6 */
1671:Middlewares/Third_Party/LwIP/src/api/sockets.c **** 
1672:Middlewares/Third_Party/LwIP/src/api/sockets.c ****     /* send the data */
1673:Middlewares/Third_Party/LwIP/src/api/sockets.c ****     err = netconn_send(sock->conn, &buf);
1674:Middlewares/Third_Party/LwIP/src/api/sockets.c ****   }
1675:Middlewares/Third_Party/LwIP/src/api/sockets.c **** 
1676:Middlewares/Third_Party/LwIP/src/api/sockets.c ****   /* deallocated the buffer */
1677:Middlewares/Third_Party/LwIP/src/api/sockets.c ****   netbuf_free(&buf);
1678:Middlewares/Third_Party/LwIP/src/api/sockets.c **** 
1679:Middlewares/Third_Party/LwIP/src/api/sockets.c ****   sock_set_errno(sock, err_to_errno(err));
1680:Middlewares/Third_Party/LwIP/src/api/sockets.c ****   done_socket(sock);
1681:Middlewares/Third_Party/LwIP/src/api/sockets.c ****   return (err == ERR_OK ? short_size : -1);
1682:Middlewares/Third_Party/LwIP/src/api/sockets.c **** }
1683:Middlewares/Third_Party/LwIP/src/api/sockets.c **** 
1684:Middlewares/Third_Party/LwIP/src/api/sockets.c **** int
1685:Middlewares/Third_Party/LwIP/src/api/sockets.c **** lwip_socket(int domain, int type, int protocol)
1686:Middlewares/Third_Party/LwIP/src/api/sockets.c **** {
1687:Middlewares/Third_Party/LwIP/src/api/sockets.c ****   struct netconn *conn;
1688:Middlewares/Third_Party/LwIP/src/api/sockets.c ****   int i;
1689:Middlewares/Third_Party/LwIP/src/api/sockets.c **** 
1690:Middlewares/Third_Party/LwIP/src/api/sockets.c ****   LWIP_UNUSED_ARG(domain); /* @todo: check this */
1691:Middlewares/Third_Party/LwIP/src/api/sockets.c **** 
1692:Middlewares/Third_Party/LwIP/src/api/sockets.c ****   /* create a netconn */
1693:Middlewares/Third_Party/LwIP/src/api/sockets.c ****   switch (type) {
1694:Middlewares/Third_Party/LwIP/src/api/sockets.c ****     case SOCK_RAW:
1695:Middlewares/Third_Party/LwIP/src/api/sockets.c ****       conn = netconn_new_with_proto_and_callback(DOMAIN_TO_NETCONN_TYPE(domain, NETCONN_RAW),
1696:Middlewares/Third_Party/LwIP/src/api/sockets.c ****              (u8_t)protocol, DEFAULT_SOCKET_EVENTCB);
1697:Middlewares/Third_Party/LwIP/src/api/sockets.c ****       LWIP_DEBUGF(SOCKETS_DEBUG, ("lwip_socket(%s, SOCK_RAW, %d) = ",
1698:Middlewares/Third_Party/LwIP/src/api/sockets.c ****                                   domain == PF_INET ? "PF_INET" : "UNKNOWN", protocol));
1699:Middlewares/Third_Party/LwIP/src/api/sockets.c ****       break;
1700:Middlewares/Third_Party/LwIP/src/api/sockets.c ****     case SOCK_DGRAM:
1701:Middlewares/Third_Party/LwIP/src/api/sockets.c ****       conn = netconn_new_with_callback(DOMAIN_TO_NETCONN_TYPE(domain,
1702:Middlewares/Third_Party/LwIP/src/api/sockets.c ****                                        ((protocol == IPPROTO_UDPLITE) ? NETCONN_UDPLITE : NETCONN_U
1703:Middlewares/Third_Party/LwIP/src/api/sockets.c ****                                        DEFAULT_SOCKET_EVENTCB);
1704:Middlewares/Third_Party/LwIP/src/api/sockets.c ****       LWIP_DEBUGF(SOCKETS_DEBUG, ("lwip_socket(%s, SOCK_DGRAM, %d) = ",
1705:Middlewares/Third_Party/LwIP/src/api/sockets.c ****                                   domain == PF_INET ? "PF_INET" : "UNKNOWN", protocol));
1706:Middlewares/Third_Party/LwIP/src/api/sockets.c **** #if LWIP_NETBUF_RECVINFO
1707:Middlewares/Third_Party/LwIP/src/api/sockets.c ****       if (conn) {
1708:Middlewares/Third_Party/LwIP/src/api/sockets.c ****         /* netconn layer enables pktinfo by default, sockets default to off */
1709:Middlewares/Third_Party/LwIP/src/api/sockets.c ****         conn->flags &= ~NETCONN_FLAG_PKTINFO;
1710:Middlewares/Third_Party/LwIP/src/api/sockets.c ****       }
1711:Middlewares/Third_Party/LwIP/src/api/sockets.c **** #endif /* LWIP_NETBUF_RECVINFO */
1712:Middlewares/Third_Party/LwIP/src/api/sockets.c ****       break;
1713:Middlewares/Third_Party/LwIP/src/api/sockets.c ****     case SOCK_STREAM:
1714:Middlewares/Third_Party/LwIP/src/api/sockets.c ****       conn = netconn_new_with_callback(DOMAIN_TO_NETCONN_TYPE(domain, NETCONN_TCP), DEFAULT_SOCKET_
1715:Middlewares/Third_Party/LwIP/src/api/sockets.c ****       LWIP_DEBUGF(SOCKETS_DEBUG, ("lwip_socket(%s, SOCK_STREAM, %d) = ",
1716:Middlewares/Third_Party/LwIP/src/api/sockets.c ****                                   domain == PF_INET ? "PF_INET" : "UNKNOWN", protocol));
1717:Middlewares/Third_Party/LwIP/src/api/sockets.c ****       break;
1718:Middlewares/Third_Party/LwIP/src/api/sockets.c ****     default:
1719:Middlewares/Third_Party/LwIP/src/api/sockets.c ****       LWIP_DEBUGF(SOCKETS_DEBUG, ("lwip_socket(%d, %d/UNKNOWN, %d) = -1\n",
1720:Middlewares/Third_Party/LwIP/src/api/sockets.c ****                                   domain, type, protocol));
1721:Middlewares/Third_Party/LwIP/src/api/sockets.c ****       set_errno(EINVAL);
1722:Middlewares/Third_Party/LwIP/src/api/sockets.c ****       return -1;
1723:Middlewares/Third_Party/LwIP/src/api/sockets.c ****   }
1724:Middlewares/Third_Party/LwIP/src/api/sockets.c **** 
1725:Middlewares/Third_Party/LwIP/src/api/sockets.c ****   if (!conn) {
ARM GAS  /tmp/cc3tDhb2.s 			page 36


1726:Middlewares/Third_Party/LwIP/src/api/sockets.c ****     LWIP_DEBUGF(SOCKETS_DEBUG, ("-1 / ENOBUFS (could not create netconn)\n"));
1727:Middlewares/Third_Party/LwIP/src/api/sockets.c ****     set_errno(ENOBUFS);
1728:Middlewares/Third_Party/LwIP/src/api/sockets.c ****     return -1;
1729:Middlewares/Third_Party/LwIP/src/api/sockets.c ****   }
1730:Middlewares/Third_Party/LwIP/src/api/sockets.c **** 
1731:Middlewares/Third_Party/LwIP/src/api/sockets.c ****   i = alloc_socket(conn, 0);
1732:Middlewares/Third_Party/LwIP/src/api/sockets.c **** 
1733:Middlewares/Third_Party/LwIP/src/api/sockets.c ****   if (i == -1) {
1734:Middlewares/Third_Party/LwIP/src/api/sockets.c ****     netconn_delete(conn);
1735:Middlewares/Third_Party/LwIP/src/api/sockets.c ****     set_errno(ENFILE);
1736:Middlewares/Third_Party/LwIP/src/api/sockets.c ****     return -1;
1737:Middlewares/Third_Party/LwIP/src/api/sockets.c ****   }
1738:Middlewares/Third_Party/LwIP/src/api/sockets.c ****   conn->socket = i;
1739:Middlewares/Third_Party/LwIP/src/api/sockets.c ****   done_socket(&sockets[i - LWIP_SOCKET_OFFSET]);
1740:Middlewares/Third_Party/LwIP/src/api/sockets.c ****   LWIP_DEBUGF(SOCKETS_DEBUG, ("%d\n", i));
1741:Middlewares/Third_Party/LwIP/src/api/sockets.c ****   set_errno(0);
1742:Middlewares/Third_Party/LwIP/src/api/sockets.c ****   return i;
1743:Middlewares/Third_Party/LwIP/src/api/sockets.c **** }
1744:Middlewares/Third_Party/LwIP/src/api/sockets.c **** 
1745:Middlewares/Third_Party/LwIP/src/api/sockets.c **** ssize_t
1746:Middlewares/Third_Party/LwIP/src/api/sockets.c **** lwip_write(int s, const void *data, size_t size)
1747:Middlewares/Third_Party/LwIP/src/api/sockets.c **** {
1748:Middlewares/Third_Party/LwIP/src/api/sockets.c ****   return lwip_send(s, data, size, 0);
1749:Middlewares/Third_Party/LwIP/src/api/sockets.c **** }
1750:Middlewares/Third_Party/LwIP/src/api/sockets.c **** 
1751:Middlewares/Third_Party/LwIP/src/api/sockets.c **** ssize_t
1752:Middlewares/Third_Party/LwIP/src/api/sockets.c **** lwip_writev(int s, const struct iovec *iov, int iovcnt)
1753:Middlewares/Third_Party/LwIP/src/api/sockets.c **** {
1754:Middlewares/Third_Party/LwIP/src/api/sockets.c ****   struct msghdr msg;
1755:Middlewares/Third_Party/LwIP/src/api/sockets.c **** 
1756:Middlewares/Third_Party/LwIP/src/api/sockets.c ****   msg.msg_name = NULL;
1757:Middlewares/Third_Party/LwIP/src/api/sockets.c ****   msg.msg_namelen = 0;
1758:Middlewares/Third_Party/LwIP/src/api/sockets.c ****   /* Hack: we have to cast via number to cast from 'const' pointer to non-const.
1759:Middlewares/Third_Party/LwIP/src/api/sockets.c ****      Blame the opengroup standard for this inconsistency. */
1760:Middlewares/Third_Party/LwIP/src/api/sockets.c ****   msg.msg_iov = LWIP_CONST_CAST(struct iovec *, iov);
1761:Middlewares/Third_Party/LwIP/src/api/sockets.c ****   msg.msg_iovlen = iovcnt;
1762:Middlewares/Third_Party/LwIP/src/api/sockets.c ****   msg.msg_control = NULL;
1763:Middlewares/Third_Party/LwIP/src/api/sockets.c ****   msg.msg_controllen = 0;
1764:Middlewares/Third_Party/LwIP/src/api/sockets.c ****   msg.msg_flags = 0;
1765:Middlewares/Third_Party/LwIP/src/api/sockets.c ****   return lwip_sendmsg(s, &msg, 0);
1766:Middlewares/Third_Party/LwIP/src/api/sockets.c **** }
1767:Middlewares/Third_Party/LwIP/src/api/sockets.c **** 
1768:Middlewares/Third_Party/LwIP/src/api/sockets.c **** #if LWIP_SOCKET_SELECT || LWIP_SOCKET_POLL
1769:Middlewares/Third_Party/LwIP/src/api/sockets.c **** /* Add select_cb to select_cb_list. */
1770:Middlewares/Third_Party/LwIP/src/api/sockets.c **** static void
1771:Middlewares/Third_Party/LwIP/src/api/sockets.c **** lwip_link_select_cb(struct lwip_select_cb *select_cb)
1772:Middlewares/Third_Party/LwIP/src/api/sockets.c **** {
1773:Middlewares/Third_Party/LwIP/src/api/sockets.c ****   LWIP_SOCKET_SELECT_DECL_PROTECT(lev);
1774:Middlewares/Third_Party/LwIP/src/api/sockets.c **** 
1775:Middlewares/Third_Party/LwIP/src/api/sockets.c ****   /* Protect the select_cb_list */
1776:Middlewares/Third_Party/LwIP/src/api/sockets.c ****   LWIP_SOCKET_SELECT_PROTECT(lev);
1777:Middlewares/Third_Party/LwIP/src/api/sockets.c **** 
1778:Middlewares/Third_Party/LwIP/src/api/sockets.c ****   /* Put this select_cb on top of list */
1779:Middlewares/Third_Party/LwIP/src/api/sockets.c ****   select_cb->next = select_cb_list;
1780:Middlewares/Third_Party/LwIP/src/api/sockets.c ****   if (select_cb_list != NULL) {
1781:Middlewares/Third_Party/LwIP/src/api/sockets.c ****     select_cb_list->prev = select_cb;
1782:Middlewares/Third_Party/LwIP/src/api/sockets.c ****   }
ARM GAS  /tmp/cc3tDhb2.s 			page 37


1783:Middlewares/Third_Party/LwIP/src/api/sockets.c ****   select_cb_list = select_cb;
1784:Middlewares/Third_Party/LwIP/src/api/sockets.c **** #if !LWIP_TCPIP_CORE_LOCKING
1785:Middlewares/Third_Party/LwIP/src/api/sockets.c ****   /* Increasing this counter tells select_check_waiters that the list has changed. */
1786:Middlewares/Third_Party/LwIP/src/api/sockets.c ****   select_cb_ctr++;
1787:Middlewares/Third_Party/LwIP/src/api/sockets.c **** #endif
1788:Middlewares/Third_Party/LwIP/src/api/sockets.c **** 
1789:Middlewares/Third_Party/LwIP/src/api/sockets.c ****   /* Now we can safely unprotect */
1790:Middlewares/Third_Party/LwIP/src/api/sockets.c ****   LWIP_SOCKET_SELECT_UNPROTECT(lev);
1791:Middlewares/Third_Party/LwIP/src/api/sockets.c **** }
1792:Middlewares/Third_Party/LwIP/src/api/sockets.c **** 
1793:Middlewares/Third_Party/LwIP/src/api/sockets.c **** /* Remove select_cb from select_cb_list. */
1794:Middlewares/Third_Party/LwIP/src/api/sockets.c **** static void
1795:Middlewares/Third_Party/LwIP/src/api/sockets.c **** lwip_unlink_select_cb(struct lwip_select_cb *select_cb)
1796:Middlewares/Third_Party/LwIP/src/api/sockets.c **** {
1797:Middlewares/Third_Party/LwIP/src/api/sockets.c ****   LWIP_SOCKET_SELECT_DECL_PROTECT(lev);
1798:Middlewares/Third_Party/LwIP/src/api/sockets.c **** 
1799:Middlewares/Third_Party/LwIP/src/api/sockets.c ****   /* Take us off the list */
1800:Middlewares/Third_Party/LwIP/src/api/sockets.c ****   LWIP_SOCKET_SELECT_PROTECT(lev);
1801:Middlewares/Third_Party/LwIP/src/api/sockets.c ****   if (select_cb->next != NULL) {
1802:Middlewares/Third_Party/LwIP/src/api/sockets.c ****     select_cb->next->prev = select_cb->prev;
1803:Middlewares/Third_Party/LwIP/src/api/sockets.c ****   }
1804:Middlewares/Third_Party/LwIP/src/api/sockets.c ****   if (select_cb_list == select_cb) {
1805:Middlewares/Third_Party/LwIP/src/api/sockets.c ****     LWIP_ASSERT("select_cb->prev == NULL", select_cb->prev == NULL);
1806:Middlewares/Third_Party/LwIP/src/api/sockets.c ****     select_cb_list = select_cb->next;
1807:Middlewares/Third_Party/LwIP/src/api/sockets.c ****   } else {
1808:Middlewares/Third_Party/LwIP/src/api/sockets.c ****     LWIP_ASSERT("select_cb->prev != NULL", select_cb->prev != NULL);
1809:Middlewares/Third_Party/LwIP/src/api/sockets.c ****     select_cb->prev->next = select_cb->next;
1810:Middlewares/Third_Party/LwIP/src/api/sockets.c ****   }
1811:Middlewares/Third_Party/LwIP/src/api/sockets.c **** #if !LWIP_TCPIP_CORE_LOCKING
1812:Middlewares/Third_Party/LwIP/src/api/sockets.c ****   /* Increasing this counter tells select_check_waiters that the list has changed. */
1813:Middlewares/Third_Party/LwIP/src/api/sockets.c ****   select_cb_ctr++;
1814:Middlewares/Third_Party/LwIP/src/api/sockets.c **** #endif
1815:Middlewares/Third_Party/LwIP/src/api/sockets.c ****   LWIP_SOCKET_SELECT_UNPROTECT(lev);
1816:Middlewares/Third_Party/LwIP/src/api/sockets.c **** }
1817:Middlewares/Third_Party/LwIP/src/api/sockets.c **** #endif /* LWIP_SOCKET_SELECT || LWIP_SOCKET_POLL */
1818:Middlewares/Third_Party/LwIP/src/api/sockets.c **** 
1819:Middlewares/Third_Party/LwIP/src/api/sockets.c **** #if LWIP_SOCKET_SELECT
1820:Middlewares/Third_Party/LwIP/src/api/sockets.c **** /**
1821:Middlewares/Third_Party/LwIP/src/api/sockets.c ****  * Go through the readset and writeset lists and see which socket of the sockets
1822:Middlewares/Third_Party/LwIP/src/api/sockets.c ****  * set in the sets has events. On return, readset, writeset and exceptset have
1823:Middlewares/Third_Party/LwIP/src/api/sockets.c ****  * the sockets enabled that had events.
1824:Middlewares/Third_Party/LwIP/src/api/sockets.c ****  *
1825:Middlewares/Third_Party/LwIP/src/api/sockets.c ****  * @param maxfdp1 the highest socket index in the sets
1826:Middlewares/Third_Party/LwIP/src/api/sockets.c ****  * @param readset_in    set of sockets to check for read events
1827:Middlewares/Third_Party/LwIP/src/api/sockets.c ****  * @param writeset_in   set of sockets to check for write events
1828:Middlewares/Third_Party/LwIP/src/api/sockets.c ****  * @param exceptset_in  set of sockets to check for error events
1829:Middlewares/Third_Party/LwIP/src/api/sockets.c ****  * @param readset_out   set of sockets that had read events
1830:Middlewares/Third_Party/LwIP/src/api/sockets.c ****  * @param writeset_out  set of sockets that had write events
1831:Middlewares/Third_Party/LwIP/src/api/sockets.c ****  * @param exceptset_out set os sockets that had error events
1832:Middlewares/Third_Party/LwIP/src/api/sockets.c ****  * @return number of sockets that had events (read/write/exception) (>= 0)
1833:Middlewares/Third_Party/LwIP/src/api/sockets.c ****  */
1834:Middlewares/Third_Party/LwIP/src/api/sockets.c **** static int
1835:Middlewares/Third_Party/LwIP/src/api/sockets.c **** lwip_selscan(int maxfdp1, fd_set *readset_in, fd_set *writeset_in, fd_set *exceptset_in,
1836:Middlewares/Third_Party/LwIP/src/api/sockets.c ****              fd_set *readset_out, fd_set *writeset_out, fd_set *exceptset_out)
1837:Middlewares/Third_Party/LwIP/src/api/sockets.c **** {
1838:Middlewares/Third_Party/LwIP/src/api/sockets.c ****   int i, nready = 0;
1839:Middlewares/Third_Party/LwIP/src/api/sockets.c ****   fd_set lreadset, lwriteset, lexceptset;
ARM GAS  /tmp/cc3tDhb2.s 			page 38


1840:Middlewares/Third_Party/LwIP/src/api/sockets.c ****   struct lwip_sock *sock;
1841:Middlewares/Third_Party/LwIP/src/api/sockets.c ****   SYS_ARCH_DECL_PROTECT(lev);
1842:Middlewares/Third_Party/LwIP/src/api/sockets.c **** 
1843:Middlewares/Third_Party/LwIP/src/api/sockets.c ****   FD_ZERO(&lreadset);
1844:Middlewares/Third_Party/LwIP/src/api/sockets.c ****   FD_ZERO(&lwriteset);
1845:Middlewares/Third_Party/LwIP/src/api/sockets.c ****   FD_ZERO(&lexceptset);
1846:Middlewares/Third_Party/LwIP/src/api/sockets.c **** 
1847:Middlewares/Third_Party/LwIP/src/api/sockets.c ****   /* Go through each socket in each list to count number of sockets which
1848:Middlewares/Third_Party/LwIP/src/api/sockets.c ****      currently match */
1849:Middlewares/Third_Party/LwIP/src/api/sockets.c ****   for (i = LWIP_SOCKET_OFFSET; i < maxfdp1; i++) {
1850:Middlewares/Third_Party/LwIP/src/api/sockets.c ****     /* if this FD is not in the set, continue */
1851:Middlewares/Third_Party/LwIP/src/api/sockets.c ****     if (!(readset_in && FD_ISSET(i, readset_in)) &&
1852:Middlewares/Third_Party/LwIP/src/api/sockets.c ****         !(writeset_in && FD_ISSET(i, writeset_in)) &&
1853:Middlewares/Third_Party/LwIP/src/api/sockets.c ****         !(exceptset_in && FD_ISSET(i, exceptset_in))) {
1854:Middlewares/Third_Party/LwIP/src/api/sockets.c ****       continue;
1855:Middlewares/Third_Party/LwIP/src/api/sockets.c ****     }
1856:Middlewares/Third_Party/LwIP/src/api/sockets.c ****     /* First get the socket's status (protected)... */
1857:Middlewares/Third_Party/LwIP/src/api/sockets.c ****     SYS_ARCH_PROTECT(lev);
1858:Middlewares/Third_Party/LwIP/src/api/sockets.c ****     sock = tryget_socket_unconn_locked(i);
1859:Middlewares/Third_Party/LwIP/src/api/sockets.c ****     if (sock != NULL) {
1860:Middlewares/Third_Party/LwIP/src/api/sockets.c ****       void *lastdata = sock->lastdata.pbuf;
1861:Middlewares/Third_Party/LwIP/src/api/sockets.c ****       s16_t rcvevent = sock->rcvevent;
1862:Middlewares/Third_Party/LwIP/src/api/sockets.c ****       u16_t sendevent = sock->sendevent;
1863:Middlewares/Third_Party/LwIP/src/api/sockets.c ****       u16_t errevent = sock->errevent;
1864:Middlewares/Third_Party/LwIP/src/api/sockets.c ****       SYS_ARCH_UNPROTECT(lev);
1865:Middlewares/Third_Party/LwIP/src/api/sockets.c **** 
1866:Middlewares/Third_Party/LwIP/src/api/sockets.c ****       /* ... then examine it: */
1867:Middlewares/Third_Party/LwIP/src/api/sockets.c ****       /* See if netconn of this socket is ready for read */
1868:Middlewares/Third_Party/LwIP/src/api/sockets.c ****       if (readset_in && FD_ISSET(i, readset_in) && ((lastdata != NULL) || (rcvevent > 0))) {
1869:Middlewares/Third_Party/LwIP/src/api/sockets.c ****         FD_SET(i, &lreadset);
1870:Middlewares/Third_Party/LwIP/src/api/sockets.c ****         LWIP_DEBUGF(SOCKETS_DEBUG, ("lwip_selscan: fd=%d ready for reading\n", i));
1871:Middlewares/Third_Party/LwIP/src/api/sockets.c ****         nready++;
1872:Middlewares/Third_Party/LwIP/src/api/sockets.c ****       }
1873:Middlewares/Third_Party/LwIP/src/api/sockets.c ****       /* See if netconn of this socket is ready for write */
1874:Middlewares/Third_Party/LwIP/src/api/sockets.c ****       if (writeset_in && FD_ISSET(i, writeset_in) && (sendevent != 0)) {
1875:Middlewares/Third_Party/LwIP/src/api/sockets.c ****         FD_SET(i, &lwriteset);
1876:Middlewares/Third_Party/LwIP/src/api/sockets.c ****         LWIP_DEBUGF(SOCKETS_DEBUG, ("lwip_selscan: fd=%d ready for writing\n", i));
1877:Middlewares/Third_Party/LwIP/src/api/sockets.c ****         nready++;
1878:Middlewares/Third_Party/LwIP/src/api/sockets.c ****       }
1879:Middlewares/Third_Party/LwIP/src/api/sockets.c ****       /* See if netconn of this socket had an error */
1880:Middlewares/Third_Party/LwIP/src/api/sockets.c ****       if (exceptset_in && FD_ISSET(i, exceptset_in) && (errevent != 0)) {
1881:Middlewares/Third_Party/LwIP/src/api/sockets.c ****         FD_SET(i, &lexceptset);
1882:Middlewares/Third_Party/LwIP/src/api/sockets.c ****         LWIP_DEBUGF(SOCKETS_DEBUG, ("lwip_selscan: fd=%d ready for exception\n", i));
1883:Middlewares/Third_Party/LwIP/src/api/sockets.c ****         nready++;
1884:Middlewares/Third_Party/LwIP/src/api/sockets.c ****       }
1885:Middlewares/Third_Party/LwIP/src/api/sockets.c ****       done_socket(sock);
1886:Middlewares/Third_Party/LwIP/src/api/sockets.c ****     } else {
1887:Middlewares/Third_Party/LwIP/src/api/sockets.c ****       SYS_ARCH_UNPROTECT(lev);
1888:Middlewares/Third_Party/LwIP/src/api/sockets.c ****       /* no a valid open socket */
1889:Middlewares/Third_Party/LwIP/src/api/sockets.c ****       return -1;
1890:Middlewares/Third_Party/LwIP/src/api/sockets.c ****     }
1891:Middlewares/Third_Party/LwIP/src/api/sockets.c ****   }
1892:Middlewares/Third_Party/LwIP/src/api/sockets.c ****   /* copy local sets to the ones provided as arguments */
1893:Middlewares/Third_Party/LwIP/src/api/sockets.c ****   *readset_out = lreadset;
1894:Middlewares/Third_Party/LwIP/src/api/sockets.c ****   *writeset_out = lwriteset;
1895:Middlewares/Third_Party/LwIP/src/api/sockets.c ****   *exceptset_out = lexceptset;
1896:Middlewares/Third_Party/LwIP/src/api/sockets.c **** 
ARM GAS  /tmp/cc3tDhb2.s 			page 39


1897:Middlewares/Third_Party/LwIP/src/api/sockets.c ****   LWIP_ASSERT("nready >= 0", nready >= 0);
1898:Middlewares/Third_Party/LwIP/src/api/sockets.c ****   return nready;
1899:Middlewares/Third_Party/LwIP/src/api/sockets.c **** }
1900:Middlewares/Third_Party/LwIP/src/api/sockets.c **** 
1901:Middlewares/Third_Party/LwIP/src/api/sockets.c **** #if LWIP_NETCONN_FULLDUPLEX
1902:Middlewares/Third_Party/LwIP/src/api/sockets.c **** /* Mark all of the set sockets in one of the three fdsets passed to select as used.
1903:Middlewares/Third_Party/LwIP/src/api/sockets.c ****  * All sockets are marked (and later unmarked), whether they are open or not.
1904:Middlewares/Third_Party/LwIP/src/api/sockets.c ****  * This is OK as lwip_selscan aborts select when non-open sockets are found.
1905:Middlewares/Third_Party/LwIP/src/api/sockets.c ****  */
1906:Middlewares/Third_Party/LwIP/src/api/sockets.c **** static void
1907:Middlewares/Third_Party/LwIP/src/api/sockets.c **** lwip_select_inc_sockets_used_set(int maxfdp, fd_set *fdset, fd_set *used_sockets)
1908:Middlewares/Third_Party/LwIP/src/api/sockets.c **** {
1909:Middlewares/Third_Party/LwIP/src/api/sockets.c ****   SYS_ARCH_DECL_PROTECT(lev);
1910:Middlewares/Third_Party/LwIP/src/api/sockets.c ****   if (fdset) {
1911:Middlewares/Third_Party/LwIP/src/api/sockets.c ****     int i;
1912:Middlewares/Third_Party/LwIP/src/api/sockets.c ****     for (i = LWIP_SOCKET_OFFSET; i < maxfdp; i++) {
1913:Middlewares/Third_Party/LwIP/src/api/sockets.c ****       /* if this FD is in the set, lock it (unless already done) */
1914:Middlewares/Third_Party/LwIP/src/api/sockets.c ****       if (FD_ISSET(i, fdset) && !FD_ISSET(i, used_sockets)) {
1915:Middlewares/Third_Party/LwIP/src/api/sockets.c ****         struct lwip_sock *sock;
1916:Middlewares/Third_Party/LwIP/src/api/sockets.c ****         SYS_ARCH_PROTECT(lev);
1917:Middlewares/Third_Party/LwIP/src/api/sockets.c ****         sock = tryget_socket_unconn_locked(i);
1918:Middlewares/Third_Party/LwIP/src/api/sockets.c ****         if (sock != NULL) {
1919:Middlewares/Third_Party/LwIP/src/api/sockets.c ****           /* leave the socket used until released by lwip_select_dec_sockets_used */
1920:Middlewares/Third_Party/LwIP/src/api/sockets.c ****           FD_SET(i, used_sockets);
1921:Middlewares/Third_Party/LwIP/src/api/sockets.c ****         }
1922:Middlewares/Third_Party/LwIP/src/api/sockets.c ****         SYS_ARCH_UNPROTECT(lev);
1923:Middlewares/Third_Party/LwIP/src/api/sockets.c ****       }
1924:Middlewares/Third_Party/LwIP/src/api/sockets.c ****     }
1925:Middlewares/Third_Party/LwIP/src/api/sockets.c ****   }
1926:Middlewares/Third_Party/LwIP/src/api/sockets.c **** }
1927:Middlewares/Third_Party/LwIP/src/api/sockets.c **** 
1928:Middlewares/Third_Party/LwIP/src/api/sockets.c **** /* Mark all sockets passed to select as used to prevent them from being freed
1929:Middlewares/Third_Party/LwIP/src/api/sockets.c ****  * from other threads while select is running.
1930:Middlewares/Third_Party/LwIP/src/api/sockets.c ****  * Marked sockets are added to 'used_sockets' to mark them only once an be able
1931:Middlewares/Third_Party/LwIP/src/api/sockets.c ****  * to unmark them correctly.
1932:Middlewares/Third_Party/LwIP/src/api/sockets.c ****  */
1933:Middlewares/Third_Party/LwIP/src/api/sockets.c **** static void
1934:Middlewares/Third_Party/LwIP/src/api/sockets.c **** lwip_select_inc_sockets_used(int maxfdp, fd_set *fdset1, fd_set *fdset2, fd_set *fdset3, fd_set *us
1935:Middlewares/Third_Party/LwIP/src/api/sockets.c **** {
1936:Middlewares/Third_Party/LwIP/src/api/sockets.c ****   FD_ZERO(used_sockets);
1937:Middlewares/Third_Party/LwIP/src/api/sockets.c ****   lwip_select_inc_sockets_used_set(maxfdp, fdset1, used_sockets);
1938:Middlewares/Third_Party/LwIP/src/api/sockets.c ****   lwip_select_inc_sockets_used_set(maxfdp, fdset2, used_sockets);
1939:Middlewares/Third_Party/LwIP/src/api/sockets.c ****   lwip_select_inc_sockets_used_set(maxfdp, fdset3, used_sockets);
1940:Middlewares/Third_Party/LwIP/src/api/sockets.c **** }
1941:Middlewares/Third_Party/LwIP/src/api/sockets.c **** 
1942:Middlewares/Third_Party/LwIP/src/api/sockets.c **** /* Let go all sockets that were marked as used when starting select */
1943:Middlewares/Third_Party/LwIP/src/api/sockets.c **** static void
1944:Middlewares/Third_Party/LwIP/src/api/sockets.c **** lwip_select_dec_sockets_used(int maxfdp, fd_set *used_sockets)
1945:Middlewares/Third_Party/LwIP/src/api/sockets.c **** {
1946:Middlewares/Third_Party/LwIP/src/api/sockets.c ****   int i;
1947:Middlewares/Third_Party/LwIP/src/api/sockets.c ****   for (i = LWIP_SOCKET_OFFSET; i < maxfdp; i++) {
1948:Middlewares/Third_Party/LwIP/src/api/sockets.c ****     /* if this FD is not in the set, continue */
1949:Middlewares/Third_Party/LwIP/src/api/sockets.c ****     if (FD_ISSET(i, used_sockets)) {
1950:Middlewares/Third_Party/LwIP/src/api/sockets.c ****       struct lwip_sock *sock = tryget_socket_unconn_nouse(i);
1951:Middlewares/Third_Party/LwIP/src/api/sockets.c ****       LWIP_ASSERT("socket gone at the end of select", sock != NULL);
1952:Middlewares/Third_Party/LwIP/src/api/sockets.c ****       if (sock != NULL) {
1953:Middlewares/Third_Party/LwIP/src/api/sockets.c ****         done_socket(sock);
ARM GAS  /tmp/cc3tDhb2.s 			page 40


1954:Middlewares/Third_Party/LwIP/src/api/sockets.c ****       }
1955:Middlewares/Third_Party/LwIP/src/api/sockets.c ****     }
1956:Middlewares/Third_Party/LwIP/src/api/sockets.c ****   }
1957:Middlewares/Third_Party/LwIP/src/api/sockets.c **** }
1958:Middlewares/Third_Party/LwIP/src/api/sockets.c **** #else /* LWIP_NETCONN_FULLDUPLEX */
1959:Middlewares/Third_Party/LwIP/src/api/sockets.c **** #define lwip_select_inc_sockets_used(maxfdp1, readset, writeset, exceptset, used_sockets)
1960:Middlewares/Third_Party/LwIP/src/api/sockets.c **** #define lwip_select_dec_sockets_used(maxfdp1, used_sockets)
1961:Middlewares/Third_Party/LwIP/src/api/sockets.c **** #endif /* LWIP_NETCONN_FULLDUPLEX */
1962:Middlewares/Third_Party/LwIP/src/api/sockets.c **** 
1963:Middlewares/Third_Party/LwIP/src/api/sockets.c **** int
1964:Middlewares/Third_Party/LwIP/src/api/sockets.c **** lwip_select(int maxfdp1, fd_set *readset, fd_set *writeset, fd_set *exceptset,
1965:Middlewares/Third_Party/LwIP/src/api/sockets.c ****             struct timeval *timeout)
1966:Middlewares/Third_Party/LwIP/src/api/sockets.c **** {
1967:Middlewares/Third_Party/LwIP/src/api/sockets.c ****   u32_t waitres = 0;
1968:Middlewares/Third_Party/LwIP/src/api/sockets.c ****   int nready;
1969:Middlewares/Third_Party/LwIP/src/api/sockets.c ****   fd_set lreadset, lwriteset, lexceptset;
1970:Middlewares/Third_Party/LwIP/src/api/sockets.c ****   u32_t msectimeout;
1971:Middlewares/Third_Party/LwIP/src/api/sockets.c ****   int i;
1972:Middlewares/Third_Party/LwIP/src/api/sockets.c ****   int maxfdp2;
1973:Middlewares/Third_Party/LwIP/src/api/sockets.c **** #if LWIP_NETCONN_SEM_PER_THREAD
1974:Middlewares/Third_Party/LwIP/src/api/sockets.c ****   int waited = 0;
1975:Middlewares/Third_Party/LwIP/src/api/sockets.c **** #endif
1976:Middlewares/Third_Party/LwIP/src/api/sockets.c **** #if LWIP_NETCONN_FULLDUPLEX
1977:Middlewares/Third_Party/LwIP/src/api/sockets.c ****   fd_set used_sockets;
1978:Middlewares/Third_Party/LwIP/src/api/sockets.c **** #endif
1979:Middlewares/Third_Party/LwIP/src/api/sockets.c ****   SYS_ARCH_DECL_PROTECT(lev);
1980:Middlewares/Third_Party/LwIP/src/api/sockets.c **** 
1981:Middlewares/Third_Party/LwIP/src/api/sockets.c ****   LWIP_DEBUGF(SOCKETS_DEBUG, ("lwip_select(%d, %p, %p, %p, tvsec=%"S32_F" tvusec=%"S32_F")\n",
1982:Middlewares/Third_Party/LwIP/src/api/sockets.c ****                               maxfdp1, (void *)readset, (void *) writeset, (void *) exceptset,
1983:Middlewares/Third_Party/LwIP/src/api/sockets.c ****                               timeout ? (s32_t)timeout->tv_sec : (s32_t) - 1,
1984:Middlewares/Third_Party/LwIP/src/api/sockets.c ****                               timeout ? (s32_t)timeout->tv_usec : (s32_t) - 1));
1985:Middlewares/Third_Party/LwIP/src/api/sockets.c **** 
1986:Middlewares/Third_Party/LwIP/src/api/sockets.c ****   if ((maxfdp1 < 0) || (maxfdp1 > LWIP_SELECT_MAXNFDS)) {
1987:Middlewares/Third_Party/LwIP/src/api/sockets.c ****     set_errno(EINVAL);
1988:Middlewares/Third_Party/LwIP/src/api/sockets.c ****     return -1;
1989:Middlewares/Third_Party/LwIP/src/api/sockets.c ****   }
1990:Middlewares/Third_Party/LwIP/src/api/sockets.c **** 
1991:Middlewares/Third_Party/LwIP/src/api/sockets.c ****   lwip_select_inc_sockets_used(maxfdp1, readset, writeset, exceptset, &used_sockets);
1992:Middlewares/Third_Party/LwIP/src/api/sockets.c **** 
1993:Middlewares/Third_Party/LwIP/src/api/sockets.c ****   /* Go through each socket in each list to count number of sockets which
1994:Middlewares/Third_Party/LwIP/src/api/sockets.c ****      currently match */
1995:Middlewares/Third_Party/LwIP/src/api/sockets.c ****   nready = lwip_selscan(maxfdp1, readset, writeset, exceptset, &lreadset, &lwriteset, &lexceptset);
1996:Middlewares/Third_Party/LwIP/src/api/sockets.c **** 
1997:Middlewares/Third_Party/LwIP/src/api/sockets.c ****   if (nready < 0) {
1998:Middlewares/Third_Party/LwIP/src/api/sockets.c ****     /* one of the sockets in one of the fd_sets was invalid */
1999:Middlewares/Third_Party/LwIP/src/api/sockets.c ****     set_errno(EBADF);
2000:Middlewares/Third_Party/LwIP/src/api/sockets.c ****     lwip_select_dec_sockets_used(maxfdp1, &used_sockets);
2001:Middlewares/Third_Party/LwIP/src/api/sockets.c ****     return -1;
2002:Middlewares/Third_Party/LwIP/src/api/sockets.c ****   } else if (nready > 0) {
2003:Middlewares/Third_Party/LwIP/src/api/sockets.c ****     /* one or more sockets are set, no need to wait */
2004:Middlewares/Third_Party/LwIP/src/api/sockets.c ****     LWIP_DEBUGF(SOCKETS_DEBUG, ("lwip_select: nready=%d\n", nready));
2005:Middlewares/Third_Party/LwIP/src/api/sockets.c ****   } else {
2006:Middlewares/Third_Party/LwIP/src/api/sockets.c ****     /* If we don't have any current events, then suspend if we are supposed to */
2007:Middlewares/Third_Party/LwIP/src/api/sockets.c ****     if (timeout && timeout->tv_sec == 0 && timeout->tv_usec == 0) {
2008:Middlewares/Third_Party/LwIP/src/api/sockets.c ****       LWIP_DEBUGF(SOCKETS_DEBUG, ("lwip_select: no timeout, returning 0\n"));
2009:Middlewares/Third_Party/LwIP/src/api/sockets.c ****       /* This is OK as the local fdsets are empty and nready is zero,
2010:Middlewares/Third_Party/LwIP/src/api/sockets.c ****          or we would have returned earlier. */
ARM GAS  /tmp/cc3tDhb2.s 			page 41


2011:Middlewares/Third_Party/LwIP/src/api/sockets.c ****     } else {
2012:Middlewares/Third_Party/LwIP/src/api/sockets.c ****       /* None ready: add our semaphore to list:
2013:Middlewares/Third_Party/LwIP/src/api/sockets.c ****          We don't actually need any dynamic memory. Our entry on the
2014:Middlewares/Third_Party/LwIP/src/api/sockets.c ****          list is only valid while we are in this function, so it's ok
2015:Middlewares/Third_Party/LwIP/src/api/sockets.c ****          to use local variables (unless we're running in MPU compatible
2016:Middlewares/Third_Party/LwIP/src/api/sockets.c ****          mode). */
2017:Middlewares/Third_Party/LwIP/src/api/sockets.c ****       API_SELECT_CB_VAR_DECLARE(select_cb);
2018:Middlewares/Third_Party/LwIP/src/api/sockets.c ****       API_SELECT_CB_VAR_ALLOC(select_cb, set_errno(ENOMEM); lwip_select_dec_sockets_used(maxfdp1, &
2019:Middlewares/Third_Party/LwIP/src/api/sockets.c ****       memset(&API_SELECT_CB_VAR_REF(select_cb), 0, sizeof(struct lwip_select_cb));
2020:Middlewares/Third_Party/LwIP/src/api/sockets.c **** 
2021:Middlewares/Third_Party/LwIP/src/api/sockets.c ****       API_SELECT_CB_VAR_REF(select_cb).readset = readset;
2022:Middlewares/Third_Party/LwIP/src/api/sockets.c ****       API_SELECT_CB_VAR_REF(select_cb).writeset = writeset;
2023:Middlewares/Third_Party/LwIP/src/api/sockets.c ****       API_SELECT_CB_VAR_REF(select_cb).exceptset = exceptset;
2024:Middlewares/Third_Party/LwIP/src/api/sockets.c **** #if LWIP_NETCONN_SEM_PER_THREAD
2025:Middlewares/Third_Party/LwIP/src/api/sockets.c ****       API_SELECT_CB_VAR_REF(select_cb).sem = LWIP_NETCONN_THREAD_SEM_GET();
2026:Middlewares/Third_Party/LwIP/src/api/sockets.c **** #else /* LWIP_NETCONN_SEM_PER_THREAD */
2027:Middlewares/Third_Party/LwIP/src/api/sockets.c ****       if (sys_sem_new(&API_SELECT_CB_VAR_REF(select_cb).sem, 0) != ERR_OK) {
2028:Middlewares/Third_Party/LwIP/src/api/sockets.c ****         /* failed to create semaphore */
2029:Middlewares/Third_Party/LwIP/src/api/sockets.c ****         set_errno(ENOMEM);
2030:Middlewares/Third_Party/LwIP/src/api/sockets.c ****         lwip_select_dec_sockets_used(maxfdp1, &used_sockets);
2031:Middlewares/Third_Party/LwIP/src/api/sockets.c ****         API_SELECT_CB_VAR_FREE(select_cb);
2032:Middlewares/Third_Party/LwIP/src/api/sockets.c ****         return -1;
2033:Middlewares/Third_Party/LwIP/src/api/sockets.c ****       }
2034:Middlewares/Third_Party/LwIP/src/api/sockets.c **** #endif /* LWIP_NETCONN_SEM_PER_THREAD */
2035:Middlewares/Third_Party/LwIP/src/api/sockets.c **** 
2036:Middlewares/Third_Party/LwIP/src/api/sockets.c ****       lwip_link_select_cb(&API_SELECT_CB_VAR_REF(select_cb));
2037:Middlewares/Third_Party/LwIP/src/api/sockets.c **** 
2038:Middlewares/Third_Party/LwIP/src/api/sockets.c ****       /* Increase select_waiting for each socket we are interested in */
2039:Middlewares/Third_Party/LwIP/src/api/sockets.c ****       maxfdp2 = maxfdp1;
2040:Middlewares/Third_Party/LwIP/src/api/sockets.c ****       for (i = LWIP_SOCKET_OFFSET; i < maxfdp1; i++) {
2041:Middlewares/Third_Party/LwIP/src/api/sockets.c ****         if ((readset && FD_ISSET(i, readset)) ||
2042:Middlewares/Third_Party/LwIP/src/api/sockets.c ****             (writeset && FD_ISSET(i, writeset)) ||
2043:Middlewares/Third_Party/LwIP/src/api/sockets.c ****             (exceptset && FD_ISSET(i, exceptset))) {
2044:Middlewares/Third_Party/LwIP/src/api/sockets.c ****           struct lwip_sock *sock;
2045:Middlewares/Third_Party/LwIP/src/api/sockets.c ****           SYS_ARCH_PROTECT(lev);
2046:Middlewares/Third_Party/LwIP/src/api/sockets.c ****           sock = tryget_socket_unconn_locked(i);
2047:Middlewares/Third_Party/LwIP/src/api/sockets.c ****           if (sock != NULL) {
2048:Middlewares/Third_Party/LwIP/src/api/sockets.c ****             sock->select_waiting++;
2049:Middlewares/Third_Party/LwIP/src/api/sockets.c ****             if (sock->select_waiting == 0) {
2050:Middlewares/Third_Party/LwIP/src/api/sockets.c ****               /* overflow - too many threads waiting */
2051:Middlewares/Third_Party/LwIP/src/api/sockets.c ****               sock->select_waiting--;
2052:Middlewares/Third_Party/LwIP/src/api/sockets.c ****               nready = -1;
2053:Middlewares/Third_Party/LwIP/src/api/sockets.c ****               maxfdp2 = i;
2054:Middlewares/Third_Party/LwIP/src/api/sockets.c ****               SYS_ARCH_UNPROTECT(lev);
2055:Middlewares/Third_Party/LwIP/src/api/sockets.c ****               done_socket(sock);
2056:Middlewares/Third_Party/LwIP/src/api/sockets.c ****               set_errno(EBUSY);
2057:Middlewares/Third_Party/LwIP/src/api/sockets.c ****               break;
2058:Middlewares/Third_Party/LwIP/src/api/sockets.c ****             }
2059:Middlewares/Third_Party/LwIP/src/api/sockets.c ****             SYS_ARCH_UNPROTECT(lev);
2060:Middlewares/Third_Party/LwIP/src/api/sockets.c ****             done_socket(sock);
2061:Middlewares/Third_Party/LwIP/src/api/sockets.c ****           } else {
2062:Middlewares/Third_Party/LwIP/src/api/sockets.c ****             /* Not a valid socket */
2063:Middlewares/Third_Party/LwIP/src/api/sockets.c ****             nready = -1;
2064:Middlewares/Third_Party/LwIP/src/api/sockets.c ****             maxfdp2 = i;
2065:Middlewares/Third_Party/LwIP/src/api/sockets.c ****             SYS_ARCH_UNPROTECT(lev);
2066:Middlewares/Third_Party/LwIP/src/api/sockets.c ****             set_errno(EBADF);
2067:Middlewares/Third_Party/LwIP/src/api/sockets.c ****             break;
ARM GAS  /tmp/cc3tDhb2.s 			page 42


2068:Middlewares/Third_Party/LwIP/src/api/sockets.c ****           }
2069:Middlewares/Third_Party/LwIP/src/api/sockets.c ****         }
2070:Middlewares/Third_Party/LwIP/src/api/sockets.c ****       }
2071:Middlewares/Third_Party/LwIP/src/api/sockets.c **** 
2072:Middlewares/Third_Party/LwIP/src/api/sockets.c ****       if (nready >= 0) {
2073:Middlewares/Third_Party/LwIP/src/api/sockets.c ****         /* Call lwip_selscan again: there could have been events between
2074:Middlewares/Third_Party/LwIP/src/api/sockets.c ****            the last scan (without us on the list) and putting us on the list! */
2075:Middlewares/Third_Party/LwIP/src/api/sockets.c ****         nready = lwip_selscan(maxfdp1, readset, writeset, exceptset, &lreadset, &lwriteset, &lexcep
2076:Middlewares/Third_Party/LwIP/src/api/sockets.c ****         if (!nready) {
2077:Middlewares/Third_Party/LwIP/src/api/sockets.c ****           /* Still none ready, just wait to be woken */
2078:Middlewares/Third_Party/LwIP/src/api/sockets.c ****           if (timeout == 0) {
2079:Middlewares/Third_Party/LwIP/src/api/sockets.c ****             /* Wait forever */
2080:Middlewares/Third_Party/LwIP/src/api/sockets.c ****             msectimeout = 0;
2081:Middlewares/Third_Party/LwIP/src/api/sockets.c ****           } else {
2082:Middlewares/Third_Party/LwIP/src/api/sockets.c ****             long msecs_long = ((timeout->tv_sec * 1000) + ((timeout->tv_usec + 500) / 1000));
2083:Middlewares/Third_Party/LwIP/src/api/sockets.c ****             if (msecs_long <= 0) {
2084:Middlewares/Third_Party/LwIP/src/api/sockets.c ****               /* Wait 1ms at least (0 means wait forever) */
2085:Middlewares/Third_Party/LwIP/src/api/sockets.c ****               msectimeout = 1;
2086:Middlewares/Third_Party/LwIP/src/api/sockets.c ****             } else {
2087:Middlewares/Third_Party/LwIP/src/api/sockets.c ****               msectimeout = (u32_t)msecs_long;
2088:Middlewares/Third_Party/LwIP/src/api/sockets.c ****             }
2089:Middlewares/Third_Party/LwIP/src/api/sockets.c ****           }
2090:Middlewares/Third_Party/LwIP/src/api/sockets.c **** 
2091:Middlewares/Third_Party/LwIP/src/api/sockets.c ****           waitres = sys_arch_sem_wait(SELECT_SEM_PTR(API_SELECT_CB_VAR_REF(select_cb).sem), msectim
2092:Middlewares/Third_Party/LwIP/src/api/sockets.c **** #if LWIP_NETCONN_SEM_PER_THREAD
2093:Middlewares/Third_Party/LwIP/src/api/sockets.c ****           waited = 1;
2094:Middlewares/Third_Party/LwIP/src/api/sockets.c **** #endif
2095:Middlewares/Third_Party/LwIP/src/api/sockets.c ****         }
2096:Middlewares/Third_Party/LwIP/src/api/sockets.c ****       }
2097:Middlewares/Third_Party/LwIP/src/api/sockets.c **** 
2098:Middlewares/Third_Party/LwIP/src/api/sockets.c ****       /* Decrease select_waiting for each socket we are interested in */
2099:Middlewares/Third_Party/LwIP/src/api/sockets.c ****       for (i = LWIP_SOCKET_OFFSET; i < maxfdp2; i++) {
2100:Middlewares/Third_Party/LwIP/src/api/sockets.c ****         if ((readset && FD_ISSET(i, readset)) ||
2101:Middlewares/Third_Party/LwIP/src/api/sockets.c ****             (writeset && FD_ISSET(i, writeset)) ||
2102:Middlewares/Third_Party/LwIP/src/api/sockets.c ****             (exceptset && FD_ISSET(i, exceptset))) {
2103:Middlewares/Third_Party/LwIP/src/api/sockets.c ****           struct lwip_sock *sock;
2104:Middlewares/Third_Party/LwIP/src/api/sockets.c ****           SYS_ARCH_PROTECT(lev);
2105:Middlewares/Third_Party/LwIP/src/api/sockets.c ****           sock = tryget_socket_unconn_locked(i);
2106:Middlewares/Third_Party/LwIP/src/api/sockets.c ****           if (sock != NULL) {
2107:Middlewares/Third_Party/LwIP/src/api/sockets.c ****             /* for now, handle select_waiting==0... */
2108:Middlewares/Third_Party/LwIP/src/api/sockets.c ****             LWIP_ASSERT("sock->select_waiting > 0", sock->select_waiting > 0);
2109:Middlewares/Third_Party/LwIP/src/api/sockets.c ****             if (sock->select_waiting > 0) {
2110:Middlewares/Third_Party/LwIP/src/api/sockets.c ****               sock->select_waiting--;
2111:Middlewares/Third_Party/LwIP/src/api/sockets.c ****             }
2112:Middlewares/Third_Party/LwIP/src/api/sockets.c ****             SYS_ARCH_UNPROTECT(lev);
2113:Middlewares/Third_Party/LwIP/src/api/sockets.c ****             done_socket(sock);
2114:Middlewares/Third_Party/LwIP/src/api/sockets.c ****           } else {
2115:Middlewares/Third_Party/LwIP/src/api/sockets.c ****             SYS_ARCH_UNPROTECT(lev);
2116:Middlewares/Third_Party/LwIP/src/api/sockets.c ****             /* Not a valid socket */
2117:Middlewares/Third_Party/LwIP/src/api/sockets.c ****             nready = -1;
2118:Middlewares/Third_Party/LwIP/src/api/sockets.c ****             set_errno(EBADF);
2119:Middlewares/Third_Party/LwIP/src/api/sockets.c ****           }
2120:Middlewares/Third_Party/LwIP/src/api/sockets.c ****         }
2121:Middlewares/Third_Party/LwIP/src/api/sockets.c ****       }
2122:Middlewares/Third_Party/LwIP/src/api/sockets.c **** 
2123:Middlewares/Third_Party/LwIP/src/api/sockets.c ****       lwip_unlink_select_cb(&API_SELECT_CB_VAR_REF(select_cb));
2124:Middlewares/Third_Party/LwIP/src/api/sockets.c **** 
ARM GAS  /tmp/cc3tDhb2.s 			page 43


2125:Middlewares/Third_Party/LwIP/src/api/sockets.c **** #if LWIP_NETCONN_SEM_PER_THREAD
2126:Middlewares/Third_Party/LwIP/src/api/sockets.c ****       if (API_SELECT_CB_VAR_REF(select_cb).sem_signalled && (!waited || (waitres == SYS_ARCH_TIMEOU
2127:Middlewares/Third_Party/LwIP/src/api/sockets.c ****         /* don't leave the thread-local semaphore signalled */
2128:Middlewares/Third_Party/LwIP/src/api/sockets.c ****         sys_arch_sem_wait(API_SELECT_CB_VAR_REF(select_cb).sem, 1);
2129:Middlewares/Third_Party/LwIP/src/api/sockets.c ****       }
2130:Middlewares/Third_Party/LwIP/src/api/sockets.c **** #else /* LWIP_NETCONN_SEM_PER_THREAD */
2131:Middlewares/Third_Party/LwIP/src/api/sockets.c ****       sys_sem_free(&API_SELECT_CB_VAR_REF(select_cb).sem);
2132:Middlewares/Third_Party/LwIP/src/api/sockets.c **** #endif /* LWIP_NETCONN_SEM_PER_THREAD */
2133:Middlewares/Third_Party/LwIP/src/api/sockets.c ****       API_SELECT_CB_VAR_FREE(select_cb);
2134:Middlewares/Third_Party/LwIP/src/api/sockets.c **** 
2135:Middlewares/Third_Party/LwIP/src/api/sockets.c ****       if (nready < 0) {
2136:Middlewares/Third_Party/LwIP/src/api/sockets.c ****         /* This happens when a socket got closed while waiting */
2137:Middlewares/Third_Party/LwIP/src/api/sockets.c ****         lwip_select_dec_sockets_used(maxfdp1, &used_sockets);
2138:Middlewares/Third_Party/LwIP/src/api/sockets.c ****         return -1;
2139:Middlewares/Third_Party/LwIP/src/api/sockets.c ****       }
2140:Middlewares/Third_Party/LwIP/src/api/sockets.c **** 
2141:Middlewares/Third_Party/LwIP/src/api/sockets.c ****       if (waitres == SYS_ARCH_TIMEOUT) {
2142:Middlewares/Third_Party/LwIP/src/api/sockets.c ****         /* Timeout */
2143:Middlewares/Third_Party/LwIP/src/api/sockets.c ****         LWIP_DEBUGF(SOCKETS_DEBUG, ("lwip_select: timeout expired\n"));
2144:Middlewares/Third_Party/LwIP/src/api/sockets.c ****         /* This is OK as the local fdsets are empty and nready is zero,
2145:Middlewares/Third_Party/LwIP/src/api/sockets.c ****            or we would have returned earlier. */
2146:Middlewares/Third_Party/LwIP/src/api/sockets.c ****       } else {
2147:Middlewares/Third_Party/LwIP/src/api/sockets.c ****         /* See what's set now after waiting */
2148:Middlewares/Third_Party/LwIP/src/api/sockets.c ****         nready = lwip_selscan(maxfdp1, readset, writeset, exceptset, &lreadset, &lwriteset, &lexcep
2149:Middlewares/Third_Party/LwIP/src/api/sockets.c ****         LWIP_DEBUGF(SOCKETS_DEBUG, ("lwip_select: nready=%d\n", nready));
2150:Middlewares/Third_Party/LwIP/src/api/sockets.c ****       }
2151:Middlewares/Third_Party/LwIP/src/api/sockets.c ****     }
2152:Middlewares/Third_Party/LwIP/src/api/sockets.c ****   }
2153:Middlewares/Third_Party/LwIP/src/api/sockets.c **** 
2154:Middlewares/Third_Party/LwIP/src/api/sockets.c ****   lwip_select_dec_sockets_used(maxfdp1, &used_sockets);
2155:Middlewares/Third_Party/LwIP/src/api/sockets.c ****   set_errno(0);
2156:Middlewares/Third_Party/LwIP/src/api/sockets.c ****   if (readset) {
2157:Middlewares/Third_Party/LwIP/src/api/sockets.c ****     *readset = lreadset;
2158:Middlewares/Third_Party/LwIP/src/api/sockets.c ****   }
2159:Middlewares/Third_Party/LwIP/src/api/sockets.c ****   if (writeset) {
2160:Middlewares/Third_Party/LwIP/src/api/sockets.c ****     *writeset = lwriteset;
2161:Middlewares/Third_Party/LwIP/src/api/sockets.c ****   }
2162:Middlewares/Third_Party/LwIP/src/api/sockets.c ****   if (exceptset) {
2163:Middlewares/Third_Party/LwIP/src/api/sockets.c ****     *exceptset = lexceptset;
2164:Middlewares/Third_Party/LwIP/src/api/sockets.c ****   }
2165:Middlewares/Third_Party/LwIP/src/api/sockets.c ****   return nready;
2166:Middlewares/Third_Party/LwIP/src/api/sockets.c **** }
2167:Middlewares/Third_Party/LwIP/src/api/sockets.c **** #endif /* LWIP_SOCKET_SELECT */
2168:Middlewares/Third_Party/LwIP/src/api/sockets.c **** 
2169:Middlewares/Third_Party/LwIP/src/api/sockets.c **** #if LWIP_SOCKET_POLL
2170:Middlewares/Third_Party/LwIP/src/api/sockets.c **** /** Options for the lwip_pollscan function. */
2171:Middlewares/Third_Party/LwIP/src/api/sockets.c **** enum lwip_pollscan_opts
2172:Middlewares/Third_Party/LwIP/src/api/sockets.c **** {
2173:Middlewares/Third_Party/LwIP/src/api/sockets.c ****   /** Clear revents in each struct pollfd. */
2174:Middlewares/Third_Party/LwIP/src/api/sockets.c ****   LWIP_POLLSCAN_CLEAR = 1,
2175:Middlewares/Third_Party/LwIP/src/api/sockets.c **** 
2176:Middlewares/Third_Party/LwIP/src/api/sockets.c ****   /** Increment select_waiting in each struct lwip_sock. */
2177:Middlewares/Third_Party/LwIP/src/api/sockets.c ****   LWIP_POLLSCAN_INC_WAIT = 2,
2178:Middlewares/Third_Party/LwIP/src/api/sockets.c **** 
2179:Middlewares/Third_Party/LwIP/src/api/sockets.c ****   /** Decrement select_waiting in each struct lwip_sock. */
2180:Middlewares/Third_Party/LwIP/src/api/sockets.c ****   LWIP_POLLSCAN_DEC_WAIT = 4
2181:Middlewares/Third_Party/LwIP/src/api/sockets.c **** };
ARM GAS  /tmp/cc3tDhb2.s 			page 44


2182:Middlewares/Third_Party/LwIP/src/api/sockets.c **** 
2183:Middlewares/Third_Party/LwIP/src/api/sockets.c **** /**
2184:Middlewares/Third_Party/LwIP/src/api/sockets.c ****  * Update revents in each struct pollfd.
2185:Middlewares/Third_Party/LwIP/src/api/sockets.c ****  * Optionally update select_waiting in struct lwip_sock.
2186:Middlewares/Third_Party/LwIP/src/api/sockets.c ****  *
2187:Middlewares/Third_Party/LwIP/src/api/sockets.c ****  * @param fds          array of structures to update
2188:Middlewares/Third_Party/LwIP/src/api/sockets.c ****  * @param nfds         number of structures in fds
2189:Middlewares/Third_Party/LwIP/src/api/sockets.c ****  * @param opts         what to update and how
2190:Middlewares/Third_Party/LwIP/src/api/sockets.c ****  * @return number of structures that have revents != 0
2191:Middlewares/Third_Party/LwIP/src/api/sockets.c ****  */
2192:Middlewares/Third_Party/LwIP/src/api/sockets.c **** static int
2193:Middlewares/Third_Party/LwIP/src/api/sockets.c **** lwip_pollscan(struct pollfd *fds, nfds_t nfds, enum lwip_pollscan_opts opts)
2194:Middlewares/Third_Party/LwIP/src/api/sockets.c **** {
2195:Middlewares/Third_Party/LwIP/src/api/sockets.c ****   int nready = 0;
2196:Middlewares/Third_Party/LwIP/src/api/sockets.c ****   nfds_t fdi;
2197:Middlewares/Third_Party/LwIP/src/api/sockets.c ****   struct lwip_sock *sock;
2198:Middlewares/Third_Party/LwIP/src/api/sockets.c ****   SYS_ARCH_DECL_PROTECT(lev);
2199:Middlewares/Third_Party/LwIP/src/api/sockets.c **** 
2200:Middlewares/Third_Party/LwIP/src/api/sockets.c ****   /* Go through each struct pollfd in the array. */
2201:Middlewares/Third_Party/LwIP/src/api/sockets.c ****   for (fdi = 0; fdi < nfds; fdi++) {
2202:Middlewares/Third_Party/LwIP/src/api/sockets.c ****     if ((opts & LWIP_POLLSCAN_CLEAR) != 0) {
2203:Middlewares/Third_Party/LwIP/src/api/sockets.c ****       fds[fdi].revents = 0;
2204:Middlewares/Third_Party/LwIP/src/api/sockets.c ****     }
2205:Middlewares/Third_Party/LwIP/src/api/sockets.c **** 
2206:Middlewares/Third_Party/LwIP/src/api/sockets.c ****     /* Negative fd means the caller wants us to ignore this struct.
2207:Middlewares/Third_Party/LwIP/src/api/sockets.c ****        POLLNVAL means we already detected that the fd is invalid;
2208:Middlewares/Third_Party/LwIP/src/api/sockets.c ****        if another thread has since opened a new socket with that fd,
2209:Middlewares/Third_Party/LwIP/src/api/sockets.c ****        we must not use that socket. */
2210:Middlewares/Third_Party/LwIP/src/api/sockets.c ****     if (fds[fdi].fd >= 0 && (fds[fdi].revents & POLLNVAL) == 0) {
2211:Middlewares/Third_Party/LwIP/src/api/sockets.c ****       /* First get the socket's status (protected)... */
2212:Middlewares/Third_Party/LwIP/src/api/sockets.c ****       SYS_ARCH_PROTECT(lev);
2213:Middlewares/Third_Party/LwIP/src/api/sockets.c ****       sock = tryget_socket_unconn_locked(fds[fdi].fd);
2214:Middlewares/Third_Party/LwIP/src/api/sockets.c ****       if (sock != NULL) {
2215:Middlewares/Third_Party/LwIP/src/api/sockets.c ****         void* lastdata = sock->lastdata.pbuf;
2216:Middlewares/Third_Party/LwIP/src/api/sockets.c ****         s16_t rcvevent = sock->rcvevent;
2217:Middlewares/Third_Party/LwIP/src/api/sockets.c ****         u16_t sendevent = sock->sendevent;
2218:Middlewares/Third_Party/LwIP/src/api/sockets.c ****         u16_t errevent = sock->errevent;
2219:Middlewares/Third_Party/LwIP/src/api/sockets.c **** 
2220:Middlewares/Third_Party/LwIP/src/api/sockets.c ****         if ((opts & LWIP_POLLSCAN_INC_WAIT) != 0) {
2221:Middlewares/Third_Party/LwIP/src/api/sockets.c ****           sock->select_waiting++;
2222:Middlewares/Third_Party/LwIP/src/api/sockets.c ****           if (sock->select_waiting == 0) {
2223:Middlewares/Third_Party/LwIP/src/api/sockets.c ****             /* overflow - too many threads waiting */
2224:Middlewares/Third_Party/LwIP/src/api/sockets.c ****             sock->select_waiting--;
2225:Middlewares/Third_Party/LwIP/src/api/sockets.c ****             nready = -1;
2226:Middlewares/Third_Party/LwIP/src/api/sockets.c ****             SYS_ARCH_UNPROTECT(lev);
2227:Middlewares/Third_Party/LwIP/src/api/sockets.c ****             done_socket(sock);
2228:Middlewares/Third_Party/LwIP/src/api/sockets.c ****             break;
2229:Middlewares/Third_Party/LwIP/src/api/sockets.c ****           }
2230:Middlewares/Third_Party/LwIP/src/api/sockets.c ****         } else if ((opts & LWIP_POLLSCAN_DEC_WAIT) != 0) {
2231:Middlewares/Third_Party/LwIP/src/api/sockets.c ****           /* for now, handle select_waiting==0... */
2232:Middlewares/Third_Party/LwIP/src/api/sockets.c ****           LWIP_ASSERT("sock->select_waiting > 0", sock->select_waiting > 0);
2233:Middlewares/Third_Party/LwIP/src/api/sockets.c ****           if (sock->select_waiting > 0) {
2234:Middlewares/Third_Party/LwIP/src/api/sockets.c ****             sock->select_waiting--;
2235:Middlewares/Third_Party/LwIP/src/api/sockets.c ****           }
2236:Middlewares/Third_Party/LwIP/src/api/sockets.c ****         }
2237:Middlewares/Third_Party/LwIP/src/api/sockets.c ****         SYS_ARCH_UNPROTECT(lev);
2238:Middlewares/Third_Party/LwIP/src/api/sockets.c ****         done_socket(sock);
ARM GAS  /tmp/cc3tDhb2.s 			page 45


2239:Middlewares/Third_Party/LwIP/src/api/sockets.c **** 
2240:Middlewares/Third_Party/LwIP/src/api/sockets.c ****         /* ... then examine it: */
2241:Middlewares/Third_Party/LwIP/src/api/sockets.c ****         /* See if netconn of this socket is ready for read */
2242:Middlewares/Third_Party/LwIP/src/api/sockets.c ****         if ((fds[fdi].events & POLLIN) != 0 && ((lastdata != NULL) || (rcvevent > 0))) {
2243:Middlewares/Third_Party/LwIP/src/api/sockets.c ****           fds[fdi].revents |= POLLIN;
2244:Middlewares/Third_Party/LwIP/src/api/sockets.c ****           LWIP_DEBUGF(SOCKETS_DEBUG, ("lwip_pollscan: fd=%d ready for reading\n", fds[fdi].fd));
2245:Middlewares/Third_Party/LwIP/src/api/sockets.c ****         }
2246:Middlewares/Third_Party/LwIP/src/api/sockets.c ****         /* See if netconn of this socket is ready for write */
2247:Middlewares/Third_Party/LwIP/src/api/sockets.c ****         if ((fds[fdi].events & POLLOUT) != 0 && (sendevent != 0)) {
2248:Middlewares/Third_Party/LwIP/src/api/sockets.c ****           fds[fdi].revents |= POLLOUT;
2249:Middlewares/Third_Party/LwIP/src/api/sockets.c ****           LWIP_DEBUGF(SOCKETS_DEBUG, ("lwip_pollscan: fd=%d ready for writing\n", fds[fdi].fd));
2250:Middlewares/Third_Party/LwIP/src/api/sockets.c ****         }
2251:Middlewares/Third_Party/LwIP/src/api/sockets.c ****         /* See if netconn of this socket had an error */
2252:Middlewares/Third_Party/LwIP/src/api/sockets.c ****         if (errevent != 0) {
2253:Middlewares/Third_Party/LwIP/src/api/sockets.c ****           /* POLLERR is output only. */
2254:Middlewares/Third_Party/LwIP/src/api/sockets.c ****           fds[fdi].revents |= POLLERR;
2255:Middlewares/Third_Party/LwIP/src/api/sockets.c ****           LWIP_DEBUGF(SOCKETS_DEBUG, ("lwip_pollscan: fd=%d ready for exception\n", fds[fdi].fd));
2256:Middlewares/Third_Party/LwIP/src/api/sockets.c ****         }
2257:Middlewares/Third_Party/LwIP/src/api/sockets.c ****       } else {
2258:Middlewares/Third_Party/LwIP/src/api/sockets.c ****         /* Not a valid socket */
2259:Middlewares/Third_Party/LwIP/src/api/sockets.c ****         SYS_ARCH_UNPROTECT(lev);
2260:Middlewares/Third_Party/LwIP/src/api/sockets.c ****         /* POLLNVAL is output only. */
2261:Middlewares/Third_Party/LwIP/src/api/sockets.c ****         fds[fdi].revents |= POLLNVAL;
2262:Middlewares/Third_Party/LwIP/src/api/sockets.c ****         return -1;
2263:Middlewares/Third_Party/LwIP/src/api/sockets.c ****       }
2264:Middlewares/Third_Party/LwIP/src/api/sockets.c ****     }
2265:Middlewares/Third_Party/LwIP/src/api/sockets.c **** 
2266:Middlewares/Third_Party/LwIP/src/api/sockets.c ****     /* Will return the number of structures that have events,
2267:Middlewares/Third_Party/LwIP/src/api/sockets.c ****        not the number of events. */
2268:Middlewares/Third_Party/LwIP/src/api/sockets.c ****     if (fds[fdi].revents != 0) {
2269:Middlewares/Third_Party/LwIP/src/api/sockets.c ****       nready++;
2270:Middlewares/Third_Party/LwIP/src/api/sockets.c ****     }
2271:Middlewares/Third_Party/LwIP/src/api/sockets.c ****   }
2272:Middlewares/Third_Party/LwIP/src/api/sockets.c **** 
2273:Middlewares/Third_Party/LwIP/src/api/sockets.c ****   LWIP_ASSERT("nready >= 0", nready >= 0);
2274:Middlewares/Third_Party/LwIP/src/api/sockets.c ****   return nready;
2275:Middlewares/Third_Party/LwIP/src/api/sockets.c **** }
2276:Middlewares/Third_Party/LwIP/src/api/sockets.c **** 
2277:Middlewares/Third_Party/LwIP/src/api/sockets.c **** #if LWIP_NETCONN_FULLDUPLEX
2278:Middlewares/Third_Party/LwIP/src/api/sockets.c **** /* Mark all sockets as used.
2279:Middlewares/Third_Party/LwIP/src/api/sockets.c ****  *
2280:Middlewares/Third_Party/LwIP/src/api/sockets.c ****  * All sockets are marked (and later unmarked), whether they are open or not.
2281:Middlewares/Third_Party/LwIP/src/api/sockets.c ****  * This is OK as lwip_pollscan aborts select when non-open sockets are found.
2282:Middlewares/Third_Party/LwIP/src/api/sockets.c ****  */
2283:Middlewares/Third_Party/LwIP/src/api/sockets.c **** static void
2284:Middlewares/Third_Party/LwIP/src/api/sockets.c **** lwip_poll_inc_sockets_used(struct pollfd *fds, nfds_t nfds)
2285:Middlewares/Third_Party/LwIP/src/api/sockets.c **** {
2286:Middlewares/Third_Party/LwIP/src/api/sockets.c ****   nfds_t fdi;
2287:Middlewares/Third_Party/LwIP/src/api/sockets.c **** 
2288:Middlewares/Third_Party/LwIP/src/api/sockets.c ****   if(fds) {
2289:Middlewares/Third_Party/LwIP/src/api/sockets.c ****     /* Go through each struct pollfd in the array. */
2290:Middlewares/Third_Party/LwIP/src/api/sockets.c ****     for (fdi = 0; fdi < nfds; fdi++) {
2291:Middlewares/Third_Party/LwIP/src/api/sockets.c ****       /* Increase the reference counter */
2292:Middlewares/Third_Party/LwIP/src/api/sockets.c ****       tryget_socket_unconn(fds[fdi].fd);
2293:Middlewares/Third_Party/LwIP/src/api/sockets.c ****     }
2294:Middlewares/Third_Party/LwIP/src/api/sockets.c ****   }
2295:Middlewares/Third_Party/LwIP/src/api/sockets.c **** }
ARM GAS  /tmp/cc3tDhb2.s 			page 46


2296:Middlewares/Third_Party/LwIP/src/api/sockets.c **** 
2297:Middlewares/Third_Party/LwIP/src/api/sockets.c **** /* Let go all sockets that were marked as used when starting poll */
2298:Middlewares/Third_Party/LwIP/src/api/sockets.c **** static void
2299:Middlewares/Third_Party/LwIP/src/api/sockets.c **** lwip_poll_dec_sockets_used(struct pollfd *fds, nfds_t nfds)
2300:Middlewares/Third_Party/LwIP/src/api/sockets.c **** {
2301:Middlewares/Third_Party/LwIP/src/api/sockets.c ****   nfds_t fdi;
2302:Middlewares/Third_Party/LwIP/src/api/sockets.c **** 
2303:Middlewares/Third_Party/LwIP/src/api/sockets.c ****   if(fds) {
2304:Middlewares/Third_Party/LwIP/src/api/sockets.c ****     /* Go through each struct pollfd in the array. */
2305:Middlewares/Third_Party/LwIP/src/api/sockets.c ****     for (fdi = 0; fdi < nfds; fdi++) {
2306:Middlewares/Third_Party/LwIP/src/api/sockets.c ****       struct lwip_sock *sock = tryget_socket_unconn_nouse(fds[fdi].fd);
2307:Middlewares/Third_Party/LwIP/src/api/sockets.c ****       if (sock != NULL) {
2308:Middlewares/Third_Party/LwIP/src/api/sockets.c ****         done_socket(sock);
2309:Middlewares/Third_Party/LwIP/src/api/sockets.c ****       }
2310:Middlewares/Third_Party/LwIP/src/api/sockets.c ****     }
2311:Middlewares/Third_Party/LwIP/src/api/sockets.c ****   }
2312:Middlewares/Third_Party/LwIP/src/api/sockets.c **** }
2313:Middlewares/Third_Party/LwIP/src/api/sockets.c **** #else /* LWIP_NETCONN_FULLDUPLEX */
2314:Middlewares/Third_Party/LwIP/src/api/sockets.c **** #define lwip_poll_inc_sockets_used(fds, nfds)
2315:Middlewares/Third_Party/LwIP/src/api/sockets.c **** #define lwip_poll_dec_sockets_used(fds, nfds)
2316:Middlewares/Third_Party/LwIP/src/api/sockets.c **** #endif /* LWIP_NETCONN_FULLDUPLEX */
2317:Middlewares/Third_Party/LwIP/src/api/sockets.c **** 
2318:Middlewares/Third_Party/LwIP/src/api/sockets.c **** int
2319:Middlewares/Third_Party/LwIP/src/api/sockets.c **** lwip_poll(struct pollfd *fds, nfds_t nfds, int timeout)
2320:Middlewares/Third_Party/LwIP/src/api/sockets.c **** {
2321:Middlewares/Third_Party/LwIP/src/api/sockets.c ****   u32_t waitres = 0;
2322:Middlewares/Third_Party/LwIP/src/api/sockets.c ****   int nready;
2323:Middlewares/Third_Party/LwIP/src/api/sockets.c ****   u32_t msectimeout;
2324:Middlewares/Third_Party/LwIP/src/api/sockets.c **** #if LWIP_NETCONN_SEM_PER_THREAD
2325:Middlewares/Third_Party/LwIP/src/api/sockets.c ****   int waited = 0;
2326:Middlewares/Third_Party/LwIP/src/api/sockets.c **** #endif
2327:Middlewares/Third_Party/LwIP/src/api/sockets.c **** 
2328:Middlewares/Third_Party/LwIP/src/api/sockets.c ****   LWIP_DEBUGF(SOCKETS_DEBUG, ("lwip_poll(%p, %d, %d)\n",
2329:Middlewares/Third_Party/LwIP/src/api/sockets.c ****                   (void*)fds, (int)nfds, timeout));
2330:Middlewares/Third_Party/LwIP/src/api/sockets.c ****   LWIP_ERROR("lwip_poll: invalid fds", ((fds != NULL && nfds > 0) || (fds == NULL && nfds == 0)),
2331:Middlewares/Third_Party/LwIP/src/api/sockets.c ****              set_errno(EINVAL); return -1;);
2332:Middlewares/Third_Party/LwIP/src/api/sockets.c **** 
2333:Middlewares/Third_Party/LwIP/src/api/sockets.c ****   lwip_poll_inc_sockets_used(fds, nfds);
2334:Middlewares/Third_Party/LwIP/src/api/sockets.c **** 
2335:Middlewares/Third_Party/LwIP/src/api/sockets.c ****   /* Go through each struct pollfd to count number of structures
2336:Middlewares/Third_Party/LwIP/src/api/sockets.c ****      which currently match */
2337:Middlewares/Third_Party/LwIP/src/api/sockets.c ****   nready = lwip_pollscan(fds, nfds, LWIP_POLLSCAN_CLEAR);
2338:Middlewares/Third_Party/LwIP/src/api/sockets.c **** 
2339:Middlewares/Third_Party/LwIP/src/api/sockets.c ****   if (nready < 0) {
2340:Middlewares/Third_Party/LwIP/src/api/sockets.c ****     lwip_poll_dec_sockets_used(fds, nfds);
2341:Middlewares/Third_Party/LwIP/src/api/sockets.c ****     return -1;
2342:Middlewares/Third_Party/LwIP/src/api/sockets.c ****   }
2343:Middlewares/Third_Party/LwIP/src/api/sockets.c **** 
2344:Middlewares/Third_Party/LwIP/src/api/sockets.c ****   /* If we don't have any current events, then suspend if we are supposed to */
2345:Middlewares/Third_Party/LwIP/src/api/sockets.c ****   if (!nready) {
2346:Middlewares/Third_Party/LwIP/src/api/sockets.c ****     API_SELECT_CB_VAR_DECLARE(select_cb);
2347:Middlewares/Third_Party/LwIP/src/api/sockets.c **** 
2348:Middlewares/Third_Party/LwIP/src/api/sockets.c ****     if (timeout == 0) {
2349:Middlewares/Third_Party/LwIP/src/api/sockets.c ****       LWIP_DEBUGF(SOCKETS_DEBUG, ("lwip_poll: no timeout, returning 0\n"));
2350:Middlewares/Third_Party/LwIP/src/api/sockets.c ****       goto return_success;
2351:Middlewares/Third_Party/LwIP/src/api/sockets.c ****     }
2352:Middlewares/Third_Party/LwIP/src/api/sockets.c ****     API_SELECT_CB_VAR_ALLOC(select_cb, set_errno(EAGAIN); lwip_poll_dec_sockets_used(fds, nfds); re
ARM GAS  /tmp/cc3tDhb2.s 			page 47


2353:Middlewares/Third_Party/LwIP/src/api/sockets.c ****     memset(&API_SELECT_CB_VAR_REF(select_cb), 0, sizeof(struct lwip_select_cb));
2354:Middlewares/Third_Party/LwIP/src/api/sockets.c **** 
2355:Middlewares/Third_Party/LwIP/src/api/sockets.c ****     /* None ready: add our semaphore to list:
2356:Middlewares/Third_Party/LwIP/src/api/sockets.c ****        We don't actually need any dynamic memory. Our entry on the
2357:Middlewares/Third_Party/LwIP/src/api/sockets.c ****        list is only valid while we are in this function, so it's ok
2358:Middlewares/Third_Party/LwIP/src/api/sockets.c ****        to use local variables. */
2359:Middlewares/Third_Party/LwIP/src/api/sockets.c **** 
2360:Middlewares/Third_Party/LwIP/src/api/sockets.c ****     API_SELECT_CB_VAR_REF(select_cb).poll_fds = fds;
2361:Middlewares/Third_Party/LwIP/src/api/sockets.c ****     API_SELECT_CB_VAR_REF(select_cb).poll_nfds = nfds;
2362:Middlewares/Third_Party/LwIP/src/api/sockets.c **** #if LWIP_NETCONN_SEM_PER_THREAD
2363:Middlewares/Third_Party/LwIP/src/api/sockets.c ****     API_SELECT_CB_VAR_REF(select_cb).sem = LWIP_NETCONN_THREAD_SEM_GET();
2364:Middlewares/Third_Party/LwIP/src/api/sockets.c **** #else /* LWIP_NETCONN_SEM_PER_THREAD */
2365:Middlewares/Third_Party/LwIP/src/api/sockets.c ****     if (sys_sem_new(&API_SELECT_CB_VAR_REF(select_cb).sem, 0) != ERR_OK) {
2366:Middlewares/Third_Party/LwIP/src/api/sockets.c ****       /* failed to create semaphore */
2367:Middlewares/Third_Party/LwIP/src/api/sockets.c ****       set_errno(EAGAIN);
2368:Middlewares/Third_Party/LwIP/src/api/sockets.c ****       lwip_poll_dec_sockets_used(fds, nfds);
2369:Middlewares/Third_Party/LwIP/src/api/sockets.c ****       API_SELECT_CB_VAR_FREE(select_cb);
2370:Middlewares/Third_Party/LwIP/src/api/sockets.c ****       return -1;
2371:Middlewares/Third_Party/LwIP/src/api/sockets.c ****     }
2372:Middlewares/Third_Party/LwIP/src/api/sockets.c **** #endif /* LWIP_NETCONN_SEM_PER_THREAD */
2373:Middlewares/Third_Party/LwIP/src/api/sockets.c **** 
2374:Middlewares/Third_Party/LwIP/src/api/sockets.c ****     lwip_link_select_cb(&API_SELECT_CB_VAR_REF(select_cb));
2375:Middlewares/Third_Party/LwIP/src/api/sockets.c **** 
2376:Middlewares/Third_Party/LwIP/src/api/sockets.c ****     /* Increase select_waiting for each socket we are interested in.
2377:Middlewares/Third_Party/LwIP/src/api/sockets.c ****        Also, check for events again: there could have been events between
2378:Middlewares/Third_Party/LwIP/src/api/sockets.c ****        the last scan (without us on the list) and putting us on the list! */
2379:Middlewares/Third_Party/LwIP/src/api/sockets.c ****     nready = lwip_pollscan(fds, nfds, LWIP_POLLSCAN_INC_WAIT);
2380:Middlewares/Third_Party/LwIP/src/api/sockets.c **** 
2381:Middlewares/Third_Party/LwIP/src/api/sockets.c ****     if (!nready) {
2382:Middlewares/Third_Party/LwIP/src/api/sockets.c ****       /* Still none ready, just wait to be woken */
2383:Middlewares/Third_Party/LwIP/src/api/sockets.c ****       if (timeout < 0) {
2384:Middlewares/Third_Party/LwIP/src/api/sockets.c ****         /* Wait forever */
2385:Middlewares/Third_Party/LwIP/src/api/sockets.c ****         msectimeout = 0;
2386:Middlewares/Third_Party/LwIP/src/api/sockets.c ****       } else {
2387:Middlewares/Third_Party/LwIP/src/api/sockets.c ****         /* timeout == 0 would have been handled earlier. */
2388:Middlewares/Third_Party/LwIP/src/api/sockets.c ****         LWIP_ASSERT("timeout > 0", timeout > 0);
2389:Middlewares/Third_Party/LwIP/src/api/sockets.c ****         msectimeout = timeout;
2390:Middlewares/Third_Party/LwIP/src/api/sockets.c ****       }
2391:Middlewares/Third_Party/LwIP/src/api/sockets.c ****       waitres = sys_arch_sem_wait(SELECT_SEM_PTR(API_SELECT_CB_VAR_REF(select_cb).sem), msectimeout
2392:Middlewares/Third_Party/LwIP/src/api/sockets.c **** #if LWIP_NETCONN_SEM_PER_THREAD
2393:Middlewares/Third_Party/LwIP/src/api/sockets.c ****       waited = 1;
2394:Middlewares/Third_Party/LwIP/src/api/sockets.c **** #endif
2395:Middlewares/Third_Party/LwIP/src/api/sockets.c ****     }
2396:Middlewares/Third_Party/LwIP/src/api/sockets.c **** 
2397:Middlewares/Third_Party/LwIP/src/api/sockets.c ****     /* Decrease select_waiting for each socket we are interested in,
2398:Middlewares/Third_Party/LwIP/src/api/sockets.c ****        and check which events occurred while we waited. */
2399:Middlewares/Third_Party/LwIP/src/api/sockets.c ****     nready = lwip_pollscan(fds, nfds, LWIP_POLLSCAN_DEC_WAIT);
2400:Middlewares/Third_Party/LwIP/src/api/sockets.c **** 
2401:Middlewares/Third_Party/LwIP/src/api/sockets.c ****     lwip_unlink_select_cb(&API_SELECT_CB_VAR_REF(select_cb));
2402:Middlewares/Third_Party/LwIP/src/api/sockets.c **** 
2403:Middlewares/Third_Party/LwIP/src/api/sockets.c **** #if LWIP_NETCONN_SEM_PER_THREAD
2404:Middlewares/Third_Party/LwIP/src/api/sockets.c ****     if (select_cb.sem_signalled && (!waited || (waitres == SYS_ARCH_TIMEOUT))) {
2405:Middlewares/Third_Party/LwIP/src/api/sockets.c ****       /* don't leave the thread-local semaphore signalled */
2406:Middlewares/Third_Party/LwIP/src/api/sockets.c ****       sys_arch_sem_wait(API_SELECT_CB_VAR_REF(select_cb).sem, 1);
2407:Middlewares/Third_Party/LwIP/src/api/sockets.c ****     }
2408:Middlewares/Third_Party/LwIP/src/api/sockets.c **** #else /* LWIP_NETCONN_SEM_PER_THREAD */
2409:Middlewares/Third_Party/LwIP/src/api/sockets.c ****     sys_sem_free(&API_SELECT_CB_VAR_REF(select_cb).sem);
ARM GAS  /tmp/cc3tDhb2.s 			page 48


2410:Middlewares/Third_Party/LwIP/src/api/sockets.c **** #endif /* LWIP_NETCONN_SEM_PER_THREAD */
2411:Middlewares/Third_Party/LwIP/src/api/sockets.c ****     API_SELECT_CB_VAR_FREE(select_cb);
2412:Middlewares/Third_Party/LwIP/src/api/sockets.c **** 
2413:Middlewares/Third_Party/LwIP/src/api/sockets.c ****     if (nready < 0) {
2414:Middlewares/Third_Party/LwIP/src/api/sockets.c ****       /* This happens when a socket got closed while waiting */
2415:Middlewares/Third_Party/LwIP/src/api/sockets.c ****       lwip_poll_dec_sockets_used(fds, nfds);
2416:Middlewares/Third_Party/LwIP/src/api/sockets.c ****       return -1;
2417:Middlewares/Third_Party/LwIP/src/api/sockets.c ****     }
2418:Middlewares/Third_Party/LwIP/src/api/sockets.c **** 
2419:Middlewares/Third_Party/LwIP/src/api/sockets.c ****     if (waitres == SYS_ARCH_TIMEOUT) {
2420:Middlewares/Third_Party/LwIP/src/api/sockets.c ****       /* Timeout */
2421:Middlewares/Third_Party/LwIP/src/api/sockets.c ****       LWIP_DEBUGF(SOCKETS_DEBUG, ("lwip_poll: timeout expired\n"));
2422:Middlewares/Third_Party/LwIP/src/api/sockets.c ****       goto return_success;
2423:Middlewares/Third_Party/LwIP/src/api/sockets.c ****     }
2424:Middlewares/Third_Party/LwIP/src/api/sockets.c ****   }
2425:Middlewares/Third_Party/LwIP/src/api/sockets.c **** 
2426:Middlewares/Third_Party/LwIP/src/api/sockets.c ****   LWIP_DEBUGF(SOCKETS_DEBUG, ("lwip_poll: nready=%d\n", nready));
2427:Middlewares/Third_Party/LwIP/src/api/sockets.c **** return_success:
2428:Middlewares/Third_Party/LwIP/src/api/sockets.c ****   lwip_poll_dec_sockets_used(fds, nfds);
2429:Middlewares/Third_Party/LwIP/src/api/sockets.c ****   set_errno(0);
2430:Middlewares/Third_Party/LwIP/src/api/sockets.c ****   return nready;
2431:Middlewares/Third_Party/LwIP/src/api/sockets.c **** }
2432:Middlewares/Third_Party/LwIP/src/api/sockets.c **** 
2433:Middlewares/Third_Party/LwIP/src/api/sockets.c **** /**
2434:Middlewares/Third_Party/LwIP/src/api/sockets.c ****  * Check whether event_callback should wake up a thread waiting in
2435:Middlewares/Third_Party/LwIP/src/api/sockets.c ****  * lwip_poll.
2436:Middlewares/Third_Party/LwIP/src/api/sockets.c ****  */
2437:Middlewares/Third_Party/LwIP/src/api/sockets.c **** static int
2438:Middlewares/Third_Party/LwIP/src/api/sockets.c **** lwip_poll_should_wake(const struct lwip_select_cb *scb, int fd, int has_recvevent, int has_sendeven
2439:Middlewares/Third_Party/LwIP/src/api/sockets.c **** {
 274              		.loc 1 2439 1 is_stmt 1 view -0
 275              		.cfi_startproc
 276              		@ args = 4, pretend = 0, frame = 0
 277              		@ frame_needed = 0, uses_anonymous_args = 0
 278              		@ link register save eliminated.
 279              		.loc 1 2439 1 is_stmt 0 view .LVU67
 280 0000 F0B4     		push	{r4, r5, r6, r7}
 281              	.LCFI4:
 282              		.cfi_def_cfa_offset 16
 283              		.cfi_offset 4, -16
 284              		.cfi_offset 5, -12
 285              		.cfi_offset 6, -8
 286              		.cfi_offset 7, -4
 287 0002 049F     		ldr	r7, [sp, #16]
2440:Middlewares/Third_Party/LwIP/src/api/sockets.c ****   nfds_t fdi;
 288              		.loc 1 2440 3 is_stmt 1 view .LVU68
2441:Middlewares/Third_Party/LwIP/src/api/sockets.c ****   for (fdi = 0; fdi < scb->poll_nfds; fdi++) {
 289              		.loc 1 2441 3 view .LVU69
 290              	.LVL19:
 291              		.loc 1 2441 12 is_stmt 0 view .LVU70
 292 0004 0024     		movs	r4, #0
 293              		.loc 1 2441 3 view .LVU71
 294 0006 01E0     		b	.L22
 295              	.LVL20:
 296              	.L26:
 297              	.LBB2:
2442:Middlewares/Third_Party/LwIP/src/api/sockets.c ****     const struct pollfd *pollfd = &scb->poll_fds[fdi];
ARM GAS  /tmp/cc3tDhb2.s 			page 49


2443:Middlewares/Third_Party/LwIP/src/api/sockets.c ****     if (pollfd->fd == fd) {
2444:Middlewares/Third_Party/LwIP/src/api/sockets.c ****       /* Do not update pollfd->revents right here;
2445:Middlewares/Third_Party/LwIP/src/api/sockets.c ****          that would be a data race because lwip_pollscan
2446:Middlewares/Third_Party/LwIP/src/api/sockets.c ****          accesses revents without protecting. */
2447:Middlewares/Third_Party/LwIP/src/api/sockets.c ****       if (has_recvevent && (pollfd->events & POLLIN) != 0) {
2448:Middlewares/Third_Party/LwIP/src/api/sockets.c ****         return 1;
2449:Middlewares/Third_Party/LwIP/src/api/sockets.c ****       }
2450:Middlewares/Third_Party/LwIP/src/api/sockets.c ****       if (has_sendevent && (pollfd->events & POLLOUT) != 0) {
2451:Middlewares/Third_Party/LwIP/src/api/sockets.c ****         return 1;
2452:Middlewares/Third_Party/LwIP/src/api/sockets.c ****       }
2453:Middlewares/Third_Party/LwIP/src/api/sockets.c ****       if (has_errevent) {
 298              		.loc 1 2453 7 is_stmt 1 view .LVU72
 299              		.loc 1 2453 10 is_stmt 0 view .LVU73
 300 0008 F7B9     		cbnz	r7, .L30
 301              	.L23:
 302              	.LBE2:
2441:Middlewares/Third_Party/LwIP/src/api/sockets.c ****   for (fdi = 0; fdi < scb->poll_nfds; fdi++) {
 303              		.loc 1 2441 39 is_stmt 1 discriminator 2 view .LVU74
2441:Middlewares/Third_Party/LwIP/src/api/sockets.c ****   for (fdi = 0; fdi < scb->poll_nfds; fdi++) {
 304              		.loc 1 2441 42 is_stmt 0 discriminator 2 view .LVU75
 305 000a 0134     		adds	r4, r4, #1
 306              	.LVL21:
 307              	.L22:
2441:Middlewares/Third_Party/LwIP/src/api/sockets.c ****   for (fdi = 0; fdi < scb->poll_nfds; fdi++) {
 308              		.loc 1 2441 17 is_stmt 1 discriminator 1 view .LVU76
2441:Middlewares/Third_Party/LwIP/src/api/sockets.c ****   for (fdi = 0; fdi < scb->poll_nfds; fdi++) {
 309              		.loc 1 2441 26 is_stmt 0 discriminator 1 view .LVU77
 310 000c 8569     		ldr	r5, [r0, #24]
2441:Middlewares/Third_Party/LwIP/src/api/sockets.c ****   for (fdi = 0; fdi < scb->poll_nfds; fdi++) {
 311              		.loc 1 2441 3 discriminator 1 view .LVU78
 312 000e A542     		cmp	r5, r4
 313 0010 15D9     		bls	.L32
 314              	.LBB3:
2442:Middlewares/Third_Party/LwIP/src/api/sockets.c ****     const struct pollfd *pollfd = &scb->poll_fds[fdi];
 315              		.loc 1 2442 5 is_stmt 1 view .LVU79
2442:Middlewares/Third_Party/LwIP/src/api/sockets.c ****     const struct pollfd *pollfd = &scb->poll_fds[fdi];
 316              		.loc 1 2442 39 is_stmt 0 view .LVU80
 317 0012 4569     		ldr	r5, [r0, #20]
2442:Middlewares/Third_Party/LwIP/src/api/sockets.c ****     const struct pollfd *pollfd = &scb->poll_fds[fdi];
 318              		.loc 1 2442 26 view .LVU81
 319 0014 05EBC406 		add	r6, r5, r4, lsl #3
 320              	.LVL22:
2443:Middlewares/Third_Party/LwIP/src/api/sockets.c ****       /* Do not update pollfd->revents right here;
 321              		.loc 1 2443 5 is_stmt 1 view .LVU82
2443:Middlewares/Third_Party/LwIP/src/api/sockets.c ****       /* Do not update pollfd->revents right here;
 322              		.loc 1 2443 15 is_stmt 0 view .LVU83
 323 0018 55F83450 		ldr	r5, [r5, r4, lsl #3]
2443:Middlewares/Third_Party/LwIP/src/api/sockets.c ****       /* Do not update pollfd->revents right here;
 324              		.loc 1 2443 8 view .LVU84
 325 001c 8D42     		cmp	r5, r1
 326 001e F4D1     		bne	.L23
2447:Middlewares/Third_Party/LwIP/src/api/sockets.c ****         return 1;
 327              		.loc 1 2447 7 is_stmt 1 view .LVU85
2447:Middlewares/Third_Party/LwIP/src/api/sockets.c ****         return 1;
 328              		.loc 1 2447 10 is_stmt 0 view .LVU86
 329 0020 22B1     		cbz	r2, .L24
2447:Middlewares/Third_Party/LwIP/src/api/sockets.c ****         return 1;
ARM GAS  /tmp/cc3tDhb2.s 			page 50


 330              		.loc 1 2447 35 discriminator 1 view .LVU87
 331 0022 B6F90450 		ldrsh	r5, [r6, #4]
2447:Middlewares/Third_Party/LwIP/src/api/sockets.c ****         return 1;
 332              		.loc 1 2447 25 discriminator 1 view .LVU88
 333 0026 15F0010F 		tst	r5, #1
 334 002a 0BD1     		bne	.L28
 335              	.L24:
2450:Middlewares/Third_Party/LwIP/src/api/sockets.c ****         return 1;
 336              		.loc 1 2450 7 is_stmt 1 view .LVU89
2450:Middlewares/Third_Party/LwIP/src/api/sockets.c ****         return 1;
 337              		.loc 1 2450 10 is_stmt 0 view .LVU90
 338 002c 002B     		cmp	r3, #0
 339 002e EBD0     		beq	.L26
2450:Middlewares/Third_Party/LwIP/src/api/sockets.c ****         return 1;
 340              		.loc 1 2450 35 discriminator 1 view .LVU91
 341 0030 B6F90450 		ldrsh	r5, [r6, #4]
2450:Middlewares/Third_Party/LwIP/src/api/sockets.c ****         return 1;
 342              		.loc 1 2450 25 discriminator 1 view .LVU92
 343 0034 15F0020F 		tst	r5, #2
 344 0038 E6D0     		beq	.L26
2451:Middlewares/Third_Party/LwIP/src/api/sockets.c ****       }
 345              		.loc 1 2451 16 view .LVU93
 346 003a 0120     		movs	r0, #1
 347              	.LVL23:
2451:Middlewares/Third_Party/LwIP/src/api/sockets.c ****       }
 348              		.loc 1 2451 16 view .LVU94
 349 003c 00E0     		b	.L21
 350              	.LVL24:
 351              	.L32:
2451:Middlewares/Third_Party/LwIP/src/api/sockets.c ****       }
 352              		.loc 1 2451 16 view .LVU95
 353              	.LBE3:
2454:Middlewares/Third_Party/LwIP/src/api/sockets.c ****         /* POLLERR is output only. */
2455:Middlewares/Third_Party/LwIP/src/api/sockets.c ****         return 1;
2456:Middlewares/Third_Party/LwIP/src/api/sockets.c ****       }
2457:Middlewares/Third_Party/LwIP/src/api/sockets.c ****     }
2458:Middlewares/Third_Party/LwIP/src/api/sockets.c ****   }
2459:Middlewares/Third_Party/LwIP/src/api/sockets.c ****   return 0;
 354              		.loc 1 2459 10 view .LVU96
 355 003e 0020     		movs	r0, #0
 356              	.LVL25:
 357              	.L21:
2460:Middlewares/Third_Party/LwIP/src/api/sockets.c **** }
 358              		.loc 1 2460 1 view .LVU97
 359 0040 F0BC     		pop	{r4, r5, r6, r7}
 360              	.LCFI5:
 361              		.cfi_remember_state
 362              		.cfi_restore 7
 363              		.cfi_restore 6
 364              		.cfi_restore 5
 365              		.cfi_restore 4
 366              		.cfi_def_cfa_offset 0
 367              	.LVL26:
 368              		.loc 1 2460 1 view .LVU98
 369 0042 7047     		bx	lr
 370              	.LVL27:
 371              	.L28:
ARM GAS  /tmp/cc3tDhb2.s 			page 51


 372              	.LCFI6:
 373              		.cfi_restore_state
 374              	.LBB4:
2448:Middlewares/Third_Party/LwIP/src/api/sockets.c ****       }
 375              		.loc 1 2448 16 view .LVU99
 376 0044 0120     		movs	r0, #1
 377              	.LVL28:
2448:Middlewares/Third_Party/LwIP/src/api/sockets.c ****       }
 378              		.loc 1 2448 16 view .LVU100
 379 0046 FBE7     		b	.L21
 380              	.LVL29:
 381              	.L30:
2455:Middlewares/Third_Party/LwIP/src/api/sockets.c ****       }
 382              		.loc 1 2455 16 view .LVU101
 383 0048 0120     		movs	r0, #1
 384              	.LVL30:
2455:Middlewares/Third_Party/LwIP/src/api/sockets.c ****       }
 385              		.loc 1 2455 16 view .LVU102
 386 004a F9E7     		b	.L21
 387              	.LBE4:
 388              		.cfi_endproc
 389              	.LFE197:
 391              		.section	.rodata.lwip_sockopt_to_ipopt.str1.4,"aMS",%progbits,1
 392              		.align	2
 393              	.LC0:
 394 0000 4D696464 		.ascii	"Middlewares/Third_Party/LwIP/src/api/sockets.c\000"
 394      6C657761 
 394      7265732F 
 394      54686972 
 394      645F5061 
 395 002f 00       		.align	2
 396              	.LC1:
 397 0030 556E6B6E 		.ascii	"Unknown socket option\000"
 397      6F776E20 
 397      736F636B 
 397      6574206F 
 397      7074696F 
 398 0046 0000     		.align	2
 399              	.LC2:
 400 0048 41737365 		.ascii	"Assertion \"%s\" failed at line %d in %s\012\000"
 400      7274696F 
 400      6E202225 
 400      73222066 
 400      61696C65 
 401              		.section	.text.lwip_sockopt_to_ipopt,"ax",%progbits
 402              		.align	1
 403              		.syntax unified
 404              		.thumb
 405              		.thumb_func
 406              		.fpu fpv4-sp-d16
 408              	lwip_sockopt_to_ipopt:
 409              	.LVL31:
 410              	.LFB205:
2461:Middlewares/Third_Party/LwIP/src/api/sockets.c **** #endif /* LWIP_SOCKET_POLL */
2462:Middlewares/Third_Party/LwIP/src/api/sockets.c **** 
2463:Middlewares/Third_Party/LwIP/src/api/sockets.c **** #if LWIP_SOCKET_SELECT || LWIP_SOCKET_POLL
2464:Middlewares/Third_Party/LwIP/src/api/sockets.c **** /**
ARM GAS  /tmp/cc3tDhb2.s 			page 52


2465:Middlewares/Third_Party/LwIP/src/api/sockets.c ****  * Callback registered in the netconn layer for each socket-netconn.
2466:Middlewares/Third_Party/LwIP/src/api/sockets.c ****  * Processes recvevent (data available) and wakes up tasks waiting for select.
2467:Middlewares/Third_Party/LwIP/src/api/sockets.c ****  *
2468:Middlewares/Third_Party/LwIP/src/api/sockets.c ****  * @note for LWIP_TCPIP_CORE_LOCKING any caller of this function
2469:Middlewares/Third_Party/LwIP/src/api/sockets.c ****  * must have the core lock held when signaling the following events
2470:Middlewares/Third_Party/LwIP/src/api/sockets.c ****  * as they might cause select_list_cb to be checked:
2471:Middlewares/Third_Party/LwIP/src/api/sockets.c ****  *   NETCONN_EVT_RCVPLUS
2472:Middlewares/Third_Party/LwIP/src/api/sockets.c ****  *   NETCONN_EVT_SENDPLUS
2473:Middlewares/Third_Party/LwIP/src/api/sockets.c ****  *   NETCONN_EVT_ERROR
2474:Middlewares/Third_Party/LwIP/src/api/sockets.c ****  * This requirement will be asserted in select_check_waiters()
2475:Middlewares/Third_Party/LwIP/src/api/sockets.c ****  */
2476:Middlewares/Third_Party/LwIP/src/api/sockets.c **** static void
2477:Middlewares/Third_Party/LwIP/src/api/sockets.c **** event_callback(struct netconn *conn, enum netconn_evt evt, u16_t len)
2478:Middlewares/Third_Party/LwIP/src/api/sockets.c **** {
2479:Middlewares/Third_Party/LwIP/src/api/sockets.c ****   int s, check_waiters;
2480:Middlewares/Third_Party/LwIP/src/api/sockets.c ****   struct lwip_sock *sock;
2481:Middlewares/Third_Party/LwIP/src/api/sockets.c ****   SYS_ARCH_DECL_PROTECT(lev);
2482:Middlewares/Third_Party/LwIP/src/api/sockets.c **** 
2483:Middlewares/Third_Party/LwIP/src/api/sockets.c ****   LWIP_UNUSED_ARG(len);
2484:Middlewares/Third_Party/LwIP/src/api/sockets.c **** 
2485:Middlewares/Third_Party/LwIP/src/api/sockets.c ****   /* Get socket */
2486:Middlewares/Third_Party/LwIP/src/api/sockets.c ****   if (conn) {
2487:Middlewares/Third_Party/LwIP/src/api/sockets.c ****     s = conn->socket;
2488:Middlewares/Third_Party/LwIP/src/api/sockets.c ****     if (s < 0) {
2489:Middlewares/Third_Party/LwIP/src/api/sockets.c ****       /* Data comes in right away after an accept, even though
2490:Middlewares/Third_Party/LwIP/src/api/sockets.c ****        * the server task might not have created a new socket yet.
2491:Middlewares/Third_Party/LwIP/src/api/sockets.c ****        * Just count down (or up) if that's the case and we
2492:Middlewares/Third_Party/LwIP/src/api/sockets.c ****        * will use the data later. Note that only receive events
2493:Middlewares/Third_Party/LwIP/src/api/sockets.c ****        * can happen before the new socket is set up. */
2494:Middlewares/Third_Party/LwIP/src/api/sockets.c ****       SYS_ARCH_PROTECT(lev);
2495:Middlewares/Third_Party/LwIP/src/api/sockets.c ****       if (conn->socket < 0) {
2496:Middlewares/Third_Party/LwIP/src/api/sockets.c ****         if (evt == NETCONN_EVT_RCVPLUS) {
2497:Middlewares/Third_Party/LwIP/src/api/sockets.c ****           /* conn->socket is -1 on initialization
2498:Middlewares/Third_Party/LwIP/src/api/sockets.c ****              lwip_accept adjusts sock->recvevent if conn->socket < -1 */
2499:Middlewares/Third_Party/LwIP/src/api/sockets.c ****           conn->socket--;
2500:Middlewares/Third_Party/LwIP/src/api/sockets.c ****         }
2501:Middlewares/Third_Party/LwIP/src/api/sockets.c ****         SYS_ARCH_UNPROTECT(lev);
2502:Middlewares/Third_Party/LwIP/src/api/sockets.c ****         return;
2503:Middlewares/Third_Party/LwIP/src/api/sockets.c ****       }
2504:Middlewares/Third_Party/LwIP/src/api/sockets.c ****       s = conn->socket;
2505:Middlewares/Third_Party/LwIP/src/api/sockets.c ****       SYS_ARCH_UNPROTECT(lev);
2506:Middlewares/Third_Party/LwIP/src/api/sockets.c ****     }
2507:Middlewares/Third_Party/LwIP/src/api/sockets.c **** 
2508:Middlewares/Third_Party/LwIP/src/api/sockets.c ****     sock = get_socket(s);
2509:Middlewares/Third_Party/LwIP/src/api/sockets.c ****     if (!sock) {
2510:Middlewares/Third_Party/LwIP/src/api/sockets.c ****       return;
2511:Middlewares/Third_Party/LwIP/src/api/sockets.c ****     }
2512:Middlewares/Third_Party/LwIP/src/api/sockets.c ****   } else {
2513:Middlewares/Third_Party/LwIP/src/api/sockets.c ****     return;
2514:Middlewares/Third_Party/LwIP/src/api/sockets.c ****   }
2515:Middlewares/Third_Party/LwIP/src/api/sockets.c **** 
2516:Middlewares/Third_Party/LwIP/src/api/sockets.c ****   check_waiters = 1;
2517:Middlewares/Third_Party/LwIP/src/api/sockets.c ****   SYS_ARCH_PROTECT(lev);
2518:Middlewares/Third_Party/LwIP/src/api/sockets.c ****   /* Set event as required */
2519:Middlewares/Third_Party/LwIP/src/api/sockets.c ****   switch (evt) {
2520:Middlewares/Third_Party/LwIP/src/api/sockets.c ****     case NETCONN_EVT_RCVPLUS:
2521:Middlewares/Third_Party/LwIP/src/api/sockets.c ****       sock->rcvevent++;
ARM GAS  /tmp/cc3tDhb2.s 			page 53


2522:Middlewares/Third_Party/LwIP/src/api/sockets.c ****       if (sock->rcvevent > 1) {
2523:Middlewares/Third_Party/LwIP/src/api/sockets.c ****         check_waiters = 0;
2524:Middlewares/Third_Party/LwIP/src/api/sockets.c ****       }
2525:Middlewares/Third_Party/LwIP/src/api/sockets.c ****       break;
2526:Middlewares/Third_Party/LwIP/src/api/sockets.c ****     case NETCONN_EVT_RCVMINUS:
2527:Middlewares/Third_Party/LwIP/src/api/sockets.c ****       sock->rcvevent--;
2528:Middlewares/Third_Party/LwIP/src/api/sockets.c ****       check_waiters = 0;
2529:Middlewares/Third_Party/LwIP/src/api/sockets.c ****       break;
2530:Middlewares/Third_Party/LwIP/src/api/sockets.c ****     case NETCONN_EVT_SENDPLUS:
2531:Middlewares/Third_Party/LwIP/src/api/sockets.c ****       if (sock->sendevent) {
2532:Middlewares/Third_Party/LwIP/src/api/sockets.c ****         check_waiters = 0;
2533:Middlewares/Third_Party/LwIP/src/api/sockets.c ****       }
2534:Middlewares/Third_Party/LwIP/src/api/sockets.c ****       sock->sendevent = 1;
2535:Middlewares/Third_Party/LwIP/src/api/sockets.c ****       break;
2536:Middlewares/Third_Party/LwIP/src/api/sockets.c ****     case NETCONN_EVT_SENDMINUS:
2537:Middlewares/Third_Party/LwIP/src/api/sockets.c ****       sock->sendevent = 0;
2538:Middlewares/Third_Party/LwIP/src/api/sockets.c ****       check_waiters = 0;
2539:Middlewares/Third_Party/LwIP/src/api/sockets.c ****       break;
2540:Middlewares/Third_Party/LwIP/src/api/sockets.c ****     case NETCONN_EVT_ERROR:
2541:Middlewares/Third_Party/LwIP/src/api/sockets.c ****       sock->errevent = 1;
2542:Middlewares/Third_Party/LwIP/src/api/sockets.c ****       break;
2543:Middlewares/Third_Party/LwIP/src/api/sockets.c ****     default:
2544:Middlewares/Third_Party/LwIP/src/api/sockets.c ****       LWIP_ASSERT("unknown event", 0);
2545:Middlewares/Third_Party/LwIP/src/api/sockets.c ****       break;
2546:Middlewares/Third_Party/LwIP/src/api/sockets.c ****   }
2547:Middlewares/Third_Party/LwIP/src/api/sockets.c **** 
