ARM GAS  /tmp/ccoUuMsr.s 			page 1


   1              		.cpu cortex-m4
   2              		.eabi_attribute 27, 1
   3              		.eabi_attribute 28, 1
   4              		.eabi_attribute 20, 1
   5              		.eabi_attribute 21, 1
   6              		.eabi_attribute 23, 3
   7              		.eabi_attribute 24, 1
   8              		.eabi_attribute 25, 1
   9              		.eabi_attribute 26, 1
  10              		.eabi_attribute 30, 1
  11              		.eabi_attribute 34, 1
  12              		.eabi_attribute 18, 4
  13              		.file	"tcp.c"
  14              		.text
  15              	.Ltext0:
  16              		.cfi_sections	.debug_frame
  17              		.section	.text.tcp_new_port,"ax",%progbits
  18              		.align	1
  19              		.arch armv7e-m
  20              		.syntax unified
  21              		.thumb
  22              		.thumb_func
  23              		.fpu fpv4-sp-d16
  25              	tcp_new_port:
  26              	.LFB174:
  27              		.file 1 "Middlewares/Third_Party/LwIP/src/core/tcp.c"
   1:Middlewares/Third_Party/LwIP/src/core/tcp.c **** /**
   2:Middlewares/Third_Party/LwIP/src/core/tcp.c ****  * @file
   3:Middlewares/Third_Party/LwIP/src/core/tcp.c ****  * Transmission Control Protocol for IP
   4:Middlewares/Third_Party/LwIP/src/core/tcp.c ****  * See also @ref tcp_raw
   5:Middlewares/Third_Party/LwIP/src/core/tcp.c ****  *
   6:Middlewares/Third_Party/LwIP/src/core/tcp.c ****  * @defgroup tcp_raw TCP
   7:Middlewares/Third_Party/LwIP/src/core/tcp.c ****  * @ingroup callbackstyle_api
   8:Middlewares/Third_Party/LwIP/src/core/tcp.c ****  * Transmission Control Protocol for IP\n
   9:Middlewares/Third_Party/LwIP/src/core/tcp.c ****  * @see @ref api
  10:Middlewares/Third_Party/LwIP/src/core/tcp.c ****  *
  11:Middlewares/Third_Party/LwIP/src/core/tcp.c ****  * Common functions for the TCP implementation, such as functions
  12:Middlewares/Third_Party/LwIP/src/core/tcp.c ****  * for manipulating the data structures and the TCP timer functions. TCP functions
  13:Middlewares/Third_Party/LwIP/src/core/tcp.c ****  * related to input and output is found in tcp_in.c and tcp_out.c respectively.\n
  14:Middlewares/Third_Party/LwIP/src/core/tcp.c ****  * 
  15:Middlewares/Third_Party/LwIP/src/core/tcp.c ****  * TCP connection setup
  16:Middlewares/Third_Party/LwIP/src/core/tcp.c ****  * --------------------
  17:Middlewares/Third_Party/LwIP/src/core/tcp.c ****  * The functions used for setting up connections is similar to that of
  18:Middlewares/Third_Party/LwIP/src/core/tcp.c ****  * the sequential API and of the BSD socket API. A new TCP connection
  19:Middlewares/Third_Party/LwIP/src/core/tcp.c ****  * identifier (i.e., a protocol control block - PCB) is created with the
  20:Middlewares/Third_Party/LwIP/src/core/tcp.c ****  * tcp_new() function. This PCB can then be either set to listen for new
  21:Middlewares/Third_Party/LwIP/src/core/tcp.c ****  * incoming connections or be explicitly connected to another host.
  22:Middlewares/Third_Party/LwIP/src/core/tcp.c ****  * - tcp_new()
  23:Middlewares/Third_Party/LwIP/src/core/tcp.c ****  * - tcp_bind()
  24:Middlewares/Third_Party/LwIP/src/core/tcp.c ****  * - tcp_listen() and tcp_listen_with_backlog()
  25:Middlewares/Third_Party/LwIP/src/core/tcp.c ****  * - tcp_accept()
  26:Middlewares/Third_Party/LwIP/src/core/tcp.c ****  * - tcp_connect()
  27:Middlewares/Third_Party/LwIP/src/core/tcp.c ****  * 
  28:Middlewares/Third_Party/LwIP/src/core/tcp.c ****  * Sending TCP data
  29:Middlewares/Third_Party/LwIP/src/core/tcp.c ****  * ----------------
  30:Middlewares/Third_Party/LwIP/src/core/tcp.c ****  * TCP data is sent by enqueueing the data with a call to tcp_write() and
  31:Middlewares/Third_Party/LwIP/src/core/tcp.c ****  * triggering to send by calling tcp_output(). When the data is successfully
ARM GAS  /tmp/ccoUuMsr.s 			page 2


  32:Middlewares/Third_Party/LwIP/src/core/tcp.c ****  * transmitted to the remote host, the application will be notified with a
  33:Middlewares/Third_Party/LwIP/src/core/tcp.c ****  * call to a specified callback function.
  34:Middlewares/Third_Party/LwIP/src/core/tcp.c ****  * - tcp_write()
  35:Middlewares/Third_Party/LwIP/src/core/tcp.c ****  * - tcp_output()
  36:Middlewares/Third_Party/LwIP/src/core/tcp.c ****  * - tcp_sent()
  37:Middlewares/Third_Party/LwIP/src/core/tcp.c ****  * 
  38:Middlewares/Third_Party/LwIP/src/core/tcp.c ****  * Receiving TCP data
  39:Middlewares/Third_Party/LwIP/src/core/tcp.c ****  * ------------------
  40:Middlewares/Third_Party/LwIP/src/core/tcp.c ****  * TCP data reception is callback based - an application specified
  41:Middlewares/Third_Party/LwIP/src/core/tcp.c ****  * callback function is called when new data arrives. When the
  42:Middlewares/Third_Party/LwIP/src/core/tcp.c ****  * application has taken the data, it has to call the tcp_recved()
  43:Middlewares/Third_Party/LwIP/src/core/tcp.c ****  * function to indicate that TCP can advertise increase the receive
  44:Middlewares/Third_Party/LwIP/src/core/tcp.c ****  * window.
  45:Middlewares/Third_Party/LwIP/src/core/tcp.c ****  * - tcp_recv()
  46:Middlewares/Third_Party/LwIP/src/core/tcp.c ****  * - tcp_recved()
  47:Middlewares/Third_Party/LwIP/src/core/tcp.c ****  * 
  48:Middlewares/Third_Party/LwIP/src/core/tcp.c ****  * Application polling
  49:Middlewares/Third_Party/LwIP/src/core/tcp.c ****  * -------------------
  50:Middlewares/Third_Party/LwIP/src/core/tcp.c ****  * When a connection is idle (i.e., no data is either transmitted or
  51:Middlewares/Third_Party/LwIP/src/core/tcp.c ****  * received), lwIP will repeatedly poll the application by calling a
  52:Middlewares/Third_Party/LwIP/src/core/tcp.c ****  * specified callback function. This can be used either as a watchdog
  53:Middlewares/Third_Party/LwIP/src/core/tcp.c ****  * timer for killing connections that have stayed idle for too long, or
  54:Middlewares/Third_Party/LwIP/src/core/tcp.c ****  * as a method of waiting for memory to become available. For instance,
  55:Middlewares/Third_Party/LwIP/src/core/tcp.c ****  * if a call to tcp_write() has failed because memory wasn't available,
  56:Middlewares/Third_Party/LwIP/src/core/tcp.c ****  * the application may use the polling functionality to call tcp_write()
  57:Middlewares/Third_Party/LwIP/src/core/tcp.c ****  * again when the connection has been idle for a while.
  58:Middlewares/Third_Party/LwIP/src/core/tcp.c ****  * - tcp_poll()
  59:Middlewares/Third_Party/LwIP/src/core/tcp.c ****  *
  60:Middlewares/Third_Party/LwIP/src/core/tcp.c ****  * Closing and aborting connections
  61:Middlewares/Third_Party/LwIP/src/core/tcp.c ****  * --------------------------------
  62:Middlewares/Third_Party/LwIP/src/core/tcp.c ****  * - tcp_close()
  63:Middlewares/Third_Party/LwIP/src/core/tcp.c ****  * - tcp_abort()
  64:Middlewares/Third_Party/LwIP/src/core/tcp.c ****  * - tcp_err()
  65:Middlewares/Third_Party/LwIP/src/core/tcp.c ****  * 
  66:Middlewares/Third_Party/LwIP/src/core/tcp.c ****  */
  67:Middlewares/Third_Party/LwIP/src/core/tcp.c **** 
  68:Middlewares/Third_Party/LwIP/src/core/tcp.c **** /*
  69:Middlewares/Third_Party/LwIP/src/core/tcp.c ****  * Copyright (c) 2001-2004 Swedish Institute of Computer Science.
  70:Middlewares/Third_Party/LwIP/src/core/tcp.c ****  * All rights reserved.
  71:Middlewares/Third_Party/LwIP/src/core/tcp.c ****  *
  72:Middlewares/Third_Party/LwIP/src/core/tcp.c ****  * Redistribution and use in source and binary forms, with or without modification,
  73:Middlewares/Third_Party/LwIP/src/core/tcp.c ****  * are permitted provided that the following conditions are met:
  74:Middlewares/Third_Party/LwIP/src/core/tcp.c ****  *
  75:Middlewares/Third_Party/LwIP/src/core/tcp.c ****  * 1. Redistributions of source code must retain the above copyright notice,
  76:Middlewares/Third_Party/LwIP/src/core/tcp.c ****  *    this list of conditions and the following disclaimer.
  77:Middlewares/Third_Party/LwIP/src/core/tcp.c ****  * 2. Redistributions in binary form must reproduce the above copyright notice,
  78:Middlewares/Third_Party/LwIP/src/core/tcp.c ****  *    this list of conditions and the following disclaimer in the documentation
  79:Middlewares/Third_Party/LwIP/src/core/tcp.c ****  *    and/or other materials provided with the distribution.
  80:Middlewares/Third_Party/LwIP/src/core/tcp.c ****  * 3. The name of the author may not be used to endorse or promote products
  81:Middlewares/Third_Party/LwIP/src/core/tcp.c ****  *    derived from this software without specific prior written permission.
  82:Middlewares/Third_Party/LwIP/src/core/tcp.c ****  *
  83:Middlewares/Third_Party/LwIP/src/core/tcp.c ****  * THIS SOFTWARE IS PROVIDED BY THE AUTHOR ``AS IS'' AND ANY EXPRESS OR IMPLIED
  84:Middlewares/Third_Party/LwIP/src/core/tcp.c ****  * WARRANTIES, INCLUDING, BUT NOT LIMITED TO, THE IMPLIED WARRANTIES OF
  85:Middlewares/Third_Party/LwIP/src/core/tcp.c ****  * MERCHANTABILITY AND FITNESS FOR A PARTICULAR PURPOSE ARE DISCLAIMED. IN NO EVENT
  86:Middlewares/Third_Party/LwIP/src/core/tcp.c ****  * SHALL THE AUTHOR BE LIABLE FOR ANY DIRECT, INDIRECT, INCIDENTAL, SPECIAL,
  87:Middlewares/Third_Party/LwIP/src/core/tcp.c ****  * EXEMPLARY, OR CONSEQUENTIAL DAMAGES (INCLUDING, BUT NOT LIMITED TO, PROCUREMENT
  88:Middlewares/Third_Party/LwIP/src/core/tcp.c ****  * OF SUBSTITUTE GOODS OR SERVICES; LOSS OF USE, DATA, OR PROFITS; OR BUSINESS
ARM GAS  /tmp/ccoUuMsr.s 			page 3


  89:Middlewares/Third_Party/LwIP/src/core/tcp.c ****  * INTERRUPTION) HOWEVER CAUSED AND ON ANY THEORY OF LIABILITY, WHETHER IN
  90:Middlewares/Third_Party/LwIP/src/core/tcp.c ****  * CONTRACT, STRICT LIABILITY, OR TORT (INCLUDING NEGLIGENCE OR OTHERWISE) ARISING
  91:Middlewares/Third_Party/LwIP/src/core/tcp.c ****  * IN ANY WAY OUT OF THE USE OF THIS SOFTWARE, EVEN IF ADVISED OF THE POSSIBILITY
  92:Middlewares/Third_Party/LwIP/src/core/tcp.c ****  * OF SUCH DAMAGE.
  93:Middlewares/Third_Party/LwIP/src/core/tcp.c ****  *
  94:Middlewares/Third_Party/LwIP/src/core/tcp.c ****  * This file is part of the lwIP TCP/IP stack.
  95:Middlewares/Third_Party/LwIP/src/core/tcp.c ****  *
  96:Middlewares/Third_Party/LwIP/src/core/tcp.c ****  * Author: Adam Dunkels <adam@sics.se>
  97:Middlewares/Third_Party/LwIP/src/core/tcp.c ****  *
  98:Middlewares/Third_Party/LwIP/src/core/tcp.c ****  */
  99:Middlewares/Third_Party/LwIP/src/core/tcp.c **** 
 100:Middlewares/Third_Party/LwIP/src/core/tcp.c **** #include "lwip/opt.h"
 101:Middlewares/Third_Party/LwIP/src/core/tcp.c **** 
 102:Middlewares/Third_Party/LwIP/src/core/tcp.c **** #if LWIP_TCP /* don't build if not configured for use in lwipopts.h */
 103:Middlewares/Third_Party/LwIP/src/core/tcp.c **** 
 104:Middlewares/Third_Party/LwIP/src/core/tcp.c **** #include "lwip/def.h"
 105:Middlewares/Third_Party/LwIP/src/core/tcp.c **** #include "lwip/mem.h"
 106:Middlewares/Third_Party/LwIP/src/core/tcp.c **** #include "lwip/memp.h"
 107:Middlewares/Third_Party/LwIP/src/core/tcp.c **** #include "lwip/tcp.h"
 108:Middlewares/Third_Party/LwIP/src/core/tcp.c **** #include "lwip/priv/tcp_priv.h"
 109:Middlewares/Third_Party/LwIP/src/core/tcp.c **** #include "lwip/debug.h"
 110:Middlewares/Third_Party/LwIP/src/core/tcp.c **** #include "lwip/stats.h"
 111:Middlewares/Third_Party/LwIP/src/core/tcp.c **** #include "lwip/ip6.h"
 112:Middlewares/Third_Party/LwIP/src/core/tcp.c **** #include "lwip/ip6_addr.h"
 113:Middlewares/Third_Party/LwIP/src/core/tcp.c **** #include "lwip/nd6.h"
 114:Middlewares/Third_Party/LwIP/src/core/tcp.c **** 
 115:Middlewares/Third_Party/LwIP/src/core/tcp.c **** #include <string.h>
 116:Middlewares/Third_Party/LwIP/src/core/tcp.c **** 
 117:Middlewares/Third_Party/LwIP/src/core/tcp.c **** #ifdef LWIP_HOOK_FILENAME
 118:Middlewares/Third_Party/LwIP/src/core/tcp.c **** #include LWIP_HOOK_FILENAME
 119:Middlewares/Third_Party/LwIP/src/core/tcp.c **** #endif
 120:Middlewares/Third_Party/LwIP/src/core/tcp.c **** 
 121:Middlewares/Third_Party/LwIP/src/core/tcp.c **** #ifndef TCP_LOCAL_PORT_RANGE_START
 122:Middlewares/Third_Party/LwIP/src/core/tcp.c **** /* From http://www.iana.org/assignments/port-numbers:
 123:Middlewares/Third_Party/LwIP/src/core/tcp.c ****    "The Dynamic and/or Private Ports are those from 49152 through 65535" */
 124:Middlewares/Third_Party/LwIP/src/core/tcp.c **** #define TCP_LOCAL_PORT_RANGE_START        0xc000
 125:Middlewares/Third_Party/LwIP/src/core/tcp.c **** #define TCP_LOCAL_PORT_RANGE_END          0xffff
 126:Middlewares/Third_Party/LwIP/src/core/tcp.c **** #define TCP_ENSURE_LOCAL_PORT_RANGE(port) ((u16_t)(((port) & (u16_t)~TCP_LOCAL_PORT_RANGE_START) + 
 127:Middlewares/Third_Party/LwIP/src/core/tcp.c **** #endif
 128:Middlewares/Third_Party/LwIP/src/core/tcp.c **** 
 129:Middlewares/Third_Party/LwIP/src/core/tcp.c **** #if LWIP_TCP_KEEPALIVE
 130:Middlewares/Third_Party/LwIP/src/core/tcp.c **** #define TCP_KEEP_DUR(pcb)   ((pcb)->keep_cnt * (pcb)->keep_intvl)
 131:Middlewares/Third_Party/LwIP/src/core/tcp.c **** #define TCP_KEEP_INTVL(pcb) ((pcb)->keep_intvl)
 132:Middlewares/Third_Party/LwIP/src/core/tcp.c **** #else /* LWIP_TCP_KEEPALIVE */
 133:Middlewares/Third_Party/LwIP/src/core/tcp.c **** #define TCP_KEEP_DUR(pcb)   TCP_MAXIDLE
 134:Middlewares/Third_Party/LwIP/src/core/tcp.c **** #define TCP_KEEP_INTVL(pcb) TCP_KEEPINTVL_DEFAULT
 135:Middlewares/Third_Party/LwIP/src/core/tcp.c **** #endif /* LWIP_TCP_KEEPALIVE */
 136:Middlewares/Third_Party/LwIP/src/core/tcp.c **** 
 137:Middlewares/Third_Party/LwIP/src/core/tcp.c **** /* As initial send MSS, we use TCP_MSS but limit it to 536. */
 138:Middlewares/Third_Party/LwIP/src/core/tcp.c **** #if TCP_MSS > 536
 139:Middlewares/Third_Party/LwIP/src/core/tcp.c **** #define INITIAL_MSS 536
 140:Middlewares/Third_Party/LwIP/src/core/tcp.c **** #else
 141:Middlewares/Third_Party/LwIP/src/core/tcp.c **** #define INITIAL_MSS TCP_MSS
 142:Middlewares/Third_Party/LwIP/src/core/tcp.c **** #endif
 143:Middlewares/Third_Party/LwIP/src/core/tcp.c **** 
 144:Middlewares/Third_Party/LwIP/src/core/tcp.c **** static const char *const tcp_state_str[] = {
 145:Middlewares/Third_Party/LwIP/src/core/tcp.c ****   "CLOSED",
ARM GAS  /tmp/ccoUuMsr.s 			page 4


 146:Middlewares/Third_Party/LwIP/src/core/tcp.c ****   "LISTEN",
 147:Middlewares/Third_Party/LwIP/src/core/tcp.c ****   "SYN_SENT",
 148:Middlewares/Third_Party/LwIP/src/core/tcp.c ****   "SYN_RCVD",
 149:Middlewares/Third_Party/LwIP/src/core/tcp.c ****   "ESTABLISHED",
 150:Middlewares/Third_Party/LwIP/src/core/tcp.c ****   "FIN_WAIT_1",
 151:Middlewares/Third_Party/LwIP/src/core/tcp.c ****   "FIN_WAIT_2",
 152:Middlewares/Third_Party/LwIP/src/core/tcp.c ****   "CLOSE_WAIT",
 153:Middlewares/Third_Party/LwIP/src/core/tcp.c ****   "CLOSING",
 154:Middlewares/Third_Party/LwIP/src/core/tcp.c ****   "LAST_ACK",
 155:Middlewares/Third_Party/LwIP/src/core/tcp.c ****   "TIME_WAIT"
 156:Middlewares/Third_Party/LwIP/src/core/tcp.c **** };
 157:Middlewares/Third_Party/LwIP/src/core/tcp.c **** 
 158:Middlewares/Third_Party/LwIP/src/core/tcp.c **** /* last local TCP port */
 159:Middlewares/Third_Party/LwIP/src/core/tcp.c **** static u16_t tcp_port = TCP_LOCAL_PORT_RANGE_START;
 160:Middlewares/Third_Party/LwIP/src/core/tcp.c **** 
 161:Middlewares/Third_Party/LwIP/src/core/tcp.c **** /* Incremented every coarse grained timer shot (typically every 500 ms). */
 162:Middlewares/Third_Party/LwIP/src/core/tcp.c **** u32_t tcp_ticks;
 163:Middlewares/Third_Party/LwIP/src/core/tcp.c **** static const u8_t tcp_backoff[13] =
 164:Middlewares/Third_Party/LwIP/src/core/tcp.c **** { 1, 2, 3, 4, 5, 6, 7, 7, 7, 7, 7, 7, 7};
 165:Middlewares/Third_Party/LwIP/src/core/tcp.c **** /* Times per slowtmr hits */
 166:Middlewares/Third_Party/LwIP/src/core/tcp.c **** static const u8_t tcp_persist_backoff[7] = { 3, 6, 12, 24, 48, 96, 120 };
 167:Middlewares/Third_Party/LwIP/src/core/tcp.c **** 
 168:Middlewares/Third_Party/LwIP/src/core/tcp.c **** /* The TCP PCB lists. */
 169:Middlewares/Third_Party/LwIP/src/core/tcp.c **** 
 170:Middlewares/Third_Party/LwIP/src/core/tcp.c **** /** List of all TCP PCBs bound but not yet (connected || listening) */
 171:Middlewares/Third_Party/LwIP/src/core/tcp.c **** struct tcp_pcb *tcp_bound_pcbs;
 172:Middlewares/Third_Party/LwIP/src/core/tcp.c **** /** List of all TCP PCBs in LISTEN state */
 173:Middlewares/Third_Party/LwIP/src/core/tcp.c **** union tcp_listen_pcbs_t tcp_listen_pcbs;
 174:Middlewares/Third_Party/LwIP/src/core/tcp.c **** /** List of all TCP PCBs that are in a state in which
 175:Middlewares/Third_Party/LwIP/src/core/tcp.c ****  * they accept or send data. */
 176:Middlewares/Third_Party/LwIP/src/core/tcp.c **** struct tcp_pcb *tcp_active_pcbs;
 177:Middlewares/Third_Party/LwIP/src/core/tcp.c **** /** List of all TCP PCBs in TIME-WAIT state */
 178:Middlewares/Third_Party/LwIP/src/core/tcp.c **** struct tcp_pcb *tcp_tw_pcbs;
 179:Middlewares/Third_Party/LwIP/src/core/tcp.c **** 
 180:Middlewares/Third_Party/LwIP/src/core/tcp.c **** /** An array with all (non-temporary) PCB lists, mainly used for smaller code size */
 181:Middlewares/Third_Party/LwIP/src/core/tcp.c **** struct tcp_pcb **const tcp_pcb_lists[] = {&tcp_listen_pcbs.pcbs, &tcp_bound_pcbs,
 182:Middlewares/Third_Party/LwIP/src/core/tcp.c ****          &tcp_active_pcbs, &tcp_tw_pcbs
 183:Middlewares/Third_Party/LwIP/src/core/tcp.c **** };
 184:Middlewares/Third_Party/LwIP/src/core/tcp.c **** 
 185:Middlewares/Third_Party/LwIP/src/core/tcp.c **** u8_t tcp_active_pcbs_changed;
 186:Middlewares/Third_Party/LwIP/src/core/tcp.c **** 
 187:Middlewares/Third_Party/LwIP/src/core/tcp.c **** /** Timer counter to handle calling slow-timer from tcp_tmr() */
 188:Middlewares/Third_Party/LwIP/src/core/tcp.c **** static u8_t tcp_timer;
 189:Middlewares/Third_Party/LwIP/src/core/tcp.c **** static u8_t tcp_timer_ctr;
 190:Middlewares/Third_Party/LwIP/src/core/tcp.c **** static u16_t tcp_new_port(void);
 191:Middlewares/Third_Party/LwIP/src/core/tcp.c **** 
 192:Middlewares/Third_Party/LwIP/src/core/tcp.c **** static err_t tcp_close_shutdown_fin(struct tcp_pcb *pcb);
 193:Middlewares/Third_Party/LwIP/src/core/tcp.c **** #if LWIP_TCP_PCB_NUM_EXT_ARGS
 194:Middlewares/Third_Party/LwIP/src/core/tcp.c **** static void tcp_ext_arg_invoke_callbacks_destroyed(struct tcp_pcb_ext_args *ext_args);
 195:Middlewares/Third_Party/LwIP/src/core/tcp.c **** #endif
 196:Middlewares/Third_Party/LwIP/src/core/tcp.c **** 
 197:Middlewares/Third_Party/LwIP/src/core/tcp.c **** /**
 198:Middlewares/Third_Party/LwIP/src/core/tcp.c ****  * Initialize this module.
 199:Middlewares/Third_Party/LwIP/src/core/tcp.c ****  */
 200:Middlewares/Third_Party/LwIP/src/core/tcp.c **** void
 201:Middlewares/Third_Party/LwIP/src/core/tcp.c **** tcp_init(void)
 202:Middlewares/Third_Party/LwIP/src/core/tcp.c **** {
ARM GAS  /tmp/ccoUuMsr.s 			page 5


 203:Middlewares/Third_Party/LwIP/src/core/tcp.c **** #ifdef LWIP_RAND
 204:Middlewares/Third_Party/LwIP/src/core/tcp.c ****   tcp_port = TCP_ENSURE_LOCAL_PORT_RANGE(LWIP_RAND());
 205:Middlewares/Third_Party/LwIP/src/core/tcp.c **** #endif /* LWIP_RAND */
 206:Middlewares/Third_Party/LwIP/src/core/tcp.c **** }
 207:Middlewares/Third_Party/LwIP/src/core/tcp.c **** 
 208:Middlewares/Third_Party/LwIP/src/core/tcp.c **** /** Free a tcp pcb */
 209:Middlewares/Third_Party/LwIP/src/core/tcp.c **** void
 210:Middlewares/Third_Party/LwIP/src/core/tcp.c **** tcp_free(struct tcp_pcb *pcb)
 211:Middlewares/Third_Party/LwIP/src/core/tcp.c **** {
 212:Middlewares/Third_Party/LwIP/src/core/tcp.c ****   LWIP_ASSERT("tcp_free: LISTEN", pcb->state != LISTEN);
 213:Middlewares/Third_Party/LwIP/src/core/tcp.c **** #if LWIP_TCP_PCB_NUM_EXT_ARGS
 214:Middlewares/Third_Party/LwIP/src/core/tcp.c ****   tcp_ext_arg_invoke_callbacks_destroyed(pcb->ext_args);
 215:Middlewares/Third_Party/LwIP/src/core/tcp.c **** #endif
 216:Middlewares/Third_Party/LwIP/src/core/tcp.c ****   memp_free(MEMP_TCP_PCB, pcb);
 217:Middlewares/Third_Party/LwIP/src/core/tcp.c **** }
 218:Middlewares/Third_Party/LwIP/src/core/tcp.c **** 
 219:Middlewares/Third_Party/LwIP/src/core/tcp.c **** /** Free a tcp listen pcb */
 220:Middlewares/Third_Party/LwIP/src/core/tcp.c **** static void
 221:Middlewares/Third_Party/LwIP/src/core/tcp.c **** tcp_free_listen(struct tcp_pcb *pcb)
 222:Middlewares/Third_Party/LwIP/src/core/tcp.c **** {
 223:Middlewares/Third_Party/LwIP/src/core/tcp.c ****   LWIP_ASSERT("tcp_free_listen: !LISTEN", pcb->state != LISTEN);
 224:Middlewares/Third_Party/LwIP/src/core/tcp.c **** #if LWIP_TCP_PCB_NUM_EXT_ARGS
 225:Middlewares/Third_Party/LwIP/src/core/tcp.c ****   tcp_ext_arg_invoke_callbacks_destroyed(pcb->ext_args);
 226:Middlewares/Third_Party/LwIP/src/core/tcp.c **** #endif
 227:Middlewares/Third_Party/LwIP/src/core/tcp.c ****   memp_free(MEMP_TCP_PCB_LISTEN, pcb);
 228:Middlewares/Third_Party/LwIP/src/core/tcp.c **** }
 229:Middlewares/Third_Party/LwIP/src/core/tcp.c **** 
 230:Middlewares/Third_Party/LwIP/src/core/tcp.c **** /**
 231:Middlewares/Third_Party/LwIP/src/core/tcp.c ****  * Called periodically to dispatch TCP timers.
 232:Middlewares/Third_Party/LwIP/src/core/tcp.c ****  */
 233:Middlewares/Third_Party/LwIP/src/core/tcp.c **** void
 234:Middlewares/Third_Party/LwIP/src/core/tcp.c **** tcp_tmr(void)
 235:Middlewares/Third_Party/LwIP/src/core/tcp.c **** {
 236:Middlewares/Third_Party/LwIP/src/core/tcp.c ****   /* Call tcp_fasttmr() every 250 ms */
 237:Middlewares/Third_Party/LwIP/src/core/tcp.c ****   tcp_fasttmr();
 238:Middlewares/Third_Party/LwIP/src/core/tcp.c **** 
 239:Middlewares/Third_Party/LwIP/src/core/tcp.c ****   if (++tcp_timer & 1) {
 240:Middlewares/Third_Party/LwIP/src/core/tcp.c ****     /* Call tcp_slowtmr() every 500 ms, i.e., every other timer
 241:Middlewares/Third_Party/LwIP/src/core/tcp.c ****        tcp_tmr() is called. */
 242:Middlewares/Third_Party/LwIP/src/core/tcp.c ****     tcp_slowtmr();
 243:Middlewares/Third_Party/LwIP/src/core/tcp.c ****   }
 244:Middlewares/Third_Party/LwIP/src/core/tcp.c **** }
 245:Middlewares/Third_Party/LwIP/src/core/tcp.c **** 
 246:Middlewares/Third_Party/LwIP/src/core/tcp.c **** #if LWIP_CALLBACK_API || TCP_LISTEN_BACKLOG
 247:Middlewares/Third_Party/LwIP/src/core/tcp.c **** /** Called when a listen pcb is closed. Iterates one pcb list and removes the
 248:Middlewares/Third_Party/LwIP/src/core/tcp.c ****  * closed listener pcb from pcb->listener if matching.
 249:Middlewares/Third_Party/LwIP/src/core/tcp.c ****  */
 250:Middlewares/Third_Party/LwIP/src/core/tcp.c **** static void
 251:Middlewares/Third_Party/LwIP/src/core/tcp.c **** tcp_remove_listener(struct tcp_pcb *list, struct tcp_pcb_listen *lpcb)
 252:Middlewares/Third_Party/LwIP/src/core/tcp.c **** {
 253:Middlewares/Third_Party/LwIP/src/core/tcp.c ****   struct tcp_pcb *pcb;
 254:Middlewares/Third_Party/LwIP/src/core/tcp.c **** 
 255:Middlewares/Third_Party/LwIP/src/core/tcp.c ****   LWIP_ASSERT("tcp_remove_listener: invalid listener", lpcb != NULL);
 256:Middlewares/Third_Party/LwIP/src/core/tcp.c **** 
 257:Middlewares/Third_Party/LwIP/src/core/tcp.c ****   for (pcb = list; pcb != NULL; pcb = pcb->next) {
 258:Middlewares/Third_Party/LwIP/src/core/tcp.c ****     if (pcb->listener == lpcb) {
 259:Middlewares/Third_Party/LwIP/src/core/tcp.c ****       pcb->listener = NULL;
ARM GAS  /tmp/ccoUuMsr.s 			page 6


 260:Middlewares/Third_Party/LwIP/src/core/tcp.c ****     }
 261:Middlewares/Third_Party/LwIP/src/core/tcp.c ****   }
 262:Middlewares/Third_Party/LwIP/src/core/tcp.c **** }
 263:Middlewares/Third_Party/LwIP/src/core/tcp.c **** #endif
 264:Middlewares/Third_Party/LwIP/src/core/tcp.c **** 
 265:Middlewares/Third_Party/LwIP/src/core/tcp.c **** /** Called when a listen pcb is closed. Iterates all pcb lists and removes the
 266:Middlewares/Third_Party/LwIP/src/core/tcp.c ****  * closed listener pcb from pcb->listener if matching.
 267:Middlewares/Third_Party/LwIP/src/core/tcp.c ****  */
 268:Middlewares/Third_Party/LwIP/src/core/tcp.c **** static void
 269:Middlewares/Third_Party/LwIP/src/core/tcp.c **** tcp_listen_closed(struct tcp_pcb *pcb)
 270:Middlewares/Third_Party/LwIP/src/core/tcp.c **** {
 271:Middlewares/Third_Party/LwIP/src/core/tcp.c **** #if LWIP_CALLBACK_API || TCP_LISTEN_BACKLOG
 272:Middlewares/Third_Party/LwIP/src/core/tcp.c ****   size_t i;
 273:Middlewares/Third_Party/LwIP/src/core/tcp.c ****   LWIP_ASSERT("pcb != NULL", pcb != NULL);
 274:Middlewares/Third_Party/LwIP/src/core/tcp.c ****   LWIP_ASSERT("pcb->state == LISTEN", pcb->state == LISTEN);
 275:Middlewares/Third_Party/LwIP/src/core/tcp.c ****   for (i = 1; i < LWIP_ARRAYSIZE(tcp_pcb_lists); i++) {
 276:Middlewares/Third_Party/LwIP/src/core/tcp.c ****     tcp_remove_listener(*tcp_pcb_lists[i], (struct tcp_pcb_listen *)pcb);
 277:Middlewares/Third_Party/LwIP/src/core/tcp.c ****   }
 278:Middlewares/Third_Party/LwIP/src/core/tcp.c **** #endif
 279:Middlewares/Third_Party/LwIP/src/core/tcp.c ****   LWIP_UNUSED_ARG(pcb);
 280:Middlewares/Third_Party/LwIP/src/core/tcp.c **** }
 281:Middlewares/Third_Party/LwIP/src/core/tcp.c **** 
 282:Middlewares/Third_Party/LwIP/src/core/tcp.c **** #if TCP_LISTEN_BACKLOG
 283:Middlewares/Third_Party/LwIP/src/core/tcp.c **** /** @ingroup tcp_raw
 284:Middlewares/Third_Party/LwIP/src/core/tcp.c ****  * Delay accepting a connection in respect to the listen backlog:
 285:Middlewares/Third_Party/LwIP/src/core/tcp.c ****  * the number of outstanding connections is increased until
 286:Middlewares/Third_Party/LwIP/src/core/tcp.c ****  * tcp_backlog_accepted() is called.
 287:Middlewares/Third_Party/LwIP/src/core/tcp.c ****  *
 288:Middlewares/Third_Party/LwIP/src/core/tcp.c ****  * ATTENTION: the caller is responsible for calling tcp_backlog_accepted()
 289:Middlewares/Third_Party/LwIP/src/core/tcp.c ****  * or else the backlog feature will get out of sync!
 290:Middlewares/Third_Party/LwIP/src/core/tcp.c ****  *
 291:Middlewares/Third_Party/LwIP/src/core/tcp.c ****  * @param pcb the connection pcb which is not fully accepted yet
 292:Middlewares/Third_Party/LwIP/src/core/tcp.c ****  */
 293:Middlewares/Third_Party/LwIP/src/core/tcp.c **** void
 294:Middlewares/Third_Party/LwIP/src/core/tcp.c **** tcp_backlog_delayed(struct tcp_pcb *pcb)
 295:Middlewares/Third_Party/LwIP/src/core/tcp.c **** {
 296:Middlewares/Third_Party/LwIP/src/core/tcp.c ****   LWIP_ASSERT("pcb != NULL", pcb != NULL);
 297:Middlewares/Third_Party/LwIP/src/core/tcp.c ****   LWIP_ASSERT_CORE_LOCKED();
 298:Middlewares/Third_Party/LwIP/src/core/tcp.c ****   if ((pcb->flags & TF_BACKLOGPEND) == 0) {
 299:Middlewares/Third_Party/LwIP/src/core/tcp.c ****     if (pcb->listener != NULL) {
 300:Middlewares/Third_Party/LwIP/src/core/tcp.c ****       pcb->listener->accepts_pending++;
 301:Middlewares/Third_Party/LwIP/src/core/tcp.c ****       LWIP_ASSERT("accepts_pending != 0", pcb->listener->accepts_pending != 0);
 302:Middlewares/Third_Party/LwIP/src/core/tcp.c ****       tcp_set_flags(pcb, TF_BACKLOGPEND);
 303:Middlewares/Third_Party/LwIP/src/core/tcp.c ****     }
 304:Middlewares/Third_Party/LwIP/src/core/tcp.c ****   }
 305:Middlewares/Third_Party/LwIP/src/core/tcp.c **** }
 306:Middlewares/Third_Party/LwIP/src/core/tcp.c **** 
 307:Middlewares/Third_Party/LwIP/src/core/tcp.c **** /** @ingroup tcp_raw
 308:Middlewares/Third_Party/LwIP/src/core/tcp.c ****  * A delayed-accept a connection is accepted (or closed/aborted): decreases
 309:Middlewares/Third_Party/LwIP/src/core/tcp.c ****  * the number of outstanding connections after calling tcp_backlog_delayed().
 310:Middlewares/Third_Party/LwIP/src/core/tcp.c ****  *
 311:Middlewares/Third_Party/LwIP/src/core/tcp.c ****  * ATTENTION: the caller is responsible for calling tcp_backlog_accepted()
 312:Middlewares/Third_Party/LwIP/src/core/tcp.c ****  * or else the backlog feature will get out of sync!
 313:Middlewares/Third_Party/LwIP/src/core/tcp.c ****  *
 314:Middlewares/Third_Party/LwIP/src/core/tcp.c ****  * @param pcb the connection pcb which is now fully accepted (or closed/aborted)
 315:Middlewares/Third_Party/LwIP/src/core/tcp.c ****  */
 316:Middlewares/Third_Party/LwIP/src/core/tcp.c **** void
ARM GAS  /tmp/ccoUuMsr.s 			page 7


 317:Middlewares/Third_Party/LwIP/src/core/tcp.c **** tcp_backlog_accepted(struct tcp_pcb *pcb)
 318:Middlewares/Third_Party/LwIP/src/core/tcp.c **** {
 319:Middlewares/Third_Party/LwIP/src/core/tcp.c ****   LWIP_ASSERT("pcb != NULL", pcb != NULL);
 320:Middlewares/Third_Party/LwIP/src/core/tcp.c ****   LWIP_ASSERT_CORE_LOCKED();
 321:Middlewares/Third_Party/LwIP/src/core/tcp.c ****   if ((pcb->flags & TF_BACKLOGPEND) != 0) {
 322:Middlewares/Third_Party/LwIP/src/core/tcp.c ****     if (pcb->listener != NULL) {
 323:Middlewares/Third_Party/LwIP/src/core/tcp.c ****       LWIP_ASSERT("accepts_pending != 0", pcb->listener->accepts_pending != 0);
 324:Middlewares/Third_Party/LwIP/src/core/tcp.c ****       pcb->listener->accepts_pending--;
 325:Middlewares/Third_Party/LwIP/src/core/tcp.c ****       tcp_clear_flags(pcb, TF_BACKLOGPEND);
 326:Middlewares/Third_Party/LwIP/src/core/tcp.c ****     }
 327:Middlewares/Third_Party/LwIP/src/core/tcp.c ****   }
 328:Middlewares/Third_Party/LwIP/src/core/tcp.c **** }
 329:Middlewares/Third_Party/LwIP/src/core/tcp.c **** #endif /* TCP_LISTEN_BACKLOG */
 330:Middlewares/Third_Party/LwIP/src/core/tcp.c **** 
 331:Middlewares/Third_Party/LwIP/src/core/tcp.c **** /**
 332:Middlewares/Third_Party/LwIP/src/core/tcp.c ****  * Closes the TX side of a connection held by the PCB.
 333:Middlewares/Third_Party/LwIP/src/core/tcp.c ****  * For tcp_close(), a RST is sent if the application didn't receive all data
 334:Middlewares/Third_Party/LwIP/src/core/tcp.c ****  * (tcp_recved() not called for all data passed to recv callback).
 335:Middlewares/Third_Party/LwIP/src/core/tcp.c ****  *
 336:Middlewares/Third_Party/LwIP/src/core/tcp.c ****  * Listening pcbs are freed and may not be referenced any more.
 337:Middlewares/Third_Party/LwIP/src/core/tcp.c ****  * Connection pcbs are freed if not yet connected and may not be referenced
 338:Middlewares/Third_Party/LwIP/src/core/tcp.c ****  * any more. If a connection is established (at least SYN received or in
 339:Middlewares/Third_Party/LwIP/src/core/tcp.c ****  * a closing state), the connection is closed, and put in a closing state.
 340:Middlewares/Third_Party/LwIP/src/core/tcp.c ****  * The pcb is then automatically freed in tcp_slowtmr(). It is therefore
 341:Middlewares/Third_Party/LwIP/src/core/tcp.c ****  * unsafe to reference it.
 342:Middlewares/Third_Party/LwIP/src/core/tcp.c ****  *
 343:Middlewares/Third_Party/LwIP/src/core/tcp.c ****  * @param pcb the tcp_pcb to close
 344:Middlewares/Third_Party/LwIP/src/core/tcp.c ****  * @return ERR_OK if connection has been closed
 345:Middlewares/Third_Party/LwIP/src/core/tcp.c ****  *         another err_t if closing failed and pcb is not freed
 346:Middlewares/Third_Party/LwIP/src/core/tcp.c ****  */
 347:Middlewares/Third_Party/LwIP/src/core/tcp.c **** static err_t
 348:Middlewares/Third_Party/LwIP/src/core/tcp.c **** tcp_close_shutdown(struct tcp_pcb *pcb, u8_t rst_on_unacked_data)
 349:Middlewares/Third_Party/LwIP/src/core/tcp.c **** {
 350:Middlewares/Third_Party/LwIP/src/core/tcp.c ****   LWIP_ASSERT("tcp_close_shutdown: invalid pcb", pcb != NULL);
 351:Middlewares/Third_Party/LwIP/src/core/tcp.c **** 
 352:Middlewares/Third_Party/LwIP/src/core/tcp.c ****   if (rst_on_unacked_data && ((pcb->state == ESTABLISHED) || (pcb->state == CLOSE_WAIT))) {
 353:Middlewares/Third_Party/LwIP/src/core/tcp.c ****     if ((pcb->refused_data != NULL) || (pcb->rcv_wnd != TCP_WND_MAX(pcb))) {
 354:Middlewares/Third_Party/LwIP/src/core/tcp.c ****       /* Not all data received by application, send RST to tell the remote
 355:Middlewares/Third_Party/LwIP/src/core/tcp.c ****          side about this. */
 356:Middlewares/Third_Party/LwIP/src/core/tcp.c ****       LWIP_ASSERT("pcb->flags & TF_RXCLOSED", pcb->flags & TF_RXCLOSED);
 357:Middlewares/Third_Party/LwIP/src/core/tcp.c **** 
 358:Middlewares/Third_Party/LwIP/src/core/tcp.c ****       /* don't call tcp_abort here: we must not deallocate the pcb since
 359:Middlewares/Third_Party/LwIP/src/core/tcp.c ****          that might not be expected when calling tcp_close */
 360:Middlewares/Third_Party/LwIP/src/core/tcp.c ****       tcp_rst(pcb, pcb->snd_nxt, pcb->rcv_nxt, &pcb->local_ip, &pcb->remote_ip,
 361:Middlewares/Third_Party/LwIP/src/core/tcp.c ****               pcb->local_port, pcb->remote_port);
 362:Middlewares/Third_Party/LwIP/src/core/tcp.c **** 
 363:Middlewares/Third_Party/LwIP/src/core/tcp.c ****       tcp_pcb_purge(pcb);
 364:Middlewares/Third_Party/LwIP/src/core/tcp.c ****       TCP_RMV_ACTIVE(pcb);
 365:Middlewares/Third_Party/LwIP/src/core/tcp.c ****       /* Deallocate the pcb since we already sent a RST for it */
 366:Middlewares/Third_Party/LwIP/src/core/tcp.c ****       if (tcp_input_pcb == pcb) {
 367:Middlewares/Third_Party/LwIP/src/core/tcp.c ****         /* prevent using a deallocated pcb: free it from tcp_input later */
 368:Middlewares/Third_Party/LwIP/src/core/tcp.c ****         tcp_trigger_input_pcb_close();
 369:Middlewares/Third_Party/LwIP/src/core/tcp.c ****       } else {
 370:Middlewares/Third_Party/LwIP/src/core/tcp.c ****         tcp_free(pcb);
 371:Middlewares/Third_Party/LwIP/src/core/tcp.c ****       }
 372:Middlewares/Third_Party/LwIP/src/core/tcp.c ****       return ERR_OK;
 373:Middlewares/Third_Party/LwIP/src/core/tcp.c ****     }
ARM GAS  /tmp/ccoUuMsr.s 			page 8


 374:Middlewares/Third_Party/LwIP/src/core/tcp.c ****   }
 375:Middlewares/Third_Party/LwIP/src/core/tcp.c **** 
 376:Middlewares/Third_Party/LwIP/src/core/tcp.c ****   /* - states which free the pcb are handled here,
 377:Middlewares/Third_Party/LwIP/src/core/tcp.c ****      - states which send FIN and change state are handled in tcp_close_shutdown_fin() */
 378:Middlewares/Third_Party/LwIP/src/core/tcp.c ****   switch (pcb->state) {
 379:Middlewares/Third_Party/LwIP/src/core/tcp.c ****     case CLOSED:
 380:Middlewares/Third_Party/LwIP/src/core/tcp.c ****       /* Closing a pcb in the CLOSED state might seem erroneous,
 381:Middlewares/Third_Party/LwIP/src/core/tcp.c ****        * however, it is in this state once allocated and as yet unused
 382:Middlewares/Third_Party/LwIP/src/core/tcp.c ****        * and the user needs some way to free it should the need arise.
 383:Middlewares/Third_Party/LwIP/src/core/tcp.c ****        * Calling tcp_close() with a pcb that has already been closed, (i.e. twice)
 384:Middlewares/Third_Party/LwIP/src/core/tcp.c ****        * or for a pcb that has been used and then entered the CLOSED state
 385:Middlewares/Third_Party/LwIP/src/core/tcp.c ****        * is erroneous, but this should never happen as the pcb has in those cases
 386:Middlewares/Third_Party/LwIP/src/core/tcp.c ****        * been freed, and so any remaining handles are bogus. */
 387:Middlewares/Third_Party/LwIP/src/core/tcp.c ****       if (pcb->local_port != 0) {
 388:Middlewares/Third_Party/LwIP/src/core/tcp.c ****         TCP_RMV(&tcp_bound_pcbs, pcb);
 389:Middlewares/Third_Party/LwIP/src/core/tcp.c ****       }
 390:Middlewares/Third_Party/LwIP/src/core/tcp.c ****       tcp_free(pcb);
 391:Middlewares/Third_Party/LwIP/src/core/tcp.c ****       break;
 392:Middlewares/Third_Party/LwIP/src/core/tcp.c ****     case LISTEN:
 393:Middlewares/Third_Party/LwIP/src/core/tcp.c ****       tcp_listen_closed(pcb);
 394:Middlewares/Third_Party/LwIP/src/core/tcp.c ****       tcp_pcb_remove(&tcp_listen_pcbs.pcbs, pcb);
 395:Middlewares/Third_Party/LwIP/src/core/tcp.c ****       tcp_free_listen(pcb);
 396:Middlewares/Third_Party/LwIP/src/core/tcp.c ****       break;
 397:Middlewares/Third_Party/LwIP/src/core/tcp.c ****     case SYN_SENT:
 398:Middlewares/Third_Party/LwIP/src/core/tcp.c ****       TCP_PCB_REMOVE_ACTIVE(pcb);
 399:Middlewares/Third_Party/LwIP/src/core/tcp.c ****       tcp_free(pcb);
 400:Middlewares/Third_Party/LwIP/src/core/tcp.c ****       MIB2_STATS_INC(mib2.tcpattemptfails);
 401:Middlewares/Third_Party/LwIP/src/core/tcp.c ****       break;
 402:Middlewares/Third_Party/LwIP/src/core/tcp.c ****     default:
 403:Middlewares/Third_Party/LwIP/src/core/tcp.c ****       return tcp_close_shutdown_fin(pcb);
 404:Middlewares/Third_Party/LwIP/src/core/tcp.c ****   }
 405:Middlewares/Third_Party/LwIP/src/core/tcp.c ****   return ERR_OK;
 406:Middlewares/Third_Party/LwIP/src/core/tcp.c **** }
 407:Middlewares/Third_Party/LwIP/src/core/tcp.c **** 
 408:Middlewares/Third_Party/LwIP/src/core/tcp.c **** static err_t
 409:Middlewares/Third_Party/LwIP/src/core/tcp.c **** tcp_close_shutdown_fin(struct tcp_pcb *pcb)
 410:Middlewares/Third_Party/LwIP/src/core/tcp.c **** {
 411:Middlewares/Third_Party/LwIP/src/core/tcp.c ****   err_t err;
 412:Middlewares/Third_Party/LwIP/src/core/tcp.c ****   LWIP_ASSERT("pcb != NULL", pcb != NULL);
 413:Middlewares/Third_Party/LwIP/src/core/tcp.c **** 
 414:Middlewares/Third_Party/LwIP/src/core/tcp.c ****   switch (pcb->state) {
 415:Middlewares/Third_Party/LwIP/src/core/tcp.c ****     case SYN_RCVD:
 416:Middlewares/Third_Party/LwIP/src/core/tcp.c ****       err = tcp_send_fin(pcb);
 417:Middlewares/Third_Party/LwIP/src/core/tcp.c ****       if (err == ERR_OK) {
 418:Middlewares/Third_Party/LwIP/src/core/tcp.c ****         tcp_backlog_accepted(pcb);
 419:Middlewares/Third_Party/LwIP/src/core/tcp.c ****         MIB2_STATS_INC(mib2.tcpattemptfails);
 420:Middlewares/Third_Party/LwIP/src/core/tcp.c ****         pcb->state = FIN_WAIT_1;
 421:Middlewares/Third_Party/LwIP/src/core/tcp.c ****       }
 422:Middlewares/Third_Party/LwIP/src/core/tcp.c ****       break;
 423:Middlewares/Third_Party/LwIP/src/core/tcp.c ****     case ESTABLISHED:
 424:Middlewares/Third_Party/LwIP/src/core/tcp.c ****       err = tcp_send_fin(pcb);
 425:Middlewares/Third_Party/LwIP/src/core/tcp.c ****       if (err == ERR_OK) {
 426:Middlewares/Third_Party/LwIP/src/core/tcp.c ****         MIB2_STATS_INC(mib2.tcpestabresets);
 427:Middlewares/Third_Party/LwIP/src/core/tcp.c ****         pcb->state = FIN_WAIT_1;
 428:Middlewares/Third_Party/LwIP/src/core/tcp.c ****       }
 429:Middlewares/Third_Party/LwIP/src/core/tcp.c ****       break;
 430:Middlewares/Third_Party/LwIP/src/core/tcp.c ****     case CLOSE_WAIT:
ARM GAS  /tmp/ccoUuMsr.s 			page 9


 431:Middlewares/Third_Party/LwIP/src/core/tcp.c ****       err = tcp_send_fin(pcb);
 432:Middlewares/Third_Party/LwIP/src/core/tcp.c ****       if (err == ERR_OK) {
 433:Middlewares/Third_Party/LwIP/src/core/tcp.c ****         MIB2_STATS_INC(mib2.tcpestabresets);
 434:Middlewares/Third_Party/LwIP/src/core/tcp.c ****         pcb->state = LAST_ACK;
 435:Middlewares/Third_Party/LwIP/src/core/tcp.c ****       }
 436:Middlewares/Third_Party/LwIP/src/core/tcp.c ****       break;
 437:Middlewares/Third_Party/LwIP/src/core/tcp.c ****     default:
 438:Middlewares/Third_Party/LwIP/src/core/tcp.c ****       /* Has already been closed, do nothing. */
 439:Middlewares/Third_Party/LwIP/src/core/tcp.c ****       return ERR_OK;
 440:Middlewares/Third_Party/LwIP/src/core/tcp.c ****   }
 441:Middlewares/Third_Party/LwIP/src/core/tcp.c **** 
 442:Middlewares/Third_Party/LwIP/src/core/tcp.c ****   if (err == ERR_OK) {
 443:Middlewares/Third_Party/LwIP/src/core/tcp.c ****     /* To ensure all data has been sent when tcp_close returns, we have
 444:Middlewares/Third_Party/LwIP/src/core/tcp.c ****        to make sure tcp_output doesn't fail.
 445:Middlewares/Third_Party/LwIP/src/core/tcp.c ****        Since we don't really have to ensure all data has been sent when tcp_close
 446:Middlewares/Third_Party/LwIP/src/core/tcp.c ****        returns (unsent data is sent from tcp timer functions, also), we don't care
 447:Middlewares/Third_Party/LwIP/src/core/tcp.c ****        for the return value of tcp_output for now. */
 448:Middlewares/Third_Party/LwIP/src/core/tcp.c ****     tcp_output(pcb);
 449:Middlewares/Third_Party/LwIP/src/core/tcp.c ****   } else if (err == ERR_MEM) {
 450:Middlewares/Third_Party/LwIP/src/core/tcp.c ****     /* Mark this pcb for closing. Closing is retried from tcp_tmr. */
 451:Middlewares/Third_Party/LwIP/src/core/tcp.c ****     tcp_set_flags(pcb, TF_CLOSEPEND);
 452:Middlewares/Third_Party/LwIP/src/core/tcp.c ****     /* We have to return ERR_OK from here to indicate to the callers that this
 453:Middlewares/Third_Party/LwIP/src/core/tcp.c ****        pcb should not be used any more as it will be freed soon via tcp_tmr.
 454:Middlewares/Third_Party/LwIP/src/core/tcp.c ****        This is OK here since sending FIN does not guarantee a time frime for
 455:Middlewares/Third_Party/LwIP/src/core/tcp.c ****        actually freeing the pcb, either (it is left in closure states for
 456:Middlewares/Third_Party/LwIP/src/core/tcp.c ****        remote ACK or timeout) */
 457:Middlewares/Third_Party/LwIP/src/core/tcp.c ****     return ERR_OK;
 458:Middlewares/Third_Party/LwIP/src/core/tcp.c ****   }
 459:Middlewares/Third_Party/LwIP/src/core/tcp.c ****   return err;
 460:Middlewares/Third_Party/LwIP/src/core/tcp.c **** }
 461:Middlewares/Third_Party/LwIP/src/core/tcp.c **** 
 462:Middlewares/Third_Party/LwIP/src/core/tcp.c **** /**
 463:Middlewares/Third_Party/LwIP/src/core/tcp.c ****  * @ingroup tcp_raw
 464:Middlewares/Third_Party/LwIP/src/core/tcp.c ****  * Closes the connection held by the PCB.
 465:Middlewares/Third_Party/LwIP/src/core/tcp.c ****  *
 466:Middlewares/Third_Party/LwIP/src/core/tcp.c ****  * Listening pcbs are freed and may not be referenced any more.
 467:Middlewares/Third_Party/LwIP/src/core/tcp.c ****  * Connection pcbs are freed if not yet connected and may not be referenced
 468:Middlewares/Third_Party/LwIP/src/core/tcp.c ****  * any more. If a connection is established (at least SYN received or in
 469:Middlewares/Third_Party/LwIP/src/core/tcp.c ****  * a closing state), the connection is closed, and put in a closing state.
 470:Middlewares/Third_Party/LwIP/src/core/tcp.c ****  * The pcb is then automatically freed in tcp_slowtmr(). It is therefore
 471:Middlewares/Third_Party/LwIP/src/core/tcp.c ****  * unsafe to reference it (unless an error is returned).
 472:Middlewares/Third_Party/LwIP/src/core/tcp.c ****  * 
 473:Middlewares/Third_Party/LwIP/src/core/tcp.c ****  * The function may return ERR_MEM if no memory
 474:Middlewares/Third_Party/LwIP/src/core/tcp.c ****  * was available for closing the connection. If so, the application
 475:Middlewares/Third_Party/LwIP/src/core/tcp.c ****  * should wait and try again either by using the acknowledgment
 476:Middlewares/Third_Party/LwIP/src/core/tcp.c ****  * callback or the polling functionality. If the close succeeds, the
 477:Middlewares/Third_Party/LwIP/src/core/tcp.c ****  * function returns ERR_OK.
 478:Middlewares/Third_Party/LwIP/src/core/tcp.c ****  *
 479:Middlewares/Third_Party/LwIP/src/core/tcp.c ****  * @param pcb the tcp_pcb to close
 480:Middlewares/Third_Party/LwIP/src/core/tcp.c ****  * @return ERR_OK if connection has been closed
 481:Middlewares/Third_Party/LwIP/src/core/tcp.c ****  *         another err_t if closing failed and pcb is not freed
 482:Middlewares/Third_Party/LwIP/src/core/tcp.c ****  */
 483:Middlewares/Third_Party/LwIP/src/core/tcp.c **** err_t
 484:Middlewares/Third_Party/LwIP/src/core/tcp.c **** tcp_close(struct tcp_pcb *pcb)
 485:Middlewares/Third_Party/LwIP/src/core/tcp.c **** {
 486:Middlewares/Third_Party/LwIP/src/core/tcp.c ****   LWIP_ASSERT_CORE_LOCKED();
 487:Middlewares/Third_Party/LwIP/src/core/tcp.c **** 
ARM GAS  /tmp/ccoUuMsr.s 			page 10


 488:Middlewares/Third_Party/LwIP/src/core/tcp.c ****   LWIP_ERROR("tcp_close: invalid pcb", pcb != NULL, return ERR_ARG);
 489:Middlewares/Third_Party/LwIP/src/core/tcp.c ****   LWIP_DEBUGF(TCP_DEBUG, ("tcp_close: closing in "));
 490:Middlewares/Third_Party/LwIP/src/core/tcp.c **** 
 491:Middlewares/Third_Party/LwIP/src/core/tcp.c ****   tcp_debug_print_state(pcb->state);
 492:Middlewares/Third_Party/LwIP/src/core/tcp.c **** 
 493:Middlewares/Third_Party/LwIP/src/core/tcp.c ****   if (pcb->state != LISTEN) {
 494:Middlewares/Third_Party/LwIP/src/core/tcp.c ****     /* Set a flag not to receive any more data... */
 495:Middlewares/Third_Party/LwIP/src/core/tcp.c ****     tcp_set_flags(pcb, TF_RXCLOSED);
 496:Middlewares/Third_Party/LwIP/src/core/tcp.c ****   }
 497:Middlewares/Third_Party/LwIP/src/core/tcp.c ****   /* ... and close */
 498:Middlewares/Third_Party/LwIP/src/core/tcp.c ****   return tcp_close_shutdown(pcb, 1);
 499:Middlewares/Third_Party/LwIP/src/core/tcp.c **** }
 500:Middlewares/Third_Party/LwIP/src/core/tcp.c **** 
 501:Middlewares/Third_Party/LwIP/src/core/tcp.c **** /**
 502:Middlewares/Third_Party/LwIP/src/core/tcp.c ****  * @ingroup tcp_raw
 503:Middlewares/Third_Party/LwIP/src/core/tcp.c ****  * Causes all or part of a full-duplex connection of this PCB to be shut down.
 504:Middlewares/Third_Party/LwIP/src/core/tcp.c ****  * This doesn't deallocate the PCB unless shutting down both sides!
 505:Middlewares/Third_Party/LwIP/src/core/tcp.c ****  * Shutting down both sides is the same as calling tcp_close, so if it succeds
 506:Middlewares/Third_Party/LwIP/src/core/tcp.c ****  * (i.e. returns ER_OK), the PCB must not be referenced any more!
 507:Middlewares/Third_Party/LwIP/src/core/tcp.c ****  *
 508:Middlewares/Third_Party/LwIP/src/core/tcp.c ****  * @param pcb PCB to shutdown
 509:Middlewares/Third_Party/LwIP/src/core/tcp.c ****  * @param shut_rx shut down receive side if this is != 0
 510:Middlewares/Third_Party/LwIP/src/core/tcp.c ****  * @param shut_tx shut down send side if this is != 0
 511:Middlewares/Third_Party/LwIP/src/core/tcp.c ****  * @return ERR_OK if shutdown succeeded (or the PCB has already been shut down)
 512:Middlewares/Third_Party/LwIP/src/core/tcp.c ****  *         another err_t on error.
 513:Middlewares/Third_Party/LwIP/src/core/tcp.c ****  */
 514:Middlewares/Third_Party/LwIP/src/core/tcp.c **** err_t
 515:Middlewares/Third_Party/LwIP/src/core/tcp.c **** tcp_shutdown(struct tcp_pcb *pcb, int shut_rx, int shut_tx)
 516:Middlewares/Third_Party/LwIP/src/core/tcp.c **** {
 517:Middlewares/Third_Party/LwIP/src/core/tcp.c ****   LWIP_ASSERT_CORE_LOCKED();
 518:Middlewares/Third_Party/LwIP/src/core/tcp.c **** 
 519:Middlewares/Third_Party/LwIP/src/core/tcp.c ****   LWIP_ERROR("tcp_shutdown: invalid pcb", pcb != NULL, return ERR_ARG);
 520:Middlewares/Third_Party/LwIP/src/core/tcp.c **** 
 521:Middlewares/Third_Party/LwIP/src/core/tcp.c ****   if (pcb->state == LISTEN) {
 522:Middlewares/Third_Party/LwIP/src/core/tcp.c ****     return ERR_CONN;
 523:Middlewares/Third_Party/LwIP/src/core/tcp.c ****   }
 524:Middlewares/Third_Party/LwIP/src/core/tcp.c ****   if (shut_rx) {
 525:Middlewares/Third_Party/LwIP/src/core/tcp.c ****     /* shut down the receive side: set a flag not to receive any more data... */
 526:Middlewares/Third_Party/LwIP/src/core/tcp.c ****     tcp_set_flags(pcb, TF_RXCLOSED);
 527:Middlewares/Third_Party/LwIP/src/core/tcp.c ****     if (shut_tx) {
 528:Middlewares/Third_Party/LwIP/src/core/tcp.c ****       /* shutting down the tx AND rx side is the same as closing for the raw API */
 529:Middlewares/Third_Party/LwIP/src/core/tcp.c ****       return tcp_close_shutdown(pcb, 1);
 530:Middlewares/Third_Party/LwIP/src/core/tcp.c ****     }
 531:Middlewares/Third_Party/LwIP/src/core/tcp.c ****     /* ... and free buffered data */
 532:Middlewares/Third_Party/LwIP/src/core/tcp.c ****     if (pcb->refused_data != NULL) {
 533:Middlewares/Third_Party/LwIP/src/core/tcp.c ****       pbuf_free(pcb->refused_data);
 534:Middlewares/Third_Party/LwIP/src/core/tcp.c ****       pcb->refused_data = NULL;
 535:Middlewares/Third_Party/LwIP/src/core/tcp.c ****     }
 536:Middlewares/Third_Party/LwIP/src/core/tcp.c ****   }
 537:Middlewares/Third_Party/LwIP/src/core/tcp.c ****   if (shut_tx) {
 538:Middlewares/Third_Party/LwIP/src/core/tcp.c ****     /* This can't happen twice since if it succeeds, the pcb's state is changed.
 539:Middlewares/Third_Party/LwIP/src/core/tcp.c ****        Only close in these states as the others directly deallocate the PCB */
 540:Middlewares/Third_Party/LwIP/src/core/tcp.c ****     switch (pcb->state) {
 541:Middlewares/Third_Party/LwIP/src/core/tcp.c ****       case SYN_RCVD:
 542:Middlewares/Third_Party/LwIP/src/core/tcp.c ****       case ESTABLISHED:
 543:Middlewares/Third_Party/LwIP/src/core/tcp.c ****       case CLOSE_WAIT:
 544:Middlewares/Third_Party/LwIP/src/core/tcp.c ****         return tcp_close_shutdown(pcb, (u8_t)shut_rx);
ARM GAS  /tmp/ccoUuMsr.s 			page 11


 545:Middlewares/Third_Party/LwIP/src/core/tcp.c ****       default:
 546:Middlewares/Third_Party/LwIP/src/core/tcp.c ****         /* Not (yet?) connected, cannot shutdown the TX side as that would bring us
 547:Middlewares/Third_Party/LwIP/src/core/tcp.c ****           into CLOSED state, where the PCB is deallocated. */
 548:Middlewares/Third_Party/LwIP/src/core/tcp.c ****         return ERR_CONN;
 549:Middlewares/Third_Party/LwIP/src/core/tcp.c ****     }
 550:Middlewares/Third_Party/LwIP/src/core/tcp.c ****   }
 551:Middlewares/Third_Party/LwIP/src/core/tcp.c ****   return ERR_OK;
 552:Middlewares/Third_Party/LwIP/src/core/tcp.c **** }
 553:Middlewares/Third_Party/LwIP/src/core/tcp.c **** 
 554:Middlewares/Third_Party/LwIP/src/core/tcp.c **** /**
 555:Middlewares/Third_Party/LwIP/src/core/tcp.c ****  * Abandons a connection and optionally sends a RST to the remote
 556:Middlewares/Third_Party/LwIP/src/core/tcp.c ****  * host.  Deletes the local protocol control block. This is done when
 557:Middlewares/Third_Party/LwIP/src/core/tcp.c ****  * a connection is killed because of shortage of memory.
 558:Middlewares/Third_Party/LwIP/src/core/tcp.c ****  *
 559:Middlewares/Third_Party/LwIP/src/core/tcp.c ****  * @param pcb the tcp_pcb to abort
 560:Middlewares/Third_Party/LwIP/src/core/tcp.c ****  * @param reset boolean to indicate whether a reset should be sent
 561:Middlewares/Third_Party/LwIP/src/core/tcp.c ****  */
 562:Middlewares/Third_Party/LwIP/src/core/tcp.c **** void
 563:Middlewares/Third_Party/LwIP/src/core/tcp.c **** tcp_abandon(struct tcp_pcb *pcb, int reset)
 564:Middlewares/Third_Party/LwIP/src/core/tcp.c **** {
 565:Middlewares/Third_Party/LwIP/src/core/tcp.c ****   u32_t seqno, ackno;
 566:Middlewares/Third_Party/LwIP/src/core/tcp.c **** #if LWIP_CALLBACK_API
 567:Middlewares/Third_Party/LwIP/src/core/tcp.c ****   tcp_err_fn errf;
 568:Middlewares/Third_Party/LwIP/src/core/tcp.c **** #endif /* LWIP_CALLBACK_API */
 569:Middlewares/Third_Party/LwIP/src/core/tcp.c ****   void *errf_arg;
 570:Middlewares/Third_Party/LwIP/src/core/tcp.c **** 
 571:Middlewares/Third_Party/LwIP/src/core/tcp.c ****   LWIP_ASSERT_CORE_LOCKED();
 572:Middlewares/Third_Party/LwIP/src/core/tcp.c **** 
 573:Middlewares/Third_Party/LwIP/src/core/tcp.c ****   LWIP_ERROR("tcp_abandon: invalid pcb", pcb != NULL, return);
 574:Middlewares/Third_Party/LwIP/src/core/tcp.c **** 
 575:Middlewares/Third_Party/LwIP/src/core/tcp.c ****   /* pcb->state LISTEN not allowed here */
 576:Middlewares/Third_Party/LwIP/src/core/tcp.c ****   LWIP_ASSERT("don't call tcp_abort/tcp_abandon for listen-pcbs",
 577:Middlewares/Third_Party/LwIP/src/core/tcp.c ****               pcb->state != LISTEN);
 578:Middlewares/Third_Party/LwIP/src/core/tcp.c ****   /* Figure out on which TCP PCB list we are, and remove us. If we
 579:Middlewares/Third_Party/LwIP/src/core/tcp.c ****      are in an active state, call the receive function associated with
 580:Middlewares/Third_Party/LwIP/src/core/tcp.c ****      the PCB with a NULL argument, and send an RST to the remote end. */
 581:Middlewares/Third_Party/LwIP/src/core/tcp.c ****   if (pcb->state == TIME_WAIT) {
 582:Middlewares/Third_Party/LwIP/src/core/tcp.c ****     tcp_pcb_remove(&tcp_tw_pcbs, pcb);
 583:Middlewares/Third_Party/LwIP/src/core/tcp.c ****     tcp_free(pcb);
 584:Middlewares/Third_Party/LwIP/src/core/tcp.c ****   } else {
 585:Middlewares/Third_Party/LwIP/src/core/tcp.c ****     int send_rst = 0;
 586:Middlewares/Third_Party/LwIP/src/core/tcp.c ****     u16_t local_port = 0;
 587:Middlewares/Third_Party/LwIP/src/core/tcp.c ****     enum tcp_state last_state;
 588:Middlewares/Third_Party/LwIP/src/core/tcp.c ****     seqno = pcb->snd_nxt;
 589:Middlewares/Third_Party/LwIP/src/core/tcp.c ****     ackno = pcb->rcv_nxt;
 590:Middlewares/Third_Party/LwIP/src/core/tcp.c **** #if LWIP_CALLBACK_API
 591:Middlewares/Third_Party/LwIP/src/core/tcp.c ****     errf = pcb->errf;
 592:Middlewares/Third_Party/LwIP/src/core/tcp.c **** #endif /* LWIP_CALLBACK_API */
 593:Middlewares/Third_Party/LwIP/src/core/tcp.c ****     errf_arg = pcb->callback_arg;
 594:Middlewares/Third_Party/LwIP/src/core/tcp.c ****     if (pcb->state == CLOSED) {
 595:Middlewares/Third_Party/LwIP/src/core/tcp.c ****       if (pcb->local_port != 0) {
 596:Middlewares/Third_Party/LwIP/src/core/tcp.c ****         /* bound, not yet opened */
 597:Middlewares/Third_Party/LwIP/src/core/tcp.c ****         TCP_RMV(&tcp_bound_pcbs, pcb);
 598:Middlewares/Third_Party/LwIP/src/core/tcp.c ****       }
 599:Middlewares/Third_Party/LwIP/src/core/tcp.c ****     } else {
 600:Middlewares/Third_Party/LwIP/src/core/tcp.c ****       send_rst = reset;
 601:Middlewares/Third_Party/LwIP/src/core/tcp.c ****       local_port = pcb->local_port;
ARM GAS  /tmp/ccoUuMsr.s 			page 12


 602:Middlewares/Third_Party/LwIP/src/core/tcp.c ****       TCP_PCB_REMOVE_ACTIVE(pcb);
 603:Middlewares/Third_Party/LwIP/src/core/tcp.c ****     }
 604:Middlewares/Third_Party/LwIP/src/core/tcp.c ****     if (pcb->unacked != NULL) {
 605:Middlewares/Third_Party/LwIP/src/core/tcp.c ****       tcp_segs_free(pcb->unacked);
 606:Middlewares/Third_Party/LwIP/src/core/tcp.c ****     }
 607:Middlewares/Third_Party/LwIP/src/core/tcp.c ****     if (pcb->unsent != NULL) {
 608:Middlewares/Third_Party/LwIP/src/core/tcp.c ****       tcp_segs_free(pcb->unsent);
 609:Middlewares/Third_Party/LwIP/src/core/tcp.c ****     }
 610:Middlewares/Third_Party/LwIP/src/core/tcp.c **** #if TCP_QUEUE_OOSEQ
 611:Middlewares/Third_Party/LwIP/src/core/tcp.c ****     if (pcb->ooseq != NULL) {
 612:Middlewares/Third_Party/LwIP/src/core/tcp.c ****       tcp_segs_free(pcb->ooseq);
 613:Middlewares/Third_Party/LwIP/src/core/tcp.c ****     }
 614:Middlewares/Third_Party/LwIP/src/core/tcp.c **** #endif /* TCP_QUEUE_OOSEQ */
 615:Middlewares/Third_Party/LwIP/src/core/tcp.c ****     tcp_backlog_accepted(pcb);
 616:Middlewares/Third_Party/LwIP/src/core/tcp.c ****     if (send_rst) {
 617:Middlewares/Third_Party/LwIP/src/core/tcp.c ****       LWIP_DEBUGF(TCP_RST_DEBUG, ("tcp_abandon: sending RST\n"));
 618:Middlewares/Third_Party/LwIP/src/core/tcp.c ****       tcp_rst(pcb, seqno, ackno, &pcb->local_ip, &pcb->remote_ip, local_port, pcb->remote_port);
 619:Middlewares/Third_Party/LwIP/src/core/tcp.c ****     }
 620:Middlewares/Third_Party/LwIP/src/core/tcp.c ****     last_state = pcb->state;
 621:Middlewares/Third_Party/LwIP/src/core/tcp.c ****     tcp_free(pcb);
 622:Middlewares/Third_Party/LwIP/src/core/tcp.c ****     TCP_EVENT_ERR(last_state, errf, errf_arg, ERR_ABRT);
 623:Middlewares/Third_Party/LwIP/src/core/tcp.c ****   }
 624:Middlewares/Third_Party/LwIP/src/core/tcp.c **** }
 625:Middlewares/Third_Party/LwIP/src/core/tcp.c **** 
 626:Middlewares/Third_Party/LwIP/src/core/tcp.c **** /**
 627:Middlewares/Third_Party/LwIP/src/core/tcp.c ****  * @ingroup tcp_raw
 628:Middlewares/Third_Party/LwIP/src/core/tcp.c ****  * Aborts the connection by sending a RST (reset) segment to the remote
 629:Middlewares/Third_Party/LwIP/src/core/tcp.c ****  * host. The pcb is deallocated. This function never fails.
 630:Middlewares/Third_Party/LwIP/src/core/tcp.c ****  *
 631:Middlewares/Third_Party/LwIP/src/core/tcp.c ****  * ATTENTION: When calling this from one of the TCP callbacks, make
 632:Middlewares/Third_Party/LwIP/src/core/tcp.c ****  * sure you always return ERR_ABRT (and never return ERR_ABRT otherwise
 633:Middlewares/Third_Party/LwIP/src/core/tcp.c ****  * or you will risk accessing deallocated memory or memory leaks!
 634:Middlewares/Third_Party/LwIP/src/core/tcp.c ****  *
 635:Middlewares/Third_Party/LwIP/src/core/tcp.c ****  * @param pcb the tcp pcb to abort
 636:Middlewares/Third_Party/LwIP/src/core/tcp.c ****  */
 637:Middlewares/Third_Party/LwIP/src/core/tcp.c **** void
 638:Middlewares/Third_Party/LwIP/src/core/tcp.c **** tcp_abort(struct tcp_pcb *pcb)
 639:Middlewares/Third_Party/LwIP/src/core/tcp.c **** {
 640:Middlewares/Third_Party/LwIP/src/core/tcp.c ****   tcp_abandon(pcb, 1);
 641:Middlewares/Third_Party/LwIP/src/core/tcp.c **** }
 642:Middlewares/Third_Party/LwIP/src/core/tcp.c **** 
 643:Middlewares/Third_Party/LwIP/src/core/tcp.c **** /**
 644:Middlewares/Third_Party/LwIP/src/core/tcp.c ****  * @ingroup tcp_raw
 645:Middlewares/Third_Party/LwIP/src/core/tcp.c ****  * Binds the connection to a local port number and IP address. If the
 646:Middlewares/Third_Party/LwIP/src/core/tcp.c ****  * IP address is not given (i.e., ipaddr == IP_ANY_TYPE), the connection is
 647:Middlewares/Third_Party/LwIP/src/core/tcp.c ****  * bound to all local IP addresses.
 648:Middlewares/Third_Party/LwIP/src/core/tcp.c ****  * If another connection is bound to the same port, the function will
 649:Middlewares/Third_Party/LwIP/src/core/tcp.c ****  * return ERR_USE, otherwise ERR_OK is returned.
 650:Middlewares/Third_Party/LwIP/src/core/tcp.c ****  *
 651:Middlewares/Third_Party/LwIP/src/core/tcp.c ****  * @param pcb the tcp_pcb to bind (no check is done whether this pcb is
 652:Middlewares/Third_Party/LwIP/src/core/tcp.c ****  *        already bound!)
 653:Middlewares/Third_Party/LwIP/src/core/tcp.c ****  * @param ipaddr the local ip address to bind to (use IPx_ADDR_ANY to bind
 654:Middlewares/Third_Party/LwIP/src/core/tcp.c ****  *        to any local address
 655:Middlewares/Third_Party/LwIP/src/core/tcp.c ****  * @param port the local port to bind to
 656:Middlewares/Third_Party/LwIP/src/core/tcp.c ****  * @return ERR_USE if the port is already in use
 657:Middlewares/Third_Party/LwIP/src/core/tcp.c ****  *         ERR_VAL if bind failed because the PCB is not in a valid state
 658:Middlewares/Third_Party/LwIP/src/core/tcp.c ****  *         ERR_OK if bound
ARM GAS  /tmp/ccoUuMsr.s 			page 13


 659:Middlewares/Third_Party/LwIP/src/core/tcp.c ****  */
 660:Middlewares/Third_Party/LwIP/src/core/tcp.c **** err_t
 661:Middlewares/Third_Party/LwIP/src/core/tcp.c **** tcp_bind(struct tcp_pcb *pcb, const ip_addr_t *ipaddr, u16_t port)
 662:Middlewares/Third_Party/LwIP/src/core/tcp.c **** {
 663:Middlewares/Third_Party/LwIP/src/core/tcp.c ****   int i;
 664:Middlewares/Third_Party/LwIP/src/core/tcp.c ****   int max_pcb_list = NUM_TCP_PCB_LISTS;
 665:Middlewares/Third_Party/LwIP/src/core/tcp.c ****   struct tcp_pcb *cpcb;
 666:Middlewares/Third_Party/LwIP/src/core/tcp.c **** #if LWIP_IPV6 && LWIP_IPV6_SCOPES
 667:Middlewares/Third_Party/LwIP/src/core/tcp.c ****   ip_addr_t zoned_ipaddr;
 668:Middlewares/Third_Party/LwIP/src/core/tcp.c **** #endif /* LWIP_IPV6 && LWIP_IPV6_SCOPES */
 669:Middlewares/Third_Party/LwIP/src/core/tcp.c **** 
 670:Middlewares/Third_Party/LwIP/src/core/tcp.c ****   LWIP_ASSERT_CORE_LOCKED();
 671:Middlewares/Third_Party/LwIP/src/core/tcp.c **** 
 672:Middlewares/Third_Party/LwIP/src/core/tcp.c **** #if LWIP_IPV4
 673:Middlewares/Third_Party/LwIP/src/core/tcp.c ****   /* Don't propagate NULL pointer (IPv4 ANY) to subsequent functions */
 674:Middlewares/Third_Party/LwIP/src/core/tcp.c ****   if (ipaddr == NULL) {
 675:Middlewares/Third_Party/LwIP/src/core/tcp.c ****     ipaddr = IP4_ADDR_ANY;
 676:Middlewares/Third_Party/LwIP/src/core/tcp.c ****   }
 677:Middlewares/Third_Party/LwIP/src/core/tcp.c **** #else /* LWIP_IPV4 */
 678:Middlewares/Third_Party/LwIP/src/core/tcp.c ****   LWIP_ERROR("tcp_bind: invalid ipaddr", ipaddr != NULL, return ERR_ARG);
 679:Middlewares/Third_Party/LwIP/src/core/tcp.c **** #endif /* LWIP_IPV4 */
 680:Middlewares/Third_Party/LwIP/src/core/tcp.c **** 
 681:Middlewares/Third_Party/LwIP/src/core/tcp.c ****   LWIP_ERROR("tcp_bind: invalid pcb", pcb != NULL, return ERR_ARG);
 682:Middlewares/Third_Party/LwIP/src/core/tcp.c **** 
 683:Middlewares/Third_Party/LwIP/src/core/tcp.c ****   LWIP_ERROR("tcp_bind: can only bind in state CLOSED", pcb->state == CLOSED, return ERR_VAL);
 684:Middlewares/Third_Party/LwIP/src/core/tcp.c **** 
 685:Middlewares/Third_Party/LwIP/src/core/tcp.c **** #if SO_REUSE
 686:Middlewares/Third_Party/LwIP/src/core/tcp.c ****   /* Unless the REUSEADDR flag is set,
 687:Middlewares/Third_Party/LwIP/src/core/tcp.c ****      we have to check the pcbs in TIME-WAIT state, also.
 688:Middlewares/Third_Party/LwIP/src/core/tcp.c ****      We do not dump TIME_WAIT pcb's; they can still be matched by incoming
 689:Middlewares/Third_Party/LwIP/src/core/tcp.c ****      packets using both local and remote IP addresses and ports to distinguish.
 690:Middlewares/Third_Party/LwIP/src/core/tcp.c ****    */
 691:Middlewares/Third_Party/LwIP/src/core/tcp.c ****   if (ip_get_option(pcb, SOF_REUSEADDR)) {
 692:Middlewares/Third_Party/LwIP/src/core/tcp.c ****     max_pcb_list = NUM_TCP_PCB_LISTS_NO_TIME_WAIT;
 693:Middlewares/Third_Party/LwIP/src/core/tcp.c ****   }
 694:Middlewares/Third_Party/LwIP/src/core/tcp.c **** #endif /* SO_REUSE */
 695:Middlewares/Third_Party/LwIP/src/core/tcp.c **** 
 696:Middlewares/Third_Party/LwIP/src/core/tcp.c **** #if LWIP_IPV6 && LWIP_IPV6_SCOPES
 697:Middlewares/Third_Party/LwIP/src/core/tcp.c ****   /* If the given IP address should have a zone but doesn't, assign one now.
 698:Middlewares/Third_Party/LwIP/src/core/tcp.c ****    * This is legacy support: scope-aware callers should always provide properly
 699:Middlewares/Third_Party/LwIP/src/core/tcp.c ****    * zoned source addresses. Do the zone selection before the address-in-use
 700:Middlewares/Third_Party/LwIP/src/core/tcp.c ****    * check below; as such we have to make a temporary copy of the address. */
 701:Middlewares/Third_Party/LwIP/src/core/tcp.c ****   if (IP_IS_V6(ipaddr) && ip6_addr_lacks_zone(ip_2_ip6(ipaddr), IP6_UNICAST)) {
 702:Middlewares/Third_Party/LwIP/src/core/tcp.c ****     ip_addr_copy(zoned_ipaddr, *ipaddr);
 703:Middlewares/Third_Party/LwIP/src/core/tcp.c ****     ip6_addr_select_zone(ip_2_ip6(&zoned_ipaddr), ip_2_ip6(&zoned_ipaddr));
 704:Middlewares/Third_Party/LwIP/src/core/tcp.c ****     ipaddr = &zoned_ipaddr;
 705:Middlewares/Third_Party/LwIP/src/core/tcp.c ****   }
 706:Middlewares/Third_Party/LwIP/src/core/tcp.c **** #endif /* LWIP_IPV6 && LWIP_IPV6_SCOPES */
 707:Middlewares/Third_Party/LwIP/src/core/tcp.c **** 
 708:Middlewares/Third_Party/LwIP/src/core/tcp.c ****   if (port == 0) {
 709:Middlewares/Third_Party/LwIP/src/core/tcp.c ****     port = tcp_new_port();
 710:Middlewares/Third_Party/LwIP/src/core/tcp.c ****     if (port == 0) {
 711:Middlewares/Third_Party/LwIP/src/core/tcp.c ****       return ERR_BUF;
 712:Middlewares/Third_Party/LwIP/src/core/tcp.c ****     }
 713:Middlewares/Third_Party/LwIP/src/core/tcp.c ****   } else {
 714:Middlewares/Third_Party/LwIP/src/core/tcp.c ****     /* Check if the address already is in use (on all lists) */
 715:Middlewares/Third_Party/LwIP/src/core/tcp.c ****     for (i = 0; i < max_pcb_list; i++) {
ARM GAS  /tmp/ccoUuMsr.s 			page 14


 716:Middlewares/Third_Party/LwIP/src/core/tcp.c ****       for (cpcb = *tcp_pcb_lists[i]; cpcb != NULL; cpcb = cpcb->next) {
 717:Middlewares/Third_Party/LwIP/src/core/tcp.c ****         if (cpcb->local_port == port) {
 718:Middlewares/Third_Party/LwIP/src/core/tcp.c **** #if SO_REUSE
 719:Middlewares/Third_Party/LwIP/src/core/tcp.c ****           /* Omit checking for the same port if both pcbs have REUSEADDR set.
 720:Middlewares/Third_Party/LwIP/src/core/tcp.c ****              For SO_REUSEADDR, the duplicate-check for a 5-tuple is done in
 721:Middlewares/Third_Party/LwIP/src/core/tcp.c ****              tcp_connect. */
 722:Middlewares/Third_Party/LwIP/src/core/tcp.c ****           if (!ip_get_option(pcb, SOF_REUSEADDR) ||
 723:Middlewares/Third_Party/LwIP/src/core/tcp.c ****               !ip_get_option(cpcb, SOF_REUSEADDR))
 724:Middlewares/Third_Party/LwIP/src/core/tcp.c **** #endif /* SO_REUSE */
 725:Middlewares/Third_Party/LwIP/src/core/tcp.c ****           {
 726:Middlewares/Third_Party/LwIP/src/core/tcp.c ****             /* @todo: check accept_any_ip_version */
 727:Middlewares/Third_Party/LwIP/src/core/tcp.c ****             if ((IP_IS_V6(ipaddr) == IP_IS_V6_VAL(cpcb->local_ip)) &&
 728:Middlewares/Third_Party/LwIP/src/core/tcp.c ****                 (ip_addr_isany(&cpcb->local_ip) ||
 729:Middlewares/Third_Party/LwIP/src/core/tcp.c ****                  ip_addr_isany(ipaddr) ||
 730:Middlewares/Third_Party/LwIP/src/core/tcp.c ****                  ip_addr_cmp(&cpcb->local_ip, ipaddr))) {
 731:Middlewares/Third_Party/LwIP/src/core/tcp.c ****               return ERR_USE;
 732:Middlewares/Third_Party/LwIP/src/core/tcp.c ****             }
 733:Middlewares/Third_Party/LwIP/src/core/tcp.c ****           }
 734:Middlewares/Third_Party/LwIP/src/core/tcp.c ****         }
 735:Middlewares/Third_Party/LwIP/src/core/tcp.c ****       }
 736:Middlewares/Third_Party/LwIP/src/core/tcp.c ****     }
 737:Middlewares/Third_Party/LwIP/src/core/tcp.c ****   }
 738:Middlewares/Third_Party/LwIP/src/core/tcp.c **** 
 739:Middlewares/Third_Party/LwIP/src/core/tcp.c ****   if (!ip_addr_isany(ipaddr)
 740:Middlewares/Third_Party/LwIP/src/core/tcp.c **** #if LWIP_IPV4 && LWIP_IPV6
 741:Middlewares/Third_Party/LwIP/src/core/tcp.c ****       || (IP_GET_TYPE(ipaddr) != IP_GET_TYPE(&pcb->local_ip))
 742:Middlewares/Third_Party/LwIP/src/core/tcp.c **** #endif /* LWIP_IPV4 && LWIP_IPV6 */
 743:Middlewares/Third_Party/LwIP/src/core/tcp.c ****      ) {
 744:Middlewares/Third_Party/LwIP/src/core/tcp.c ****     ip_addr_set(&pcb->local_ip, ipaddr);
 745:Middlewares/Third_Party/LwIP/src/core/tcp.c ****   }
 746:Middlewares/Third_Party/LwIP/src/core/tcp.c ****   pcb->local_port = port;
 747:Middlewares/Third_Party/LwIP/src/core/tcp.c ****   TCP_REG(&tcp_bound_pcbs, pcb);
 748:Middlewares/Third_Party/LwIP/src/core/tcp.c ****   LWIP_DEBUGF(TCP_DEBUG, ("tcp_bind: bind to port %"U16_F"\n", port));
 749:Middlewares/Third_Party/LwIP/src/core/tcp.c ****   return ERR_OK;
 750:Middlewares/Third_Party/LwIP/src/core/tcp.c **** }
 751:Middlewares/Third_Party/LwIP/src/core/tcp.c **** 
 752:Middlewares/Third_Party/LwIP/src/core/tcp.c **** /**
 753:Middlewares/Third_Party/LwIP/src/core/tcp.c ****  * @ingroup tcp_raw
 754:Middlewares/Third_Party/LwIP/src/core/tcp.c ****  * Binds the connection to a netif and IP address.
 755:Middlewares/Third_Party/LwIP/src/core/tcp.c ****  * After calling this function, all packets received via this PCB
 756:Middlewares/Third_Party/LwIP/src/core/tcp.c ****  * are guaranteed to have come in via the specified netif, and all
 757:Middlewares/Third_Party/LwIP/src/core/tcp.c ****  * outgoing packets will go out via the specified netif.
 758:Middlewares/Third_Party/LwIP/src/core/tcp.c ****  *
 759:Middlewares/Third_Party/LwIP/src/core/tcp.c ****  * @param pcb the tcp_pcb to bind.
 760:Middlewares/Third_Party/LwIP/src/core/tcp.c ****  * @param netif the netif to bind to. Can be NULL.
 761:Middlewares/Third_Party/LwIP/src/core/tcp.c ****  */
 762:Middlewares/Third_Party/LwIP/src/core/tcp.c **** void
 763:Middlewares/Third_Party/LwIP/src/core/tcp.c **** tcp_bind_netif(struct tcp_pcb *pcb, const struct netif *netif)
 764:Middlewares/Third_Party/LwIP/src/core/tcp.c **** {
 765:Middlewares/Third_Party/LwIP/src/core/tcp.c ****   LWIP_ASSERT_CORE_LOCKED();
 766:Middlewares/Third_Party/LwIP/src/core/tcp.c ****   if (netif != NULL) {
 767:Middlewares/Third_Party/LwIP/src/core/tcp.c ****     pcb->netif_idx = netif_get_index(netif);
 768:Middlewares/Third_Party/LwIP/src/core/tcp.c ****   } else {
 769:Middlewares/Third_Party/LwIP/src/core/tcp.c ****     pcb->netif_idx = NETIF_NO_INDEX;
 770:Middlewares/Third_Party/LwIP/src/core/tcp.c ****   }
 771:Middlewares/Third_Party/LwIP/src/core/tcp.c **** }
 772:Middlewares/Third_Party/LwIP/src/core/tcp.c **** 
ARM GAS  /tmp/ccoUuMsr.s 			page 15


 773:Middlewares/Third_Party/LwIP/src/core/tcp.c **** #if LWIP_CALLBACK_API
 774:Middlewares/Third_Party/LwIP/src/core/tcp.c **** /**
 775:Middlewares/Third_Party/LwIP/src/core/tcp.c ****  * Default accept callback if no accept callback is specified by the user.
 776:Middlewares/Third_Party/LwIP/src/core/tcp.c ****  */
 777:Middlewares/Third_Party/LwIP/src/core/tcp.c **** static err_t
 778:Middlewares/Third_Party/LwIP/src/core/tcp.c **** tcp_accept_null(void *arg, struct tcp_pcb *pcb, err_t err)
 779:Middlewares/Third_Party/LwIP/src/core/tcp.c **** {
 780:Middlewares/Third_Party/LwIP/src/core/tcp.c ****   LWIP_UNUSED_ARG(arg);
 781:Middlewares/Third_Party/LwIP/src/core/tcp.c ****   LWIP_UNUSED_ARG(err);
 782:Middlewares/Third_Party/LwIP/src/core/tcp.c **** 
 783:Middlewares/Third_Party/LwIP/src/core/tcp.c ****   LWIP_ASSERT("tcp_accept_null: invalid pcb", pcb != NULL);
 784:Middlewares/Third_Party/LwIP/src/core/tcp.c **** 
 785:Middlewares/Third_Party/LwIP/src/core/tcp.c ****   tcp_abort(pcb);
 786:Middlewares/Third_Party/LwIP/src/core/tcp.c **** 
 787:Middlewares/Third_Party/LwIP/src/core/tcp.c ****   return ERR_ABRT;
 788:Middlewares/Third_Party/LwIP/src/core/tcp.c **** }
 789:Middlewares/Third_Party/LwIP/src/core/tcp.c **** #endif /* LWIP_CALLBACK_API */
 790:Middlewares/Third_Party/LwIP/src/core/tcp.c **** 
 791:Middlewares/Third_Party/LwIP/src/core/tcp.c **** /**
 792:Middlewares/Third_Party/LwIP/src/core/tcp.c ****  * @ingroup tcp_raw
 793:Middlewares/Third_Party/LwIP/src/core/tcp.c ****  * Set the state of the connection to be LISTEN, which means that it
 794:Middlewares/Third_Party/LwIP/src/core/tcp.c ****  * is able to accept incoming connections. The protocol control block
 795:Middlewares/Third_Party/LwIP/src/core/tcp.c ****  * is reallocated in order to consume less memory. Setting the
 796:Middlewares/Third_Party/LwIP/src/core/tcp.c ****  * connection to LISTEN is an irreversible process.
 797:Middlewares/Third_Party/LwIP/src/core/tcp.c ****  * When an incoming connection is accepted, the function specified with
 798:Middlewares/Third_Party/LwIP/src/core/tcp.c ****  * the tcp_accept() function will be called. The pcb has to be bound
 799:Middlewares/Third_Party/LwIP/src/core/tcp.c ****  * to a local port with the tcp_bind() function.
 800:Middlewares/Third_Party/LwIP/src/core/tcp.c ****  * 
 801:Middlewares/Third_Party/LwIP/src/core/tcp.c ****  * The tcp_listen() function returns a new connection identifier, and
 802:Middlewares/Third_Party/LwIP/src/core/tcp.c ****  * the one passed as an argument to the function will be
 803:Middlewares/Third_Party/LwIP/src/core/tcp.c ****  * deallocated. The reason for this behavior is that less memory is
 804:Middlewares/Third_Party/LwIP/src/core/tcp.c ****  * needed for a connection that is listening, so tcp_listen() will
 805:Middlewares/Third_Party/LwIP/src/core/tcp.c ****  * reclaim the memory needed for the original connection and allocate a
 806:Middlewares/Third_Party/LwIP/src/core/tcp.c ****  * new smaller memory block for the listening connection.
 807:Middlewares/Third_Party/LwIP/src/core/tcp.c ****  *
 808:Middlewares/Third_Party/LwIP/src/core/tcp.c ****  * tcp_listen() may return NULL if no memory was available for the
 809:Middlewares/Third_Party/LwIP/src/core/tcp.c ****  * listening connection. If so, the memory associated with the pcb
 810:Middlewares/Third_Party/LwIP/src/core/tcp.c ****  * passed as an argument to tcp_listen() will not be deallocated.
 811:Middlewares/Third_Party/LwIP/src/core/tcp.c ****  *
 812:Middlewares/Third_Party/LwIP/src/core/tcp.c ****  * The backlog limits the number of outstanding connections
 813:Middlewares/Third_Party/LwIP/src/core/tcp.c ****  * in the listen queue to the value specified by the backlog argument.
 814:Middlewares/Third_Party/LwIP/src/core/tcp.c ****  * To use it, your need to set TCP_LISTEN_BACKLOG=1 in your lwipopts.h.
 815:Middlewares/Third_Party/LwIP/src/core/tcp.c ****  * 
 816:Middlewares/Third_Party/LwIP/src/core/tcp.c ****  * @param pcb the original tcp_pcb
 817:Middlewares/Third_Party/LwIP/src/core/tcp.c ****  * @param backlog the incoming connections queue limit
 818:Middlewares/Third_Party/LwIP/src/core/tcp.c ****  * @return tcp_pcb used for listening, consumes less memory.
 819:Middlewares/Third_Party/LwIP/src/core/tcp.c ****  *
 820:Middlewares/Third_Party/LwIP/src/core/tcp.c ****  * @note The original tcp_pcb is freed. This function therefore has to be
 821:Middlewares/Third_Party/LwIP/src/core/tcp.c ****  *       called like this:
 822:Middlewares/Third_Party/LwIP/src/core/tcp.c ****  *             tpcb = tcp_listen_with_backlog(tpcb, backlog);
 823:Middlewares/Third_Party/LwIP/src/core/tcp.c ****  */
 824:Middlewares/Third_Party/LwIP/src/core/tcp.c **** struct tcp_pcb *
 825:Middlewares/Third_Party/LwIP/src/core/tcp.c **** tcp_listen_with_backlog(struct tcp_pcb *pcb, u8_t backlog)
 826:Middlewares/Third_Party/LwIP/src/core/tcp.c **** {
 827:Middlewares/Third_Party/LwIP/src/core/tcp.c ****   LWIP_ASSERT_CORE_LOCKED();
 828:Middlewares/Third_Party/LwIP/src/core/tcp.c ****   return tcp_listen_with_backlog_and_err(pcb, backlog, NULL);
 829:Middlewares/Third_Party/LwIP/src/core/tcp.c **** }
ARM GAS  /tmp/ccoUuMsr.s 			page 16


 830:Middlewares/Third_Party/LwIP/src/core/tcp.c **** 
 831:Middlewares/Third_Party/LwIP/src/core/tcp.c **** /**
 832:Middlewares/Third_Party/LwIP/src/core/tcp.c ****  * @ingroup tcp_raw
 833:Middlewares/Third_Party/LwIP/src/core/tcp.c ****  * Set the state of the connection to be LISTEN, which means that it
 834:Middlewares/Third_Party/LwIP/src/core/tcp.c ****  * is able to accept incoming connections. The protocol control block
 835:Middlewares/Third_Party/LwIP/src/core/tcp.c ****  * is reallocated in order to consume less memory. Setting the
 836:Middlewares/Third_Party/LwIP/src/core/tcp.c ****  * connection to LISTEN is an irreversible process.
 837:Middlewares/Third_Party/LwIP/src/core/tcp.c ****  *
 838:Middlewares/Third_Party/LwIP/src/core/tcp.c ****  * @param pcb the original tcp_pcb
 839:Middlewares/Third_Party/LwIP/src/core/tcp.c ****  * @param backlog the incoming connections queue limit
 840:Middlewares/Third_Party/LwIP/src/core/tcp.c ****  * @param err when NULL is returned, this contains the error reason
 841:Middlewares/Third_Party/LwIP/src/core/tcp.c ****  * @return tcp_pcb used for listening, consumes less memory.
 842:Middlewares/Third_Party/LwIP/src/core/tcp.c ****  *
 843:Middlewares/Third_Party/LwIP/src/core/tcp.c ****  * @note The original tcp_pcb is freed. This function therefore has to be
 844:Middlewares/Third_Party/LwIP/src/core/tcp.c ****  *       called like this:
 845:Middlewares/Third_Party/LwIP/src/core/tcp.c ****  *             tpcb = tcp_listen_with_backlog_and_err(tpcb, backlog, &err);
 846:Middlewares/Third_Party/LwIP/src/core/tcp.c ****  */
 847:Middlewares/Third_Party/LwIP/src/core/tcp.c **** struct tcp_pcb *
 848:Middlewares/Third_Party/LwIP/src/core/tcp.c **** tcp_listen_with_backlog_and_err(struct tcp_pcb *pcb, u8_t backlog, err_t *err)
 849:Middlewares/Third_Party/LwIP/src/core/tcp.c **** {
 850:Middlewares/Third_Party/LwIP/src/core/tcp.c ****   struct tcp_pcb_listen *lpcb = NULL;
 851:Middlewares/Third_Party/LwIP/src/core/tcp.c ****   err_t res;
 852:Middlewares/Third_Party/LwIP/src/core/tcp.c **** 
 853:Middlewares/Third_Party/LwIP/src/core/tcp.c ****   LWIP_UNUSED_ARG(backlog);
 854:Middlewares/Third_Party/LwIP/src/core/tcp.c **** 
 855:Middlewares/Third_Party/LwIP/src/core/tcp.c ****   LWIP_ASSERT_CORE_LOCKED();
 856:Middlewares/Third_Party/LwIP/src/core/tcp.c **** 
 857:Middlewares/Third_Party/LwIP/src/core/tcp.c ****   LWIP_ERROR("tcp_listen_with_backlog_and_err: invalid pcb", pcb != NULL, res = ERR_ARG; goto done)
 858:Middlewares/Third_Party/LwIP/src/core/tcp.c ****   LWIP_ERROR("tcp_listen_with_backlog_and_err: pcb already connected", pcb->state == CLOSED, res = 
 859:Middlewares/Third_Party/LwIP/src/core/tcp.c **** 
 860:Middlewares/Third_Party/LwIP/src/core/tcp.c ****   /* already listening? */
 861:Middlewares/Third_Party/LwIP/src/core/tcp.c ****   if (pcb->state == LISTEN) {
 862:Middlewares/Third_Party/LwIP/src/core/tcp.c ****     lpcb = (struct tcp_pcb_listen *)pcb;
 863:Middlewares/Third_Party/LwIP/src/core/tcp.c ****     res = ERR_ALREADY;
 864:Middlewares/Third_Party/LwIP/src/core/tcp.c ****     goto done;
 865:Middlewares/Third_Party/LwIP/src/core/tcp.c ****   }
 866:Middlewares/Third_Party/LwIP/src/core/tcp.c **** #if SO_REUSE
 867:Middlewares/Third_Party/LwIP/src/core/tcp.c ****   if (ip_get_option(pcb, SOF_REUSEADDR)) {
 868:Middlewares/Third_Party/LwIP/src/core/tcp.c ****     /* Since SOF_REUSEADDR allows reusing a local address before the pcb's usage
 869:Middlewares/Third_Party/LwIP/src/core/tcp.c ****        is declared (listen-/connection-pcb), we have to make sure now that
 870:Middlewares/Third_Party/LwIP/src/core/tcp.c ****        this port is only used once for every local IP. */
 871:Middlewares/Third_Party/LwIP/src/core/tcp.c ****     for (lpcb = tcp_listen_pcbs.listen_pcbs; lpcb != NULL; lpcb = lpcb->next) {
 872:Middlewares/Third_Party/LwIP/src/core/tcp.c ****       if ((lpcb->local_port == pcb->local_port) &&
 873:Middlewares/Third_Party/LwIP/src/core/tcp.c ****           ip_addr_cmp(&lpcb->local_ip, &pcb->local_ip)) {
 874:Middlewares/Third_Party/LwIP/src/core/tcp.c ****         /* this address/port is already used */
 875:Middlewares/Third_Party/LwIP/src/core/tcp.c ****         lpcb = NULL;
 876:Middlewares/Third_Party/LwIP/src/core/tcp.c ****         res = ERR_USE;
 877:Middlewares/Third_Party/LwIP/src/core/tcp.c ****         goto done;
 878:Middlewares/Third_Party/LwIP/src/core/tcp.c ****       }
 879:Middlewares/Third_Party/LwIP/src/core/tcp.c ****     }
 880:Middlewares/Third_Party/LwIP/src/core/tcp.c ****   }
 881:Middlewares/Third_Party/LwIP/src/core/tcp.c **** #endif /* SO_REUSE */
 882:Middlewares/Third_Party/LwIP/src/core/tcp.c ****   lpcb = (struct tcp_pcb_listen *)memp_malloc(MEMP_TCP_PCB_LISTEN);
 883:Middlewares/Third_Party/LwIP/src/core/tcp.c ****   if (lpcb == NULL) {
 884:Middlewares/Third_Party/LwIP/src/core/tcp.c ****     res = ERR_MEM;
 885:Middlewares/Third_Party/LwIP/src/core/tcp.c ****     goto done;
 886:Middlewares/Third_Party/LwIP/src/core/tcp.c ****   }
ARM GAS  /tmp/ccoUuMsr.s 			page 17


 887:Middlewares/Third_Party/LwIP/src/core/tcp.c ****   lpcb->callback_arg = pcb->callback_arg;
 888:Middlewares/Third_Party/LwIP/src/core/tcp.c ****   lpcb->local_port = pcb->local_port;
 889:Middlewares/Third_Party/LwIP/src/core/tcp.c ****   lpcb->state = LISTEN;
 890:Middlewares/Third_Party/LwIP/src/core/tcp.c ****   lpcb->prio = pcb->prio;
 891:Middlewares/Third_Party/LwIP/src/core/tcp.c ****   lpcb->so_options = pcb->so_options;
 892:Middlewares/Third_Party/LwIP/src/core/tcp.c ****   lpcb->netif_idx = NETIF_NO_INDEX;
 893:Middlewares/Third_Party/LwIP/src/core/tcp.c ****   lpcb->ttl = pcb->ttl;
 894:Middlewares/Third_Party/LwIP/src/core/tcp.c ****   lpcb->tos = pcb->tos;
 895:Middlewares/Third_Party/LwIP/src/core/tcp.c **** #if LWIP_IPV4 && LWIP_IPV6
 896:Middlewares/Third_Party/LwIP/src/core/tcp.c ****   IP_SET_TYPE_VAL(lpcb->remote_ip, pcb->local_ip.type);
 897:Middlewares/Third_Party/LwIP/src/core/tcp.c **** #endif /* LWIP_IPV4 && LWIP_IPV6 */
 898:Middlewares/Third_Party/LwIP/src/core/tcp.c ****   ip_addr_copy(lpcb->local_ip, pcb->local_ip);
 899:Middlewares/Third_Party/LwIP/src/core/tcp.c ****   if (pcb->local_port != 0) {
 900:Middlewares/Third_Party/LwIP/src/core/tcp.c ****     TCP_RMV(&tcp_bound_pcbs, pcb);
 901:Middlewares/Third_Party/LwIP/src/core/tcp.c ****   }
 902:Middlewares/Third_Party/LwIP/src/core/tcp.c **** #if LWIP_TCP_PCB_NUM_EXT_ARGS
 903:Middlewares/Third_Party/LwIP/src/core/tcp.c ****   /* copy over ext_args to listening pcb  */
 904:Middlewares/Third_Party/LwIP/src/core/tcp.c ****   memcpy(&lpcb->ext_args, &pcb->ext_args, sizeof(pcb->ext_args));
 905:Middlewares/Third_Party/LwIP/src/core/tcp.c **** #endif
 906:Middlewares/Third_Party/LwIP/src/core/tcp.c ****   tcp_free(pcb);
 907:Middlewares/Third_Party/LwIP/src/core/tcp.c **** #if LWIP_CALLBACK_API
 908:Middlewares/Third_Party/LwIP/src/core/tcp.c ****   lpcb->accept = tcp_accept_null;
 909:Middlewares/Third_Party/LwIP/src/core/tcp.c **** #endif /* LWIP_CALLBACK_API */
 910:Middlewares/Third_Party/LwIP/src/core/tcp.c **** #if TCP_LISTEN_BACKLOG
 911:Middlewares/Third_Party/LwIP/src/core/tcp.c ****   lpcb->accepts_pending = 0;
 912:Middlewares/Third_Party/LwIP/src/core/tcp.c ****   tcp_backlog_set(lpcb, backlog);
 913:Middlewares/Third_Party/LwIP/src/core/tcp.c **** #endif /* TCP_LISTEN_BACKLOG */
 914:Middlewares/Third_Party/LwIP/src/core/tcp.c ****   TCP_REG(&tcp_listen_pcbs.pcbs, (struct tcp_pcb *)lpcb);
 915:Middlewares/Third_Party/LwIP/src/core/tcp.c ****   res = ERR_OK;
 916:Middlewares/Third_Party/LwIP/src/core/tcp.c **** done:
 917:Middlewares/Third_Party/LwIP/src/core/tcp.c ****   if (err != NULL) {
 918:Middlewares/Third_Party/LwIP/src/core/tcp.c ****     *err = res;
 919:Middlewares/Third_Party/LwIP/src/core/tcp.c ****   }
 920:Middlewares/Third_Party/LwIP/src/core/tcp.c ****   return (struct tcp_pcb *)lpcb;
 921:Middlewares/Third_Party/LwIP/src/core/tcp.c **** }
 922:Middlewares/Third_Party/LwIP/src/core/tcp.c **** 
 923:Middlewares/Third_Party/LwIP/src/core/tcp.c **** /**
 924:Middlewares/Third_Party/LwIP/src/core/tcp.c ****  * Update the state that tracks the available window space to advertise.
 925:Middlewares/Third_Party/LwIP/src/core/tcp.c ****  *
 926:Middlewares/Third_Party/LwIP/src/core/tcp.c ****  * Returns how much extra window would be advertised if we sent an
 927:Middlewares/Third_Party/LwIP/src/core/tcp.c ****  * update now.
 928:Middlewares/Third_Party/LwIP/src/core/tcp.c ****  */
 929:Middlewares/Third_Party/LwIP/src/core/tcp.c **** u32_t
 930:Middlewares/Third_Party/LwIP/src/core/tcp.c **** tcp_update_rcv_ann_wnd(struct tcp_pcb *pcb)
 931:Middlewares/Third_Party/LwIP/src/core/tcp.c **** {
 932:Middlewares/Third_Party/LwIP/src/core/tcp.c ****   u32_t new_right_edge;
 933:Middlewares/Third_Party/LwIP/src/core/tcp.c **** 
 934:Middlewares/Third_Party/LwIP/src/core/tcp.c ****   LWIP_ASSERT("tcp_update_rcv_ann_wnd: invalid pcb", pcb != NULL);
 935:Middlewares/Third_Party/LwIP/src/core/tcp.c ****   new_right_edge = pcb->rcv_nxt + pcb->rcv_wnd;
 936:Middlewares/Third_Party/LwIP/src/core/tcp.c **** 
 937:Middlewares/Third_Party/LwIP/src/core/tcp.c ****   if (TCP_SEQ_GEQ(new_right_edge, pcb->rcv_ann_right_edge + LWIP_MIN((TCP_WND / 2), pcb->mss))) {
 938:Middlewares/Third_Party/LwIP/src/core/tcp.c ****     /* we can advertise more window */
 939:Middlewares/Third_Party/LwIP/src/core/tcp.c ****     pcb->rcv_ann_wnd = pcb->rcv_wnd;
 940:Middlewares/Third_Party/LwIP/src/core/tcp.c ****     return new_right_edge - pcb->rcv_ann_right_edge;
 941:Middlewares/Third_Party/LwIP/src/core/tcp.c ****   } else {
 942:Middlewares/Third_Party/LwIP/src/core/tcp.c ****     if (TCP_SEQ_GT(pcb->rcv_nxt, pcb->rcv_ann_right_edge)) {
 943:Middlewares/Third_Party/LwIP/src/core/tcp.c ****       /* Can happen due to other end sending out of advertised window,
ARM GAS  /tmp/ccoUuMsr.s 			page 18


 944:Middlewares/Third_Party/LwIP/src/core/tcp.c ****        * but within actual available (but not yet advertised) window */
 945:Middlewares/Third_Party/LwIP/src/core/tcp.c ****       pcb->rcv_ann_wnd = 0;
 946:Middlewares/Third_Party/LwIP/src/core/tcp.c ****     } else {
 947:Middlewares/Third_Party/LwIP/src/core/tcp.c ****       /* keep the right edge of window constant */
 948:Middlewares/Third_Party/LwIP/src/core/tcp.c ****       u32_t new_rcv_ann_wnd = pcb->rcv_ann_right_edge - pcb->rcv_nxt;
 949:Middlewares/Third_Party/LwIP/src/core/tcp.c **** #if !LWIP_WND_SCALE
 950:Middlewares/Third_Party/LwIP/src/core/tcp.c ****       LWIP_ASSERT("new_rcv_ann_wnd <= 0xffff", new_rcv_ann_wnd <= 0xffff);
 951:Middlewares/Third_Party/LwIP/src/core/tcp.c **** #endif
 952:Middlewares/Third_Party/LwIP/src/core/tcp.c ****       pcb->rcv_ann_wnd = (tcpwnd_size_t)new_rcv_ann_wnd;
 953:Middlewares/Third_Party/LwIP/src/core/tcp.c ****     }
 954:Middlewares/Third_Party/LwIP/src/core/tcp.c ****     return 0;
 955:Middlewares/Third_Party/LwIP/src/core/tcp.c ****   }
 956:Middlewares/Third_Party/LwIP/src/core/tcp.c **** }
 957:Middlewares/Third_Party/LwIP/src/core/tcp.c **** 
 958:Middlewares/Third_Party/LwIP/src/core/tcp.c **** /**
 959:Middlewares/Third_Party/LwIP/src/core/tcp.c ****  * @ingroup tcp_raw
 960:Middlewares/Third_Party/LwIP/src/core/tcp.c ****  * This function should be called by the application when it has
 961:Middlewares/Third_Party/LwIP/src/core/tcp.c ****  * processed the data. The purpose is to advertise a larger window
 962:Middlewares/Third_Party/LwIP/src/core/tcp.c ****  * when the data has been processed.
 963:Middlewares/Third_Party/LwIP/src/core/tcp.c ****  *
 964:Middlewares/Third_Party/LwIP/src/core/tcp.c ****  * @param pcb the tcp_pcb for which data is read
 965:Middlewares/Third_Party/LwIP/src/core/tcp.c ****  * @param len the amount of bytes that have been read by the application
 966:Middlewares/Third_Party/LwIP/src/core/tcp.c ****  */
 967:Middlewares/Third_Party/LwIP/src/core/tcp.c **** void
 968:Middlewares/Third_Party/LwIP/src/core/tcp.c **** tcp_recved(struct tcp_pcb *pcb, u16_t len)
 969:Middlewares/Third_Party/LwIP/src/core/tcp.c **** {
 970:Middlewares/Third_Party/LwIP/src/core/tcp.c ****   u32_t wnd_inflation;
 971:Middlewares/Third_Party/LwIP/src/core/tcp.c ****   tcpwnd_size_t rcv_wnd;
 972:Middlewares/Third_Party/LwIP/src/core/tcp.c **** 
 973:Middlewares/Third_Party/LwIP/src/core/tcp.c ****   LWIP_ASSERT_CORE_LOCKED();
 974:Middlewares/Third_Party/LwIP/src/core/tcp.c **** 
 975:Middlewares/Third_Party/LwIP/src/core/tcp.c ****   LWIP_ERROR("tcp_recved: invalid pcb", pcb != NULL, return);
 976:Middlewares/Third_Party/LwIP/src/core/tcp.c **** 
 977:Middlewares/Third_Party/LwIP/src/core/tcp.c ****   /* pcb->state LISTEN not allowed here */
 978:Middlewares/Third_Party/LwIP/src/core/tcp.c ****   LWIP_ASSERT("don't call tcp_recved for listen-pcbs",
 979:Middlewares/Third_Party/LwIP/src/core/tcp.c ****               pcb->state != LISTEN);
 980:Middlewares/Third_Party/LwIP/src/core/tcp.c **** 
 981:Middlewares/Third_Party/LwIP/src/core/tcp.c ****   rcv_wnd = (tcpwnd_size_t)(pcb->rcv_wnd + len);
 982:Middlewares/Third_Party/LwIP/src/core/tcp.c ****   if ((rcv_wnd > TCP_WND_MAX(pcb)) || (rcv_wnd < pcb->rcv_wnd)) {
 983:Middlewares/Third_Party/LwIP/src/core/tcp.c ****     /* window got too big or tcpwnd_size_t overflow */
 984:Middlewares/Third_Party/LwIP/src/core/tcp.c ****     LWIP_DEBUGF(TCP_DEBUG, ("tcp_recved: window got too big or tcpwnd_size_t overflow\n"));
 985:Middlewares/Third_Party/LwIP/src/core/tcp.c ****     pcb->rcv_wnd = TCP_WND_MAX(pcb);
 986:Middlewares/Third_Party/LwIP/src/core/tcp.c ****   } else  {
 987:Middlewares/Third_Party/LwIP/src/core/tcp.c ****     pcb->rcv_wnd = rcv_wnd;
 988:Middlewares/Third_Party/LwIP/src/core/tcp.c ****   }
 989:Middlewares/Third_Party/LwIP/src/core/tcp.c **** 
 990:Middlewares/Third_Party/LwIP/src/core/tcp.c ****   wnd_inflation = tcp_update_rcv_ann_wnd(pcb);
 991:Middlewares/Third_Party/LwIP/src/core/tcp.c **** 
 992:Middlewares/Third_Party/LwIP/src/core/tcp.c ****   /* If the change in the right edge of window is significant (default
 993:Middlewares/Third_Party/LwIP/src/core/tcp.c ****    * watermark is TCP_WND/4), then send an explicit update now.
 994:Middlewares/Third_Party/LwIP/src/core/tcp.c ****    * Otherwise wait for a packet to be sent in the normal course of
 995:Middlewares/Third_Party/LwIP/src/core/tcp.c ****    * events (or more window to be available later) */
 996:Middlewares/Third_Party/LwIP/src/core/tcp.c ****   if (wnd_inflation >= TCP_WND_UPDATE_THRESHOLD) {
 997:Middlewares/Third_Party/LwIP/src/core/tcp.c ****     tcp_ack_now(pcb);
 998:Middlewares/Third_Party/LwIP/src/core/tcp.c ****     tcp_output(pcb);
 999:Middlewares/Third_Party/LwIP/src/core/tcp.c ****   }
1000:Middlewares/Third_Party/LwIP/src/core/tcp.c **** 
ARM GAS  /tmp/ccoUuMsr.s 			page 19


1001:Middlewares/Third_Party/LwIP/src/core/tcp.c ****   LWIP_DEBUGF(TCP_DEBUG, ("tcp_recved: received %"U16_F" bytes, wnd %"TCPWNDSIZE_F" (%"TCPWNDSIZE_F
1002:Middlewares/Third_Party/LwIP/src/core/tcp.c ****                           len, pcb->rcv_wnd, (u16_t)(TCP_WND_MAX(pcb) - pcb->rcv_wnd)));
1003:Middlewares/Third_Party/LwIP/src/core/tcp.c **** }
1004:Middlewares/Third_Party/LwIP/src/core/tcp.c **** 
1005:Middlewares/Third_Party/LwIP/src/core/tcp.c **** /**
1006:Middlewares/Third_Party/LwIP/src/core/tcp.c ****  * Allocate a new local TCP port.
1007:Middlewares/Third_Party/LwIP/src/core/tcp.c ****  *
1008:Middlewares/Third_Party/LwIP/src/core/tcp.c ****  * @return a new (free) local TCP port number
1009:Middlewares/Third_Party/LwIP/src/core/tcp.c ****  */
1010:Middlewares/Third_Party/LwIP/src/core/tcp.c **** static u16_t
1011:Middlewares/Third_Party/LwIP/src/core/tcp.c **** tcp_new_port(void)
1012:Middlewares/Third_Party/LwIP/src/core/tcp.c **** {
  28              		.loc 1 1012 1 view -0
  29              		.cfi_startproc
  30              		@ args = 0, pretend = 0, frame = 0
  31              		@ frame_needed = 0, uses_anonymous_args = 0
  32              		@ link register save eliminated.
  33 0000 10B4     		push	{r4}
  34              	.LCFI0:
  35              		.cfi_def_cfa_offset 4
  36              		.cfi_offset 4, -4
1013:Middlewares/Third_Party/LwIP/src/core/tcp.c ****   u8_t i;
  37              		.loc 1 1013 3 view .LVU1
1014:Middlewares/Third_Party/LwIP/src/core/tcp.c ****   u16_t n = 0;
  38              		.loc 1 1014 3 view .LVU2
  39              	.LVL0:
  40              		.loc 1 1014 9 is_stmt 0 view .LVU3
  41 0002 0024     		movs	r4, #0
  42 0004 09E0     		b	.L2
  43              	.LVL1:
  44              	.L13:
1015:Middlewares/Third_Party/LwIP/src/core/tcp.c ****   struct tcp_pcb *pcb;
1016:Middlewares/Third_Party/LwIP/src/core/tcp.c **** 
1017:Middlewares/Third_Party/LwIP/src/core/tcp.c **** again:
1018:Middlewares/Third_Party/LwIP/src/core/tcp.c ****   tcp_port++;
1019:Middlewares/Third_Party/LwIP/src/core/tcp.c ****   if (tcp_port == TCP_LOCAL_PORT_RANGE_END) {
1020:Middlewares/Third_Party/LwIP/src/core/tcp.c ****     tcp_port = TCP_LOCAL_PORT_RANGE_START;
  45              		.loc 1 1020 5 is_stmt 1 view .LVU4
  46              		.loc 1 1020 14 is_stmt 0 view .LVU5
  47 0006 164B     		ldr	r3, .L17
  48 0008 4FF44042 		mov	r2, #49152
  49 000c 1A80     		strh	r2, [r3]	@ movhi
  50 000e 0DE0     		b	.L3
  51              	.LVL2:
  52              	.L16:
1021:Middlewares/Third_Party/LwIP/src/core/tcp.c ****   }
1022:Middlewares/Third_Party/LwIP/src/core/tcp.c ****   /* Check all PCB lists. */
1023:Middlewares/Third_Party/LwIP/src/core/tcp.c ****   for (i = 0; i < NUM_TCP_PCB_LISTS; i++) {
1024:Middlewares/Third_Party/LwIP/src/core/tcp.c ****     for (pcb = *tcp_pcb_lists[i]; pcb != NULL; pcb = pcb->next) {
1025:Middlewares/Third_Party/LwIP/src/core/tcp.c ****       if (pcb->local_port == tcp_port) {
1026:Middlewares/Third_Party/LwIP/src/core/tcp.c ****         n++;
  53              		.loc 1 1026 9 is_stmt 1 view .LVU6
  54              		.loc 1 1026 10 is_stmt 0 view .LVU7
  55 0010 0134     		adds	r4, r4, #1
  56              	.LVL3:
  57              		.loc 1 1026 10 view .LVU8
  58 0012 A4B2     		uxth	r4, r4
ARM GAS  /tmp/ccoUuMsr.s 			page 20


  59              	.LVL4:
1027:Middlewares/Third_Party/LwIP/src/core/tcp.c ****         if (n > (TCP_LOCAL_PORT_RANGE_END - TCP_LOCAL_PORT_RANGE_START)) {
  60              		.loc 1 1027 9 is_stmt 1 view .LVU9
  61              		.loc 1 1027 12 is_stmt 0 view .LVU10
  62 0014 B4F5804F 		cmp	r4, #16384
  63 0018 1FD2     		bcs	.L12
  64              	.LVL5:
  65              	.L2:
1015:Middlewares/Third_Party/LwIP/src/core/tcp.c ****   struct tcp_pcb *pcb;
  66              		.loc 1 1015 3 is_stmt 1 view .LVU11
1018:Middlewares/Third_Party/LwIP/src/core/tcp.c ****   if (tcp_port == TCP_LOCAL_PORT_RANGE_END) {
  67              		.loc 1 1018 3 view .LVU12
1018:Middlewares/Third_Party/LwIP/src/core/tcp.c ****   if (tcp_port == TCP_LOCAL_PORT_RANGE_END) {
  68              		.loc 1 1018 11 is_stmt 0 view .LVU13
  69 001a 114A     		ldr	r2, .L17
  70 001c 1388     		ldrh	r3, [r2]
  71 001e 0133     		adds	r3, r3, #1
  72 0020 9BB2     		uxth	r3, r3
  73 0022 1380     		strh	r3, [r2]	@ movhi
1019:Middlewares/Third_Party/LwIP/src/core/tcp.c ****     tcp_port = TCP_LOCAL_PORT_RANGE_START;
  74              		.loc 1 1019 3 is_stmt 1 view .LVU14
1019:Middlewares/Third_Party/LwIP/src/core/tcp.c ****     tcp_port = TCP_LOCAL_PORT_RANGE_START;
  75              		.loc 1 1019 6 is_stmt 0 view .LVU15
  76 0024 4FF6FF72 		movw	r2, #65535
  77 0028 9342     		cmp	r3, r2
  78 002a ECD0     		beq	.L13
  79              	.L3:
1023:Middlewares/Third_Party/LwIP/src/core/tcp.c ****     for (pcb = *tcp_pcb_lists[i]; pcb != NULL; pcb = pcb->next) {
  80              		.loc 1 1023 3 is_stmt 1 view .LVU16
  81              	.LVL6:
1023:Middlewares/Third_Party/LwIP/src/core/tcp.c ****     for (pcb = *tcp_pcb_lists[i]; pcb != NULL; pcb = pcb->next) {
  82              		.loc 1 1023 10 is_stmt 0 view .LVU17
  83 002c 0020     		movs	r0, #0
  84              	.LVL7:
  85              	.L4:
1023:Middlewares/Third_Party/LwIP/src/core/tcp.c ****     for (pcb = *tcp_pcb_lists[i]; pcb != NULL; pcb = pcb->next) {
  86              		.loc 1 1023 15 is_stmt 1 discriminator 1 view .LVU18
1023:Middlewares/Third_Party/LwIP/src/core/tcp.c ****     for (pcb = *tcp_pcb_lists[i]; pcb != NULL; pcb = pcb->next) {
  87              		.loc 1 1023 3 is_stmt 0 discriminator 1 view .LVU19
  88 002e 0328     		cmp	r0, #3
  89 0030 0ED8     		bhi	.L14
1024:Middlewares/Third_Party/LwIP/src/core/tcp.c ****       if (pcb->local_port == tcp_port) {
  90              		.loc 1 1024 5 is_stmt 1 view .LVU20
1024:Middlewares/Third_Party/LwIP/src/core/tcp.c ****       if (pcb->local_port == tcp_port) {
  91              		.loc 1 1024 30 is_stmt 0 view .LVU21
  92 0032 0C4B     		ldr	r3, .L17+4
  93 0034 53F82030 		ldr	r3, [r3, r0, lsl #2]
1024:Middlewares/Third_Party/LwIP/src/core/tcp.c ****       if (pcb->local_port == tcp_port) {
  94              		.loc 1 1024 14 view .LVU22
  95 0038 1B68     		ldr	r3, [r3]
  96              	.LVL8:
  97              	.L5:
1024:Middlewares/Third_Party/LwIP/src/core/tcp.c ****       if (pcb->local_port == tcp_port) {
  98              		.loc 1 1024 35 is_stmt 1 discriminator 1 view .LVU23
1024:Middlewares/Third_Party/LwIP/src/core/tcp.c ****       if (pcb->local_port == tcp_port) {
  99              		.loc 1 1024 5 is_stmt 0 discriminator 1 view .LVU24
 100 003a 33B1     		cbz	r3, .L15
ARM GAS  /tmp/ccoUuMsr.s 			page 21


1025:Middlewares/Third_Party/LwIP/src/core/tcp.c ****         n++;
 101              		.loc 1 1025 7 is_stmt 1 view .LVU25
1025:Middlewares/Third_Party/LwIP/src/core/tcp.c ****         n++;
 102              		.loc 1 1025 14 is_stmt 0 view .LVU26
 103 003c D98A     		ldrh	r1, [r3, #22]
1025:Middlewares/Third_Party/LwIP/src/core/tcp.c ****         n++;
 104              		.loc 1 1025 27 view .LVU27
 105 003e 084A     		ldr	r2, .L17
 106 0040 1288     		ldrh	r2, [r2]
1025:Middlewares/Third_Party/LwIP/src/core/tcp.c ****         n++;
 107              		.loc 1 1025 10 view .LVU28
 108 0042 9142     		cmp	r1, r2
 109 0044 E4D0     		beq	.L16
1024:Middlewares/Third_Party/LwIP/src/core/tcp.c ****       if (pcb->local_port == tcp_port) {
 110              		.loc 1 1024 48 is_stmt 1 discriminator 2 view .LVU29
1024:Middlewares/Third_Party/LwIP/src/core/tcp.c ****       if (pcb->local_port == tcp_port) {
 111              		.loc 1 1024 52 is_stmt 0 discriminator 2 view .LVU30
 112 0046 DB68     		ldr	r3, [r3, #12]
 113              	.LVL9:
1024:Middlewares/Third_Party/LwIP/src/core/tcp.c ****       if (pcb->local_port == tcp_port) {
 114              		.loc 1 1024 52 discriminator 2 view .LVU31
 115 0048 F7E7     		b	.L5
 116              	.L15:
1023:Middlewares/Third_Party/LwIP/src/core/tcp.c ****     for (pcb = *tcp_pcb_lists[i]; pcb != NULL; pcb = pcb->next) {
 117              		.loc 1 1023 38 is_stmt 1 discriminator 2 view .LVU32
1023:Middlewares/Third_Party/LwIP/src/core/tcp.c ****     for (pcb = *tcp_pcb_lists[i]; pcb != NULL; pcb = pcb->next) {
 118              		.loc 1 1023 39 is_stmt 0 discriminator 2 view .LVU33
 119 004a 0130     		adds	r0, r0, #1
 120              	.LVL10:
1023:Middlewares/Third_Party/LwIP/src/core/tcp.c ****     for (pcb = *tcp_pcb_lists[i]; pcb != NULL; pcb = pcb->next) {
 121              		.loc 1 1023 39 discriminator 2 view .LVU34
 122 004c C0B2     		uxtb	r0, r0
 123              	.LVL11:
1023:Middlewares/Third_Party/LwIP/src/core/tcp.c ****     for (pcb = *tcp_pcb_lists[i]; pcb != NULL; pcb = pcb->next) {
 124              		.loc 1 1023 39 discriminator 2 view .LVU35
 125 004e EEE7     		b	.L4
 126              	.LVL12:
 127              	.L14:
1028:Middlewares/Third_Party/LwIP/src/core/tcp.c ****           return 0;
1029:Middlewares/Third_Party/LwIP/src/core/tcp.c ****         }
1030:Middlewares/Third_Party/LwIP/src/core/tcp.c ****         goto again;
1031:Middlewares/Third_Party/LwIP/src/core/tcp.c ****       }
1032:Middlewares/Third_Party/LwIP/src/core/tcp.c ****     }
1033:Middlewares/Third_Party/LwIP/src/core/tcp.c ****   }
1034:Middlewares/Third_Party/LwIP/src/core/tcp.c ****   return tcp_port;
 128              		.loc 1 1034 3 is_stmt 1 view .LVU36
 129              		.loc 1 1034 10 is_stmt 0 view .LVU37
 130 0050 034B     		ldr	r3, .L17
 131 0052 1888     		ldrh	r0, [r3]
 132              	.LVL13:
 133              	.L7:
1035:Middlewares/Third_Party/LwIP/src/core/tcp.c **** }
 134              		.loc 1 1035 1 view .LVU38
 135 0054 5DF8044B 		ldr	r4, [sp], #4
 136              	.LCFI1:
 137              		.cfi_remember_state
 138              		.cfi_restore 4
ARM GAS  /tmp/ccoUuMsr.s 			page 22


 139              		.cfi_def_cfa_offset 0
 140              	.LVL14:
 141              		.loc 1 1035 1 view .LVU39
 142 0058 7047     		bx	lr
 143              	.LVL15:
 144              	.L12:
 145              	.LCFI2:
 146              		.cfi_restore_state
1028:Middlewares/Third_Party/LwIP/src/core/tcp.c ****           return 0;
 147              		.loc 1 1028 18 view .LVU40
 148 005a 0020     		movs	r0, #0
 149              	.LVL16:
1028:Middlewares/Third_Party/LwIP/src/core/tcp.c ****           return 0;
 150              		.loc 1 1028 18 view .LVU41
 151 005c FAE7     		b	.L7
 152              	.L18:
 153 005e 00BF     		.align	2
 154              	.L17:
 155 0060 00000000 		.word	.LANCHOR0
 156 0064 00000000 		.word	.LANCHOR1
 157              		.cfi_endproc
 158              	.LFE174:
 160              		.section	.rodata.tcp_remove_listener.str1.4,"aMS",%progbits,1
 161              		.align	2
 162              	.LC0:
 163 0000 4D696464 		.ascii	"Middlewares/Third_Party/LwIP/src/core/tcp.c\000"
 163      6C657761 
 163      7265732F 
 163      54686972 
 163      645F5061 
 164              		.align	2
 165              	.LC1:
 166 002c 7463705F 		.ascii	"tcp_remove_listener: invalid listener\000"
 166      72656D6F 
 166      76655F6C 
 166      69737465 
 166      6E65723A 
 167 0052 0000     		.align	2
 168              	.LC2:
 169 0054 41737365 		.ascii	"Assertion \"%s\" failed at line %d in %s\012\000"
 169      7274696F 
 169      6E202225 
 169      73222066 
 169      61696C65 
 170              		.section	.text.tcp_remove_listener,"ax",%progbits
 171              		.align	1
 172              		.syntax unified
 173              		.thumb
 174              		.thumb_func
 175              		.fpu fpv4-sp-d16
 177              	tcp_remove_listener:
 178              	.LVL17:
 179              	.LFB159:
 252:Middlewares/Third_Party/LwIP/src/core/tcp.c ****   struct tcp_pcb *pcb;
 180              		.loc 1 252 1 is_stmt 1 view -0
 181              		.cfi_startproc
 182              		@ args = 0, pretend = 0, frame = 0
ARM GAS  /tmp/ccoUuMsr.s 			page 23


 183              		@ frame_needed = 0, uses_anonymous_args = 0
 252:Middlewares/Third_Party/LwIP/src/core/tcp.c ****   struct tcp_pcb *pcb;
 184              		.loc 1 252 1 is_stmt 0 view .LVU43
 185 0000 38B5     		push	{r3, r4, r5, lr}
 186              	.LCFI3:
 187              		.cfi_def_cfa_offset 16
 188              		.cfi_offset 3, -16
 189              		.cfi_offset 4, -12
 190              		.cfi_offset 5, -8
 191              		.cfi_offset 14, -4
 192 0002 0446     		mov	r4, r0
 253:Middlewares/Third_Party/LwIP/src/core/tcp.c **** 
 193              		.loc 1 253 3 is_stmt 1 view .LVU44
 255:Middlewares/Third_Party/LwIP/src/core/tcp.c **** 
 194              		.loc 1 255 3 view .LVU45
 255:Middlewares/Third_Party/LwIP/src/core/tcp.c **** 
 195              		.loc 1 255 3 view .LVU46
 196 0004 0D46     		mov	r5, r1
 197 0006 49B9     		cbnz	r1, .L21
 255:Middlewares/Third_Party/LwIP/src/core/tcp.c **** 
 198              		.loc 1 255 3 discriminator 1 view .LVU47
 255:Middlewares/Third_Party/LwIP/src/core/tcp.c **** 
 199              		.loc 1 255 3 discriminator 1 view .LVU48
 200 0008 074B     		ldr	r3, .L27
 201 000a FF22     		movs	r2, #255
 202 000c 0749     		ldr	r1, .L27+4
 203              	.LVL18:
 255:Middlewares/Third_Party/LwIP/src/core/tcp.c **** 
 204              		.loc 1 255 3 is_stmt 0 discriminator 1 view .LVU49
 205 000e 0848     		ldr	r0, .L27+8
 206              	.LVL19:
 255:Middlewares/Third_Party/LwIP/src/core/tcp.c **** 
 207              		.loc 1 255 3 discriminator 1 view .LVU50
 208 0010 FFF7FEFF 		bl	printf
 209              	.LVL20:
 210 0014 02E0     		b	.L21
 211              	.LVL21:
 212              	.L26:
 259:Middlewares/Third_Party/LwIP/src/core/tcp.c ****     }
 213              		.loc 1 259 7 is_stmt 1 view .LVU51
 259:Middlewares/Third_Party/LwIP/src/core/tcp.c ****     }
 214              		.loc 1 259 21 is_stmt 0 view .LVU52
 215 0016 0023     		movs	r3, #0
 216 0018 E367     		str	r3, [r4, #124]
 217              	.L22:
 257:Middlewares/Third_Party/LwIP/src/core/tcp.c ****     if (pcb->listener == lpcb) {
 218              		.loc 1 257 33 is_stmt 1 discriminator 2 view .LVU53
 257:Middlewares/Third_Party/LwIP/src/core/tcp.c ****     if (pcb->listener == lpcb) {
 219              		.loc 1 257 37 is_stmt 0 discriminator 2 view .LVU54
 220 001a E468     		ldr	r4, [r4, #12]
 221              	.LVL22:
 222              	.L21:
 257:Middlewares/Third_Party/LwIP/src/core/tcp.c ****     if (pcb->listener == lpcb) {
 223              		.loc 1 257 20 is_stmt 1 discriminator 1 view .LVU55
 257:Middlewares/Third_Party/LwIP/src/core/tcp.c ****     if (pcb->listener == lpcb) {
 224              		.loc 1 257 3 is_stmt 0 discriminator 1 view .LVU56
 225 001c 1CB1     		cbz	r4, .L25
ARM GAS  /tmp/ccoUuMsr.s 			page 24


 258:Middlewares/Third_Party/LwIP/src/core/tcp.c ****       pcb->listener = NULL;
 226              		.loc 1 258 5 is_stmt 1 view .LVU57
 258:Middlewares/Third_Party/LwIP/src/core/tcp.c ****       pcb->listener = NULL;
 227              		.loc 1 258 12 is_stmt 0 view .LVU58
 228 001e E36F     		ldr	r3, [r4, #124]
 258:Middlewares/Third_Party/LwIP/src/core/tcp.c ****       pcb->listener = NULL;
 229              		.loc 1 258 8 view .LVU59
 230 0020 AB42     		cmp	r3, r5
 231 0022 FAD1     		bne	.L22
 232 0024 F7E7     		b	.L26
 233              	.L25:
 262:Middlewares/Third_Party/LwIP/src/core/tcp.c **** #endif
 234              		.loc 1 262 1 view .LVU60
 235 0026 38BD     		pop	{r3, r4, r5, pc}
 236              	.LVL23:
 237              	.L28:
 262:Middlewares/Third_Party/LwIP/src/core/tcp.c **** #endif
 238              		.loc 1 262 1 view .LVU61
 239              		.align	2
 240              	.L27:
 241 0028 00000000 		.word	.LC0
 242 002c 2C000000 		.word	.LC1
 243 0030 54000000 		.word	.LC2
 244              		.cfi_endproc
 245              	.LFE159:
 247              		.section	.rodata.tcp_listen_closed.str1.4,"aMS",%progbits,1
 248              		.align	2
 249              	.LC3:
 250 0000 70636220 		.ascii	"pcb != NULL\000"
 250      213D204E 
 250      554C4C00 
 251              		.align	2
 252              	.LC4:
 253 000c 7063622D 		.ascii	"pcb->state == LISTEN\000"
 253      3E737461 
 253      7465203D 
 253      3D204C49 
 253      5354454E 
 254              		.section	.text.tcp_listen_closed,"ax",%progbits
 255              		.align	1
 256              		.syntax unified
 257              		.thumb
 258              		.thumb_func
 259              		.fpu fpv4-sp-d16
 261              	tcp_listen_closed:
 262              	.LVL24:
 263              	.LFB160:
 270:Middlewares/Third_Party/LwIP/src/core/tcp.c **** #if LWIP_CALLBACK_API || TCP_LISTEN_BACKLOG
 264              		.loc 1 270 1 is_stmt 1 view -0
 265              		.cfi_startproc
 266              		@ args = 0, pretend = 0, frame = 0
 267              		@ frame_needed = 0, uses_anonymous_args = 0
 270:Middlewares/Third_Party/LwIP/src/core/tcp.c **** #if LWIP_CALLBACK_API || TCP_LISTEN_BACKLOG
 268              		.loc 1 270 1 is_stmt 0 view .LVU63
 269 0000 38B5     		push	{r3, r4, r5, lr}
 270              	.LCFI4:
 271              		.cfi_def_cfa_offset 16
ARM GAS  /tmp/ccoUuMsr.s 			page 25


 272              		.cfi_offset 3, -16
 273              		.cfi_offset 4, -12
 274              		.cfi_offset 5, -8
 275              		.cfi_offset 14, -4
 272:Middlewares/Third_Party/LwIP/src/core/tcp.c ****   LWIP_ASSERT("pcb != NULL", pcb != NULL);
 276              		.loc 1 272 3 is_stmt 1 view .LVU64
 273:Middlewares/Third_Party/LwIP/src/core/tcp.c ****   LWIP_ASSERT("pcb->state == LISTEN", pcb->state == LISTEN);
 277              		.loc 1 273 3 view .LVU65
 273:Middlewares/Third_Party/LwIP/src/core/tcp.c ****   LWIP_ASSERT("pcb->state == LISTEN", pcb->state == LISTEN);
 278              		.loc 1 273 3 view .LVU66
 279 0002 0546     		mov	r5, r0
 280 0004 20B1     		cbz	r0, .L35
 281              	.LVL25:
 282              	.L30:
 273:Middlewares/Third_Party/LwIP/src/core/tcp.c ****   LWIP_ASSERT("pcb->state == LISTEN", pcb->state == LISTEN);
 283              		.loc 1 273 3 discriminator 3 view .LVU67
 273:Middlewares/Third_Party/LwIP/src/core/tcp.c ****   LWIP_ASSERT("pcb->state == LISTEN", pcb->state == LISTEN);
 284              		.loc 1 273 3 discriminator 3 view .LVU68
 274:Middlewares/Third_Party/LwIP/src/core/tcp.c ****   for (i = 1; i < LWIP_ARRAYSIZE(tcp_pcb_lists); i++) {
 285              		.loc 1 274 3 discriminator 3 view .LVU69
 274:Middlewares/Third_Party/LwIP/src/core/tcp.c ****   for (i = 1; i < LWIP_ARRAYSIZE(tcp_pcb_lists); i++) {
 286              		.loc 1 274 3 discriminator 3 view .LVU70
 287 0006 2B7D     		ldrb	r3, [r5, #20]	@ zero_extendqisi2
 288 0008 012B     		cmp	r3, #1
 289 000a 09D1     		bne	.L36
 290              	.L31:
 270:Middlewares/Third_Party/LwIP/src/core/tcp.c **** #if LWIP_CALLBACK_API || TCP_LISTEN_BACKLOG
 291              		.loc 1 270 1 is_stmt 0 discriminator 1 view .LVU71
 292 000c 0124     		movs	r4, #1
 293 000e 17E0     		b	.L32
 294              	.LVL26:
 295              	.L35:
 273:Middlewares/Third_Party/LwIP/src/core/tcp.c ****   LWIP_ASSERT("pcb->state == LISTEN", pcb->state == LISTEN);
 296              		.loc 1 273 3 is_stmt 1 discriminator 1 view .LVU72
 273:Middlewares/Third_Party/LwIP/src/core/tcp.c ****   LWIP_ASSERT("pcb->state == LISTEN", pcb->state == LISTEN);
 297              		.loc 1 273 3 discriminator 1 view .LVU73
 298 0010 0D4B     		ldr	r3, .L37
 299 0012 40F21112 		movw	r2, #273
 300 0016 0D49     		ldr	r1, .L37+4
 301 0018 0D48     		ldr	r0, .L37+8
 302              	.LVL27:
 273:Middlewares/Third_Party/LwIP/src/core/tcp.c ****   LWIP_ASSERT("pcb->state == LISTEN", pcb->state == LISTEN);
 303              		.loc 1 273 3 is_stmt 0 discriminator 1 view .LVU74
 304 001a FFF7FEFF 		bl	printf
 305              	.LVL28:
 306 001e F2E7     		b	.L30
 307              	.L36:
 274:Middlewares/Third_Party/LwIP/src/core/tcp.c ****   for (i = 1; i < LWIP_ARRAYSIZE(tcp_pcb_lists); i++) {
 308              		.loc 1 274 3 is_stmt 1 discriminator 1 view .LVU75
 274:Middlewares/Third_Party/LwIP/src/core/tcp.c ****   for (i = 1; i < LWIP_ARRAYSIZE(tcp_pcb_lists); i++) {
 309              		.loc 1 274 3 discriminator 1 view .LVU76
 310 0020 094B     		ldr	r3, .L37
 311 0022 4FF48972 		mov	r2, #274
 312 0026 0B49     		ldr	r1, .L37+12
 313 0028 0948     		ldr	r0, .L37+8
 314 002a FFF7FEFF 		bl	printf
 315              	.LVL29:
ARM GAS  /tmp/ccoUuMsr.s 			page 26


 316 002e EDE7     		b	.L31
 317              	.LVL30:
 318              	.L33:
 276:Middlewares/Third_Party/LwIP/src/core/tcp.c ****   }
 319              		.loc 1 276 5 discriminator 3 view .LVU77
 276:Middlewares/Third_Party/LwIP/src/core/tcp.c ****   }
 320              		.loc 1 276 39 is_stmt 0 discriminator 3 view .LVU78
 321 0030 094B     		ldr	r3, .L37+16
 322 0032 53F82430 		ldr	r3, [r3, r4, lsl #2]
 276:Middlewares/Third_Party/LwIP/src/core/tcp.c ****   }
 323              		.loc 1 276 5 discriminator 3 view .LVU79
 324 0036 2946     		mov	r1, r5
 325 0038 1868     		ldr	r0, [r3]
 326 003a FFF7FEFF 		bl	tcp_remove_listener
 327              	.LVL31:
 275:Middlewares/Third_Party/LwIP/src/core/tcp.c ****     tcp_remove_listener(*tcp_pcb_lists[i], (struct tcp_pcb_listen *)pcb);
 328              		.loc 1 275 50 is_stmt 1 discriminator 3 view .LVU80
 275:Middlewares/Third_Party/LwIP/src/core/tcp.c ****     tcp_remove_listener(*tcp_pcb_lists[i], (struct tcp_pcb_listen *)pcb);
 329              		.loc 1 275 51 is_stmt 0 discriminator 3 view .LVU81
 330 003e 0134     		adds	r4, r4, #1
 331              	.LVL32:
 332              	.L32:
 275:Middlewares/Third_Party/LwIP/src/core/tcp.c ****     tcp_remove_listener(*tcp_pcb_lists[i], (struct tcp_pcb_listen *)pcb);
 333              		.loc 1 275 15 is_stmt 1 discriminator 1 view .LVU82
 275:Middlewares/Third_Party/LwIP/src/core/tcp.c ****     tcp_remove_listener(*tcp_pcb_lists[i], (struct tcp_pcb_listen *)pcb);
 334              		.loc 1 275 3 is_stmt 0 discriminator 1 view .LVU83
 335 0040 032C     		cmp	r4, #3
 336 0042 F5D9     		bls	.L33
 280:Middlewares/Third_Party/LwIP/src/core/tcp.c **** 
 337              		.loc 1 280 1 view .LVU84
 338 0044 38BD     		pop	{r3, r4, r5, pc}
 339              	.LVL33:
 340              	.L38:
 280:Middlewares/Third_Party/LwIP/src/core/tcp.c **** 
 341              		.loc 1 280 1 view .LVU85
 342 0046 00BF     		.align	2
 343              	.L37:
 344 0048 00000000 		.word	.LC0
 345 004c 00000000 		.word	.LC3
 346 0050 54000000 		.word	.LC2
 347 0054 0C000000 		.word	.LC4
 348 0058 00000000 		.word	.LANCHOR1
 349              		.cfi_endproc
 350              	.LFE160:
 352              		.section	.rodata.tcp_free_listen.str1.4,"aMS",%progbits,1
 353              		.align	2
 354              	.LC5:
 355 0000 7463705F 		.ascii	"tcp_free_listen: !LISTEN\000"
 355      66726565 
 355      5F6C6973 
 355      74656E3A 
 355      20214C49 
 356              		.section	.text.tcp_free_listen,"ax",%progbits
 357              		.align	1
 358              		.syntax unified
 359              		.thumb
 360              		.thumb_func
ARM GAS  /tmp/ccoUuMsr.s 			page 27


 361              		.fpu fpv4-sp-d16
 363              	tcp_free_listen:
 364              	.LVL34:
 365              	.LFB157:
 222:Middlewares/Third_Party/LwIP/src/core/tcp.c ****   LWIP_ASSERT("tcp_free_listen: !LISTEN", pcb->state != LISTEN);
 366              		.loc 1 222 1 is_stmt 1 view -0
 367              		.cfi_startproc
 368              		@ args = 0, pretend = 0, frame = 0
 369              		@ frame_needed = 0, uses_anonymous_args = 0
 222:Middlewares/Third_Party/LwIP/src/core/tcp.c ****   LWIP_ASSERT("tcp_free_listen: !LISTEN", pcb->state != LISTEN);
 370              		.loc 1 222 1 is_stmt 0 view .LVU87
 371 0000 10B5     		push	{r4, lr}
 372              	.LCFI5:
 373              		.cfi_def_cfa_offset 8
 374              		.cfi_offset 4, -8
 375              		.cfi_offset 14, -4
 376 0002 0446     		mov	r4, r0
 223:Middlewares/Third_Party/LwIP/src/core/tcp.c **** #if LWIP_TCP_PCB_NUM_EXT_ARGS
 377              		.loc 1 223 3 is_stmt 1 view .LVU88
 223:Middlewares/Third_Party/LwIP/src/core/tcp.c **** #if LWIP_TCP_PCB_NUM_EXT_ARGS
 378              		.loc 1 223 3 view .LVU89
 379 0004 037D     		ldrb	r3, [r0, #20]	@ zero_extendqisi2
 380 0006 012B     		cmp	r3, #1
 381 0008 04D0     		beq	.L42
 382              	.LVL35:
 383              	.L40:
 223:Middlewares/Third_Party/LwIP/src/core/tcp.c **** #if LWIP_TCP_PCB_NUM_EXT_ARGS
 384              		.loc 1 223 3 discriminator 3 view .LVU90
 223:Middlewares/Third_Party/LwIP/src/core/tcp.c **** #if LWIP_TCP_PCB_NUM_EXT_ARGS
 385              		.loc 1 223 3 discriminator 3 view .LVU91
 227:Middlewares/Third_Party/LwIP/src/core/tcp.c **** }
 386              		.loc 1 227 3 discriminator 3 view .LVU92
 387 000a 2146     		mov	r1, r4
 388 000c 0220     		movs	r0, #2
 389 000e FFF7FEFF 		bl	memp_free
 390              	.LVL36:
 228:Middlewares/Third_Party/LwIP/src/core/tcp.c **** 
 391              		.loc 1 228 1 is_stmt 0 discriminator 3 view .LVU93
 392 0012 10BD     		pop	{r4, pc}
 393              	.LVL37:
 394              	.L42:
 223:Middlewares/Third_Party/LwIP/src/core/tcp.c **** #if LWIP_TCP_PCB_NUM_EXT_ARGS
 395              		.loc 1 223 3 is_stmt 1 discriminator 1 view .LVU94
 223:Middlewares/Third_Party/LwIP/src/core/tcp.c **** #if LWIP_TCP_PCB_NUM_EXT_ARGS
 396              		.loc 1 223 3 discriminator 1 view .LVU95
 397 0014 034B     		ldr	r3, .L43
 398 0016 DF22     		movs	r2, #223
 399 0018 0349     		ldr	r1, .L43+4
 400 001a 0448     		ldr	r0, .L43+8
 401              	.LVL38:
 223:Middlewares/Third_Party/LwIP/src/core/tcp.c **** #if LWIP_TCP_PCB_NUM_EXT_ARGS
 402              		.loc 1 223 3 is_stmt 0 discriminator 1 view .LVU96
 403 001c FFF7FEFF 		bl	printf
 404              	.LVL39:
 405 0020 F3E7     		b	.L40
 406              	.L44:
 407 0022 00BF     		.align	2
ARM GAS  /tmp/ccoUuMsr.s 			page 28


 408              	.L43:
 409 0024 00000000 		.word	.LC0
 410 0028 00000000 		.word	.LC5
 411 002c 54000000 		.word	.LC2
 412              		.cfi_endproc
 413              	.LFE157:
 415              		.section	.text.tcp_close_shutdown_fin,"ax",%progbits
 416              		.align	1
 417              		.syntax unified
 418              		.thumb
 419              		.thumb_func
 420              		.fpu fpv4-sp-d16
 422              	tcp_close_shutdown_fin:
 423              	.LVL40:
 424              	.LFB162:
 410:Middlewares/Third_Party/LwIP/src/core/tcp.c ****   err_t err;
 425              		.loc 1 410 1 is_stmt 1 view -0
 426              		.cfi_startproc
 427              		@ args = 0, pretend = 0, frame = 0
 428              		@ frame_needed = 0, uses_anonymous_args = 0
 410:Middlewares/Third_Party/LwIP/src/core/tcp.c ****   err_t err;
 429              		.loc 1 410 1 is_stmt 0 view .LVU98
 430 0000 38B5     		push	{r3, r4, r5, lr}
 431              	.LCFI6:
 432              		.cfi_def_cfa_offset 16
 433              		.cfi_offset 3, -16
 434              		.cfi_offset 4, -12
 435              		.cfi_offset 5, -8
 436              		.cfi_offset 14, -4
 411:Middlewares/Third_Party/LwIP/src/core/tcp.c ****   LWIP_ASSERT("pcb != NULL", pcb != NULL);
 437              		.loc 1 411 3 is_stmt 1 view .LVU99
 412:Middlewares/Third_Party/LwIP/src/core/tcp.c **** 
 438              		.loc 1 412 3 view .LVU100
 412:Middlewares/Third_Party/LwIP/src/core/tcp.c **** 
 439              		.loc 1 412 3 view .LVU101
 440 0002 0546     		mov	r5, r0
 441 0004 48B1     		cbz	r0, .L54
 442              	.LVL41:
 443              	.L46:
 412:Middlewares/Third_Party/LwIP/src/core/tcp.c **** 
 444              		.loc 1 412 3 discriminator 3 view .LVU102
 412:Middlewares/Third_Party/LwIP/src/core/tcp.c **** 
 445              		.loc 1 412 3 discriminator 3 view .LVU103
 414:Middlewares/Third_Party/LwIP/src/core/tcp.c ****     case SYN_RCVD:
 446              		.loc 1 414 3 discriminator 3 view .LVU104
 414:Middlewares/Third_Party/LwIP/src/core/tcp.c ****     case SYN_RCVD:
 447              		.loc 1 414 14 is_stmt 0 discriminator 3 view .LVU105
 448 0006 2B7D     		ldrb	r3, [r5, #20]	@ zero_extendqisi2
 414:Middlewares/Third_Party/LwIP/src/core/tcp.c ****     case SYN_RCVD:
 449              		.loc 1 414 3 discriminator 3 view .LVU106
 450 0008 042B     		cmp	r3, #4
 451 000a 1FD0     		beq	.L47
 414:Middlewares/Third_Party/LwIP/src/core/tcp.c ****     case SYN_RCVD:
 452              		.loc 1 414 3 view .LVU107
 453 000c 072B     		cmp	r3, #7
 454 000e 26D0     		beq	.L48
 455 0010 032B     		cmp	r3, #3
ARM GAS  /tmp/ccoUuMsr.s 			page 29


 456 0012 0AD0     		beq	.L55
 457 0014 0024     		movs	r4, #0
 458              	.L49:
 460:Middlewares/Third_Party/LwIP/src/core/tcp.c **** 
 459              		.loc 1 460 1 view .LVU108
 460 0016 2046     		mov	r0, r4
 461 0018 38BD     		pop	{r3, r4, r5, pc}
 462              	.LVL42:
 463              	.L54:
 412:Middlewares/Third_Party/LwIP/src/core/tcp.c **** 
 464              		.loc 1 412 3 is_stmt 1 discriminator 1 view .LVU109
 412:Middlewares/Third_Party/LwIP/src/core/tcp.c **** 
 465              		.loc 1 412 3 discriminator 1 view .LVU110
 466 001a 174B     		ldr	r3, .L57
 467 001c 4FF4CE72 		mov	r2, #412
 468 0020 1649     		ldr	r1, .L57+4
 469 0022 1748     		ldr	r0, .L57+8
 470              	.LVL43:
 412:Middlewares/Third_Party/LwIP/src/core/tcp.c **** 
 471              		.loc 1 412 3 is_stmt 0 discriminator 1 view .LVU111
 472 0024 FFF7FEFF 		bl	printf
 473              	.LVL44:
 474 0028 EDE7     		b	.L46
 475              	.L55:
 416:Middlewares/Third_Party/LwIP/src/core/tcp.c ****       if (err == ERR_OK) {
 476              		.loc 1 416 7 is_stmt 1 view .LVU112
 416:Middlewares/Third_Party/LwIP/src/core/tcp.c ****       if (err == ERR_OK) {
 477              		.loc 1 416 13 is_stmt 0 view .LVU113
 478 002a 2846     		mov	r0, r5
 479 002c FFF7FEFF 		bl	tcp_send_fin
 480              	.LVL45:
 417:Middlewares/Third_Party/LwIP/src/core/tcp.c ****         tcp_backlog_accepted(pcb);
 481              		.loc 1 417 7 is_stmt 1 view .LVU114
 417:Middlewares/Third_Party/LwIP/src/core/tcp.c ****         tcp_backlog_accepted(pcb);
 482              		.loc 1 417 10 is_stmt 0 view .LVU115
 483 0030 0446     		mov	r4, r0
 484 0032 08B9     		cbnz	r0, .L50
 418:Middlewares/Third_Party/LwIP/src/core/tcp.c ****         MIB2_STATS_INC(mib2.tcpattemptfails);
 485              		.loc 1 418 34 is_stmt 1 view .LVU116
 419:Middlewares/Third_Party/LwIP/src/core/tcp.c ****         pcb->state = FIN_WAIT_1;
 486              		.loc 1 419 45 view .LVU117
 420:Middlewares/Third_Party/LwIP/src/core/tcp.c ****       }
 487              		.loc 1 420 9 view .LVU118
 420:Middlewares/Third_Party/LwIP/src/core/tcp.c ****       }
 488              		.loc 1 420 20 is_stmt 0 view .LVU119
 489 0034 0523     		movs	r3, #5
 490 0036 2B75     		strb	r3, [r5, #20]
 491              	.L50:
 492              	.LVL46:
 442:Middlewares/Third_Party/LwIP/src/core/tcp.c ****     /* To ensure all data has been sent when tcp_close returns, we have
 493              		.loc 1 442 3 is_stmt 1 view .LVU120
 442:Middlewares/Third_Party/LwIP/src/core/tcp.c ****     /* To ensure all data has been sent when tcp_close returns, we have
 494              		.loc 1 442 6 is_stmt 0 view .LVU121
 495 0038 D4B1     		cbz	r4, .L56
 449:Middlewares/Third_Party/LwIP/src/core/tcp.c ****     /* Mark this pcb for closing. Closing is retried from tcp_tmr. */
 496              		.loc 1 449 10 is_stmt 1 view .LVU122
 449:Middlewares/Third_Party/LwIP/src/core/tcp.c ****     /* Mark this pcb for closing. Closing is retried from tcp_tmr. */
ARM GAS  /tmp/ccoUuMsr.s 			page 30


 497              		.loc 1 449 13 is_stmt 0 view .LVU123
 498 003a B4F1FF3F 		cmp	r4, #-1
 499 003e EAD1     		bne	.L49
 451:Middlewares/Third_Party/LwIP/src/core/tcp.c ****     /* We have to return ERR_OK from here to indicate to the callers that this
 500              		.loc 1 451 5 is_stmt 1 view .LVU124
 451:Middlewares/Third_Party/LwIP/src/core/tcp.c ****     /* We have to return ERR_OK from here to indicate to the callers that this
 501              		.loc 1 451 5 view .LVU125
 502 0040 6B8B     		ldrh	r3, [r5, #26]
 503 0042 43F00803 		orr	r3, r3, #8
 504 0046 6B83     		strh	r3, [r5, #26]	@ movhi
 451:Middlewares/Third_Party/LwIP/src/core/tcp.c ****     /* We have to return ERR_OK from here to indicate to the callers that this
 505              		.loc 1 451 5 view .LVU126
 457:Middlewares/Third_Party/LwIP/src/core/tcp.c ****   }
 506              		.loc 1 457 5 view .LVU127
 457:Middlewares/Third_Party/LwIP/src/core/tcp.c ****   }
 507              		.loc 1 457 12 is_stmt 0 view .LVU128
 508 0048 0024     		movs	r4, #0
 509              	.LVL47:
 457:Middlewares/Third_Party/LwIP/src/core/tcp.c ****   }
 510              		.loc 1 457 12 view .LVU129
 511 004a E4E7     		b	.L49
 512              	.L47:
 424:Middlewares/Third_Party/LwIP/src/core/tcp.c ****       if (err == ERR_OK) {
 513              		.loc 1 424 7 is_stmt 1 view .LVU130
 424:Middlewares/Third_Party/LwIP/src/core/tcp.c ****       if (err == ERR_OK) {
 514              		.loc 1 424 13 is_stmt 0 view .LVU131
 515 004c 2846     		mov	r0, r5
 516 004e FFF7FEFF 		bl	tcp_send_fin
 517              	.LVL48:
 425:Middlewares/Third_Party/LwIP/src/core/tcp.c ****         MIB2_STATS_INC(mib2.tcpestabresets);
 518              		.loc 1 425 7 is_stmt 1 view .LVU132
 425:Middlewares/Third_Party/LwIP/src/core/tcp.c ****         MIB2_STATS_INC(mib2.tcpestabresets);
 519              		.loc 1 425 10 is_stmt 0 view .LVU133
 520 0052 0446     		mov	r4, r0
 521 0054 0028     		cmp	r0, #0
 522 0056 EFD1     		bne	.L50
 426:Middlewares/Third_Party/LwIP/src/core/tcp.c ****         pcb->state = FIN_WAIT_1;
 523              		.loc 1 426 44 is_stmt 1 view .LVU134
 427:Middlewares/Third_Party/LwIP/src/core/tcp.c ****       }
 524              		.loc 1 427 9 view .LVU135
 427:Middlewares/Third_Party/LwIP/src/core/tcp.c ****       }
 525              		.loc 1 427 20 is_stmt 0 view .LVU136
 526 0058 0523     		movs	r3, #5
 527 005a 2B75     		strb	r3, [r5, #20]
 528 005c ECE7     		b	.L50
 529              	.LVL49:
 530              	.L48:
 431:Middlewares/Third_Party/LwIP/src/core/tcp.c ****       if (err == ERR_OK) {
 531              		.loc 1 431 7 is_stmt 1 view .LVU137
 431:Middlewares/Third_Party/LwIP/src/core/tcp.c ****       if (err == ERR_OK) {
 532              		.loc 1 431 13 is_stmt 0 view .LVU138
 533 005e 2846     		mov	r0, r5
 534 0060 FFF7FEFF 		bl	tcp_send_fin
 535              	.LVL50:
 432:Middlewares/Third_Party/LwIP/src/core/tcp.c ****         MIB2_STATS_INC(mib2.tcpestabresets);
 536              		.loc 1 432 7 is_stmt 1 view .LVU139
 432:Middlewares/Third_Party/LwIP/src/core/tcp.c ****         MIB2_STATS_INC(mib2.tcpestabresets);
ARM GAS  /tmp/ccoUuMsr.s 			page 31


 537              		.loc 1 432 10 is_stmt 0 view .LVU140
 538 0064 0446     		mov	r4, r0
 539 0066 0028     		cmp	r0, #0
 540 0068 E6D1     		bne	.L50
 433:Middlewares/Third_Party/LwIP/src/core/tcp.c ****         pcb->state = LAST_ACK;
 541              		.loc 1 433 44 is_stmt 1 view .LVU141
 434:Middlewares/Third_Party/LwIP/src/core/tcp.c ****       }
 542              		.loc 1 434 9 view .LVU142
 434:Middlewares/Third_Party/LwIP/src/core/tcp.c ****       }
 543              		.loc 1 434 20 is_stmt 0 view .LVU143
 544 006a 0923     		movs	r3, #9
 545 006c 2B75     		strb	r3, [r5, #20]
 546 006e E3E7     		b	.L50
 547              	.LVL51:
 548              	.L56:
 448:Middlewares/Third_Party/LwIP/src/core/tcp.c ****   } else if (err == ERR_MEM) {
 549              		.loc 1 448 5 is_stmt 1 view .LVU144
 550 0070 2846     		mov	r0, r5
 551 0072 FFF7FEFF 		bl	tcp_output
 552              	.LVL52:
 553 0076 CEE7     		b	.L49
 554              	.L58:
 555              		.align	2
 556              	.L57:
 557 0078 00000000 		.word	.LC0
 558 007c 00000000 		.word	.LC3
 559 0080 54000000 		.word	.LC2
 560              		.cfi_endproc
 561              	.LFE162:
 563              		.section	.text.tcp_handle_closepend,"ax",%progbits
 564              		.align	1
 565              		.syntax unified
 566              		.thumb
 567              		.thumb_func
 568              		.fpu fpv4-sp-d16
 570              	tcp_handle_closepend:
 571              	.LFB188:
1036:Middlewares/Third_Party/LwIP/src/core/tcp.c **** 
1037:Middlewares/Third_Party/LwIP/src/core/tcp.c **** /**
1038:Middlewares/Third_Party/LwIP/src/core/tcp.c ****  * @ingroup tcp_raw
1039:Middlewares/Third_Party/LwIP/src/core/tcp.c ****  * Connects to another host. The function given as the "connected"
1040:Middlewares/Third_Party/LwIP/src/core/tcp.c ****  * argument will be called when the connection has been established.
1041:Middlewares/Third_Party/LwIP/src/core/tcp.c ****  *  Sets up the pcb to connect to the remote host and sends the
1042:Middlewares/Third_Party/LwIP/src/core/tcp.c ****  * initial SYN segment which opens the connection. 
1043:Middlewares/Third_Party/LwIP/src/core/tcp.c ****  *
1044:Middlewares/Third_Party/LwIP/src/core/tcp.c ****  * The tcp_connect() function returns immediately; it does not wait for
1045:Middlewares/Third_Party/LwIP/src/core/tcp.c ****  * the connection to be properly setup. Instead, it will call the
1046:Middlewares/Third_Party/LwIP/src/core/tcp.c ****  * function specified as the fourth argument (the "connected" argument)
1047:Middlewares/Third_Party/LwIP/src/core/tcp.c ****  * when the connection is established. If the connection could not be
1048:Middlewares/Third_Party/LwIP/src/core/tcp.c ****  * properly established, either because the other host refused the
1049:Middlewares/Third_Party/LwIP/src/core/tcp.c ****  * connection or because the other host didn't answer, the "err"
1050:Middlewares/Third_Party/LwIP/src/core/tcp.c ****  * callback function of this pcb (registered with tcp_err, see below)
1051:Middlewares/Third_Party/LwIP/src/core/tcp.c ****  * will be called.
1052:Middlewares/Third_Party/LwIP/src/core/tcp.c ****  *
1053:Middlewares/Third_Party/LwIP/src/core/tcp.c ****  * The tcp_connect() function can return ERR_MEM if no memory is
1054:Middlewares/Third_Party/LwIP/src/core/tcp.c ****  * available for enqueueing the SYN segment. If the SYN indeed was
1055:Middlewares/Third_Party/LwIP/src/core/tcp.c ****  * enqueued successfully, the tcp_connect() function returns ERR_OK.
ARM GAS  /tmp/ccoUuMsr.s 			page 32


1056:Middlewares/Third_Party/LwIP/src/core/tcp.c ****  *
1057:Middlewares/Third_Party/LwIP/src/core/tcp.c ****  * @param pcb the tcp_pcb used to establish the connection
1058:Middlewares/Third_Party/LwIP/src/core/tcp.c ****  * @param ipaddr the remote ip address to connect to
1059:Middlewares/Third_Party/LwIP/src/core/tcp.c ****  * @param port the remote tcp port to connect to
1060:Middlewares/Third_Party/LwIP/src/core/tcp.c ****  * @param connected callback function to call when connected (on error,
1061:Middlewares/Third_Party/LwIP/src/core/tcp.c ****                     the err calback will be called)
1062:Middlewares/Third_Party/LwIP/src/core/tcp.c ****  * @return ERR_VAL if invalid arguments are given
1063:Middlewares/Third_Party/LwIP/src/core/tcp.c ****  *         ERR_OK if connect request has been sent
1064:Middlewares/Third_Party/LwIP/src/core/tcp.c ****  *         other err_t values if connect request couldn't be sent
1065:Middlewares/Third_Party/LwIP/src/core/tcp.c ****  */
1066:Middlewares/Third_Party/LwIP/src/core/tcp.c **** err_t
1067:Middlewares/Third_Party/LwIP/src/core/tcp.c **** tcp_connect(struct tcp_pcb *pcb, const ip_addr_t *ipaddr, u16_t port,
1068:Middlewares/Third_Party/LwIP/src/core/tcp.c ****             tcp_connected_fn connected)
1069:Middlewares/Third_Party/LwIP/src/core/tcp.c **** {
1070:Middlewares/Third_Party/LwIP/src/core/tcp.c ****   struct netif *netif = NULL;
1071:Middlewares/Third_Party/LwIP/src/core/tcp.c ****   err_t ret;
1072:Middlewares/Third_Party/LwIP/src/core/tcp.c ****   u32_t iss;
1073:Middlewares/Third_Party/LwIP/src/core/tcp.c ****   u16_t old_local_port;
1074:Middlewares/Third_Party/LwIP/src/core/tcp.c **** 
1075:Middlewares/Third_Party/LwIP/src/core/tcp.c ****   LWIP_ASSERT_CORE_LOCKED();
1076:Middlewares/Third_Party/LwIP/src/core/tcp.c **** 
1077:Middlewares/Third_Party/LwIP/src/core/tcp.c ****   LWIP_ERROR("tcp_connect: invalid pcb", pcb != NULL, return ERR_ARG);
1078:Middlewares/Third_Party/LwIP/src/core/tcp.c ****   LWIP_ERROR("tcp_connect: invalid ipaddr", ipaddr != NULL, return ERR_ARG);
1079:Middlewares/Third_Party/LwIP/src/core/tcp.c **** 
1080:Middlewares/Third_Party/LwIP/src/core/tcp.c ****   LWIP_ERROR("tcp_connect: can only connect from state CLOSED", pcb->state == CLOSED, return ERR_IS
1081:Middlewares/Third_Party/LwIP/src/core/tcp.c **** 
1082:Middlewares/Third_Party/LwIP/src/core/tcp.c ****   LWIP_DEBUGF(TCP_DEBUG, ("tcp_connect to port %"U16_F"\n", port));
1083:Middlewares/Third_Party/LwIP/src/core/tcp.c ****   ip_addr_set(&pcb->remote_ip, ipaddr);
1084:Middlewares/Third_Party/LwIP/src/core/tcp.c ****   pcb->remote_port = port;
1085:Middlewares/Third_Party/LwIP/src/core/tcp.c **** 
1086:Middlewares/Third_Party/LwIP/src/core/tcp.c ****   if (pcb->netif_idx != NETIF_NO_INDEX) {
1087:Middlewares/Third_Party/LwIP/src/core/tcp.c ****     netif = netif_get_by_index(pcb->netif_idx);
1088:Middlewares/Third_Party/LwIP/src/core/tcp.c ****   } else {
1089:Middlewares/Third_Party/LwIP/src/core/tcp.c ****     /* check if we have a route to the remote host */
1090:Middlewares/Third_Party/LwIP/src/core/tcp.c ****     netif = ip_route(&pcb->local_ip, &pcb->remote_ip);
1091:Middlewares/Third_Party/LwIP/src/core/tcp.c ****   }
1092:Middlewares/Third_Party/LwIP/src/core/tcp.c ****   if (netif == NULL) {
1093:Middlewares/Third_Party/LwIP/src/core/tcp.c ****     /* Don't even try to send a SYN packet if we have no route since that will fail. */
1094:Middlewares/Third_Party/LwIP/src/core/tcp.c ****     return ERR_RTE;
1095:Middlewares/Third_Party/LwIP/src/core/tcp.c ****   }
1096:Middlewares/Third_Party/LwIP/src/core/tcp.c **** 
1097:Middlewares/Third_Party/LwIP/src/core/tcp.c ****   /* check if local IP has been assigned to pcb, if not, get one */
1098:Middlewares/Third_Party/LwIP/src/core/tcp.c ****   if (ip_addr_isany(&pcb->local_ip)) {
1099:Middlewares/Third_Party/LwIP/src/core/tcp.c ****     const ip_addr_t *local_ip = ip_netif_get_local_ip(netif, ipaddr);
1100:Middlewares/Third_Party/LwIP/src/core/tcp.c ****     if (local_ip == NULL) {
1101:Middlewares/Third_Party/LwIP/src/core/tcp.c ****       return ERR_RTE;
1102:Middlewares/Third_Party/LwIP/src/core/tcp.c ****     }
1103:Middlewares/Third_Party/LwIP/src/core/tcp.c ****     ip_addr_copy(pcb->local_ip, *local_ip);
1104:Middlewares/Third_Party/LwIP/src/core/tcp.c ****   }
1105:Middlewares/Third_Party/LwIP/src/core/tcp.c **** 
1106:Middlewares/Third_Party/LwIP/src/core/tcp.c **** #if LWIP_IPV6 && LWIP_IPV6_SCOPES
1107:Middlewares/Third_Party/LwIP/src/core/tcp.c ****   /* If the given IP address should have a zone but doesn't, assign one now.
1108:Middlewares/Third_Party/LwIP/src/core/tcp.c ****    * Given that we already have the target netif, this is easy and cheap. */
1109:Middlewares/Third_Party/LwIP/src/core/tcp.c ****   if (IP_IS_V6(&pcb->remote_ip) &&
1110:Middlewares/Third_Party/LwIP/src/core/tcp.c ****       ip6_addr_lacks_zone(ip_2_ip6(&pcb->remote_ip), IP6_UNICAST)) {
1111:Middlewares/Third_Party/LwIP/src/core/tcp.c ****     ip6_addr_assign_zone(ip_2_ip6(&pcb->remote_ip), IP6_UNICAST, netif);
1112:Middlewares/Third_Party/LwIP/src/core/tcp.c ****   }
ARM GAS  /tmp/ccoUuMsr.s 			page 33


1113:Middlewares/Third_Party/LwIP/src/core/tcp.c **** #endif /* LWIP_IPV6 && LWIP_IPV6_SCOPES */
1114:Middlewares/Third_Party/LwIP/src/core/tcp.c **** 
1115:Middlewares/Third_Party/LwIP/src/core/tcp.c ****   old_local_port = pcb->local_port;
1116:Middlewares/Third_Party/LwIP/src/core/tcp.c ****   if (pcb->local_port == 0) {
1117:Middlewares/Third_Party/LwIP/src/core/tcp.c ****     pcb->local_port = tcp_new_port();
1118:Middlewares/Third_Party/LwIP/src/core/tcp.c ****     if (pcb->local_port == 0) {
1119:Middlewares/Third_Party/LwIP/src/core/tcp.c ****       return ERR_BUF;
1120:Middlewares/Third_Party/LwIP/src/core/tcp.c ****     }
1121:Middlewares/Third_Party/LwIP/src/core/tcp.c ****   } else {
1122:Middlewares/Third_Party/LwIP/src/core/tcp.c **** #if SO_REUSE
1123:Middlewares/Third_Party/LwIP/src/core/tcp.c ****     if (ip_get_option(pcb, SOF_REUSEADDR)) {
1124:Middlewares/Third_Party/LwIP/src/core/tcp.c ****       /* Since SOF_REUSEADDR allows reusing a local address, we have to make sure
1125:Middlewares/Third_Party/LwIP/src/core/tcp.c ****          now that the 5-tuple is unique. */
1126:Middlewares/Third_Party/LwIP/src/core/tcp.c ****       struct tcp_pcb *cpcb;
1127:Middlewares/Third_Party/LwIP/src/core/tcp.c ****       int i;
1128:Middlewares/Third_Party/LwIP/src/core/tcp.c ****       /* Don't check listen- and bound-PCBs, check active- and TIME-WAIT PCBs. */
1129:Middlewares/Third_Party/LwIP/src/core/tcp.c ****       for (i = 2; i < NUM_TCP_PCB_LISTS; i++) {
1130:Middlewares/Third_Party/LwIP/src/core/tcp.c ****         for (cpcb = *tcp_pcb_lists[i]; cpcb != NULL; cpcb = cpcb->next) {
1131:Middlewares/Third_Party/LwIP/src/core/tcp.c ****           if ((cpcb->local_port == pcb->local_port) &&
1132:Middlewares/Third_Party/LwIP/src/core/tcp.c ****               (cpcb->remote_port == port) &&
1133:Middlewares/Third_Party/LwIP/src/core/tcp.c ****               ip_addr_cmp(&cpcb->local_ip, &pcb->local_ip) &&
1134:Middlewares/Third_Party/LwIP/src/core/tcp.c ****               ip_addr_cmp(&cpcb->remote_ip, ipaddr)) {
1135:Middlewares/Third_Party/LwIP/src/core/tcp.c ****             /* linux returns EISCONN here, but ERR_USE should be OK for us */
1136:Middlewares/Third_Party/LwIP/src/core/tcp.c ****             return ERR_USE;
1137:Middlewares/Third_Party/LwIP/src/core/tcp.c ****           }
1138:Middlewares/Third_Party/LwIP/src/core/tcp.c ****         }
1139:Middlewares/Third_Party/LwIP/src/core/tcp.c ****       }
1140:Middlewares/Third_Party/LwIP/src/core/tcp.c ****     }
1141:Middlewares/Third_Party/LwIP/src/core/tcp.c **** #endif /* SO_REUSE */
1142:Middlewares/Third_Party/LwIP/src/core/tcp.c ****   }
1143:Middlewares/Third_Party/LwIP/src/core/tcp.c **** 
1144:Middlewares/Third_Party/LwIP/src/core/tcp.c ****   iss = tcp_next_iss(pcb);
1145:Middlewares/Third_Party/LwIP/src/core/tcp.c ****   pcb->rcv_nxt = 0;
1146:Middlewares/Third_Party/LwIP/src/core/tcp.c ****   pcb->snd_nxt = iss;
1147:Middlewares/Third_Party/LwIP/src/core/tcp.c ****   pcb->lastack = iss - 1;
1148:Middlewares/Third_Party/LwIP/src/core/tcp.c ****   pcb->snd_wl2 = iss - 1;
1149:Middlewares/Third_Party/LwIP/src/core/tcp.c ****   pcb->snd_lbb = iss - 1;
1150:Middlewares/Third_Party/LwIP/src/core/tcp.c ****   /* Start with a window that does not need scaling. When window scaling is
1151:Middlewares/Third_Party/LwIP/src/core/tcp.c ****      enabled and used, the window is enlarged when both sides agree on scaling. */
1152:Middlewares/Third_Party/LwIP/src/core/tcp.c ****   pcb->rcv_wnd = pcb->rcv_ann_wnd = TCPWND_MIN16(TCP_WND);
1153:Middlewares/Third_Party/LwIP/src/core/tcp.c ****   pcb->rcv_ann_right_edge = pcb->rcv_nxt;
1154:Middlewares/Third_Party/LwIP/src/core/tcp.c ****   pcb->snd_wnd = TCP_WND;
1155:Middlewares/Third_Party/LwIP/src/core/tcp.c ****   /* As initial send MSS, we use TCP_MSS but limit it to 536.
1156:Middlewares/Third_Party/LwIP/src/core/tcp.c ****      The send MSS is updated when an MSS option is received. */
1157:Middlewares/Third_Party/LwIP/src/core/tcp.c ****   pcb->mss = INITIAL_MSS;
1158:Middlewares/Third_Party/LwIP/src/core/tcp.c **** #if TCP_CALCULATE_EFF_SEND_MSS
1159:Middlewares/Third_Party/LwIP/src/core/tcp.c ****   pcb->mss = tcp_eff_send_mss_netif(pcb->mss, netif, &pcb->remote_ip);
1160:Middlewares/Third_Party/LwIP/src/core/tcp.c **** #endif /* TCP_CALCULATE_EFF_SEND_MSS */
1161:Middlewares/Third_Party/LwIP/src/core/tcp.c ****   pcb->cwnd = 1;
1162:Middlewares/Third_Party/LwIP/src/core/tcp.c **** #if LWIP_CALLBACK_API
1163:Middlewares/Third_Party/LwIP/src/core/tcp.c ****   pcb->connected = connected;
1164:Middlewares/Third_Party/LwIP/src/core/tcp.c **** #else /* LWIP_CALLBACK_API */
1165:Middlewares/Third_Party/LwIP/src/core/tcp.c ****   LWIP_UNUSED_ARG(connected);
1166:Middlewares/Third_Party/LwIP/src/core/tcp.c **** #endif /* LWIP_CALLBACK_API */
1167:Middlewares/Third_Party/LwIP/src/core/tcp.c **** 
1168:Middlewares/Third_Party/LwIP/src/core/tcp.c ****   /* Send a SYN together with the MSS option. */
1169:Middlewares/Third_Party/LwIP/src/core/tcp.c ****   ret = tcp_enqueue_flags(pcb, TCP_SYN);
ARM GAS  /tmp/ccoUuMsr.s 			page 34


1170:Middlewares/Third_Party/LwIP/src/core/tcp.c ****   if (ret == ERR_OK) {
1171:Middlewares/Third_Party/LwIP/src/core/tcp.c ****     /* SYN segment was enqueued, changed the pcbs state now */
1172:Middlewares/Third_Party/LwIP/src/core/tcp.c ****     pcb->state = SYN_SENT;
1173:Middlewares/Third_Party/LwIP/src/core/tcp.c ****     if (old_local_port != 0) {
1174:Middlewares/Third_Party/LwIP/src/core/tcp.c ****       TCP_RMV(&tcp_bound_pcbs, pcb);
1175:Middlewares/Third_Party/LwIP/src/core/tcp.c ****     }
1176:Middlewares/Third_Party/LwIP/src/core/tcp.c ****     TCP_REG_ACTIVE(pcb);
1177:Middlewares/Third_Party/LwIP/src/core/tcp.c ****     MIB2_STATS_INC(mib2.tcpactiveopens);
1178:Middlewares/Third_Party/LwIP/src/core/tcp.c **** 
1179:Middlewares/Third_Party/LwIP/src/core/tcp.c ****     tcp_output(pcb);
1180:Middlewares/Third_Party/LwIP/src/core/tcp.c ****   }
1181:Middlewares/Third_Party/LwIP/src/core/tcp.c ****   return ret;
1182:Middlewares/Third_Party/LwIP/src/core/tcp.c **** }
1183:Middlewares/Third_Party/LwIP/src/core/tcp.c **** 
1184:Middlewares/Third_Party/LwIP/src/core/tcp.c **** /**
1185:Middlewares/Third_Party/LwIP/src/core/tcp.c ****  * Called every 500 ms and implements the retransmission timer and the timer that
1186:Middlewares/Third_Party/LwIP/src/core/tcp.c ****  * removes PCBs that have been in TIME-WAIT for enough time. It also increments
1187:Middlewares/Third_Party/LwIP/src/core/tcp.c ****  * various timers such as the inactivity timer in each PCB.
1188:Middlewares/Third_Party/LwIP/src/core/tcp.c ****  *
1189:Middlewares/Third_Party/LwIP/src/core/tcp.c ****  * Automatically called from tcp_tmr().
1190:Middlewares/Third_Party/LwIP/src/core/tcp.c ****  */
1191:Middlewares/Third_Party/LwIP/src/core/tcp.c **** void
1192:Middlewares/Third_Party/LwIP/src/core/tcp.c **** tcp_slowtmr(void)
1193:Middlewares/Third_Party/LwIP/src/core/tcp.c **** {
1194:Middlewares/Third_Party/LwIP/src/core/tcp.c ****   struct tcp_pcb *pcb, *prev;
1195:Middlewares/Third_Party/LwIP/src/core/tcp.c ****   tcpwnd_size_t eff_wnd;
1196:Middlewares/Third_Party/LwIP/src/core/tcp.c ****   u8_t pcb_remove;      /* flag if a PCB should be removed */
1197:Middlewares/Third_Party/LwIP/src/core/tcp.c ****   u8_t pcb_reset;       /* flag if a RST should be sent when removing */
1198:Middlewares/Third_Party/LwIP/src/core/tcp.c ****   err_t err;
1199:Middlewares/Third_Party/LwIP/src/core/tcp.c **** 
1200:Middlewares/Third_Party/LwIP/src/core/tcp.c ****   err = ERR_OK;
1201:Middlewares/Third_Party/LwIP/src/core/tcp.c **** 
1202:Middlewares/Third_Party/LwIP/src/core/tcp.c ****   ++tcp_ticks;
1203:Middlewares/Third_Party/LwIP/src/core/tcp.c ****   ++tcp_timer_ctr;
1204:Middlewares/Third_Party/LwIP/src/core/tcp.c **** 
1205:Middlewares/Third_Party/LwIP/src/core/tcp.c **** tcp_slowtmr_start:
1206:Middlewares/Third_Party/LwIP/src/core/tcp.c ****   /* Steps through all of the active PCBs. */
1207:Middlewares/Third_Party/LwIP/src/core/tcp.c ****   prev = NULL;
1208:Middlewares/Third_Party/LwIP/src/core/tcp.c ****   pcb = tcp_active_pcbs;
1209:Middlewares/Third_Party/LwIP/src/core/tcp.c ****   if (pcb == NULL) {
1210:Middlewares/Third_Party/LwIP/src/core/tcp.c ****     LWIP_DEBUGF(TCP_DEBUG, ("tcp_slowtmr: no active pcbs\n"));
1211:Middlewares/Third_Party/LwIP/src/core/tcp.c ****   }
1212:Middlewares/Third_Party/LwIP/src/core/tcp.c ****   while (pcb != NULL) {
1213:Middlewares/Third_Party/LwIP/src/core/tcp.c ****     LWIP_DEBUGF(TCP_DEBUG, ("tcp_slowtmr: processing active pcb\n"));
1214:Middlewares/Third_Party/LwIP/src/core/tcp.c ****     LWIP_ASSERT("tcp_slowtmr: active pcb->state != CLOSED\n", pcb->state != CLOSED);
1215:Middlewares/Third_Party/LwIP/src/core/tcp.c ****     LWIP_ASSERT("tcp_slowtmr: active pcb->state != LISTEN\n", pcb->state != LISTEN);
1216:Middlewares/Third_Party/LwIP/src/core/tcp.c ****     LWIP_ASSERT("tcp_slowtmr: active pcb->state != TIME-WAIT\n", pcb->state != TIME_WAIT);
1217:Middlewares/Third_Party/LwIP/src/core/tcp.c ****     if (pcb->last_timer == tcp_timer_ctr) {
1218:Middlewares/Third_Party/LwIP/src/core/tcp.c ****       /* skip this pcb, we have already processed it */
1219:Middlewares/Third_Party/LwIP/src/core/tcp.c ****       prev = pcb;
1220:Middlewares/Third_Party/LwIP/src/core/tcp.c ****       pcb = pcb->next;
1221:Middlewares/Third_Party/LwIP/src/core/tcp.c ****       continue;
1222:Middlewares/Third_Party/LwIP/src/core/tcp.c ****     }
1223:Middlewares/Third_Party/LwIP/src/core/tcp.c ****     pcb->last_timer = tcp_timer_ctr;
1224:Middlewares/Third_Party/LwIP/src/core/tcp.c **** 
1225:Middlewares/Third_Party/LwIP/src/core/tcp.c ****     pcb_remove = 0;
1226:Middlewares/Third_Party/LwIP/src/core/tcp.c ****     pcb_reset = 0;
ARM GAS  /tmp/ccoUuMsr.s 			page 35


1227:Middlewares/Third_Party/LwIP/src/core/tcp.c **** 
1228:Middlewares/Third_Party/LwIP/src/core/tcp.c ****     if (pcb->state == SYN_SENT && pcb->nrtx >= TCP_SYNMAXRTX) {
1229:Middlewares/Third_Party/LwIP/src/core/tcp.c ****       ++pcb_remove;
1230:Middlewares/Third_Party/LwIP/src/core/tcp.c ****       LWIP_DEBUGF(TCP_DEBUG, ("tcp_slowtmr: max SYN retries reached\n"));
1231:Middlewares/Third_Party/LwIP/src/core/tcp.c ****     } else if (pcb->nrtx >= TCP_MAXRTX) {
1232:Middlewares/Third_Party/LwIP/src/core/tcp.c ****       ++pcb_remove;
1233:Middlewares/Third_Party/LwIP/src/core/tcp.c ****       LWIP_DEBUGF(TCP_DEBUG, ("tcp_slowtmr: max DATA retries reached\n"));
1234:Middlewares/Third_Party/LwIP/src/core/tcp.c ****     } else {
1235:Middlewares/Third_Party/LwIP/src/core/tcp.c ****       if (pcb->persist_backoff > 0) {
1236:Middlewares/Third_Party/LwIP/src/core/tcp.c ****         LWIP_ASSERT("tcp_slowtimr: persist ticking with in-flight data", pcb->unacked == NULL);
1237:Middlewares/Third_Party/LwIP/src/core/tcp.c ****         LWIP_ASSERT("tcp_slowtimr: persist ticking with empty send buffer", pcb->unsent != NULL);
1238:Middlewares/Third_Party/LwIP/src/core/tcp.c ****         if (pcb->persist_probe >= TCP_MAXRTX) {
1239:Middlewares/Third_Party/LwIP/src/core/tcp.c ****           ++pcb_remove; /* max probes reached */
1240:Middlewares/Third_Party/LwIP/src/core/tcp.c ****         } else {
1241:Middlewares/Third_Party/LwIP/src/core/tcp.c ****           u8_t backoff_cnt = tcp_persist_backoff[pcb->persist_backoff - 1];
1242:Middlewares/Third_Party/LwIP/src/core/tcp.c ****           if (pcb->persist_cnt < backoff_cnt) {
1243:Middlewares/Third_Party/LwIP/src/core/tcp.c ****             pcb->persist_cnt++;
1244:Middlewares/Third_Party/LwIP/src/core/tcp.c ****           }
1245:Middlewares/Third_Party/LwIP/src/core/tcp.c ****           if (pcb->persist_cnt >= backoff_cnt) {
1246:Middlewares/Third_Party/LwIP/src/core/tcp.c ****             int next_slot = 1; /* increment timer to next slot */
1247:Middlewares/Third_Party/LwIP/src/core/tcp.c ****             /* If snd_wnd is zero, send 1 byte probes */
1248:Middlewares/Third_Party/LwIP/src/core/tcp.c ****             if (pcb->snd_wnd == 0) {
1249:Middlewares/Third_Party/LwIP/src/core/tcp.c ****               if (tcp_zero_window_probe(pcb) != ERR_OK) {
1250:Middlewares/Third_Party/LwIP/src/core/tcp.c ****                 next_slot = 0; /* try probe again with current slot */
1251:Middlewares/Third_Party/LwIP/src/core/tcp.c ****               }
1252:Middlewares/Third_Party/LwIP/src/core/tcp.c ****               /* snd_wnd not fully closed, split unsent head and fill window */
1253:Middlewares/Third_Party/LwIP/src/core/tcp.c ****             } else {
1254:Middlewares/Third_Party/LwIP/src/core/tcp.c ****               if (tcp_split_unsent_seg(pcb, (u16_t)pcb->snd_wnd) == ERR_OK) {
1255:Middlewares/Third_Party/LwIP/src/core/tcp.c ****                 if (tcp_output(pcb) == ERR_OK) {
1256:Middlewares/Third_Party/LwIP/src/core/tcp.c ****                   /* sending will cancel persist timer, else retry with current slot */
1257:Middlewares/Third_Party/LwIP/src/core/tcp.c ****                   next_slot = 0;
1258:Middlewares/Third_Party/LwIP/src/core/tcp.c ****                 }
1259:Middlewares/Third_Party/LwIP/src/core/tcp.c ****               }
1260:Middlewares/Third_Party/LwIP/src/core/tcp.c ****             }
1261:Middlewares/Third_Party/LwIP/src/core/tcp.c ****             if (next_slot) {
1262:Middlewares/Third_Party/LwIP/src/core/tcp.c ****               pcb->persist_cnt = 0;
1263:Middlewares/Third_Party/LwIP/src/core/tcp.c ****               if (pcb->persist_backoff < sizeof(tcp_persist_backoff)) {
1264:Middlewares/Third_Party/LwIP/src/core/tcp.c ****                 pcb->persist_backoff++;
1265:Middlewares/Third_Party/LwIP/src/core/tcp.c ****               }
1266:Middlewares/Third_Party/LwIP/src/core/tcp.c ****             }
1267:Middlewares/Third_Party/LwIP/src/core/tcp.c ****           }
1268:Middlewares/Third_Party/LwIP/src/core/tcp.c ****         }
1269:Middlewares/Third_Party/LwIP/src/core/tcp.c ****       } else {
1270:Middlewares/Third_Party/LwIP/src/core/tcp.c ****         /* Increase the retransmission timer if it is running */
1271:Middlewares/Third_Party/LwIP/src/core/tcp.c ****         if ((pcb->rtime >= 0) && (pcb->rtime < 0x7FFF)) {
1272:Middlewares/Third_Party/LwIP/src/core/tcp.c ****           ++pcb->rtime;
1273:Middlewares/Third_Party/LwIP/src/core/tcp.c ****         }
1274:Middlewares/Third_Party/LwIP/src/core/tcp.c **** 
1275:Middlewares/Third_Party/LwIP/src/core/tcp.c ****         if (pcb->rtime >= pcb->rto) {
1276:Middlewares/Third_Party/LwIP/src/core/tcp.c ****           /* Time for a retransmission. */
1277:Middlewares/Third_Party/LwIP/src/core/tcp.c ****           LWIP_DEBUGF(TCP_RTO_DEBUG, ("tcp_slowtmr: rtime %"S16_F
1278:Middlewares/Third_Party/LwIP/src/core/tcp.c ****                                       " pcb->rto %"S16_F"\n",
1279:Middlewares/Third_Party/LwIP/src/core/tcp.c ****                                       pcb->rtime, pcb->rto));
1280:Middlewares/Third_Party/LwIP/src/core/tcp.c ****           /* If prepare phase fails but we have unsent data but no unacked data,
1281:Middlewares/Third_Party/LwIP/src/core/tcp.c ****              still execute the backoff calculations below, as this means we somehow
1282:Middlewares/Third_Party/LwIP/src/core/tcp.c ****              failed to send segment. */
1283:Middlewares/Third_Party/LwIP/src/core/tcp.c ****           if ((tcp_rexmit_rto_prepare(pcb) == ERR_OK) || ((pcb->unacked == NULL) && (pcb->unsent !=
ARM GAS  /tmp/ccoUuMsr.s 			page 36


1284:Middlewares/Third_Party/LwIP/src/core/tcp.c ****             /* Double retransmission time-out unless we are trying to
1285:Middlewares/Third_Party/LwIP/src/core/tcp.c ****              * connect to somebody (i.e., we are in SYN_SENT). */
1286:Middlewares/Third_Party/LwIP/src/core/tcp.c ****             if (pcb->state != SYN_SENT) {
1287:Middlewares/Third_Party/LwIP/src/core/tcp.c ****               u8_t backoff_idx = LWIP_MIN(pcb->nrtx, sizeof(tcp_backoff) - 1);
1288:Middlewares/Third_Party/LwIP/src/core/tcp.c ****               int calc_rto = ((pcb->sa >> 3) + pcb->sv) << tcp_backoff[backoff_idx];
1289:Middlewares/Third_Party/LwIP/src/core/tcp.c ****               pcb->rto = (s16_t)LWIP_MIN(calc_rto, 0x7FFF);
1290:Middlewares/Third_Party/LwIP/src/core/tcp.c ****             }
1291:Middlewares/Third_Party/LwIP/src/core/tcp.c **** 
1292:Middlewares/Third_Party/LwIP/src/core/tcp.c ****             /* Reset the retransmission timer. */
1293:Middlewares/Third_Party/LwIP/src/core/tcp.c ****             pcb->rtime = 0;
1294:Middlewares/Third_Party/LwIP/src/core/tcp.c **** 
1295:Middlewares/Third_Party/LwIP/src/core/tcp.c ****             /* Reduce congestion window and ssthresh. */
1296:Middlewares/Third_Party/LwIP/src/core/tcp.c ****             eff_wnd = LWIP_MIN(pcb->cwnd, pcb->snd_wnd);
1297:Middlewares/Third_Party/LwIP/src/core/tcp.c ****             pcb->ssthresh = eff_wnd >> 1;
1298:Middlewares/Third_Party/LwIP/src/core/tcp.c ****             if (pcb->ssthresh < (tcpwnd_size_t)(pcb->mss << 1)) {
1299:Middlewares/Third_Party/LwIP/src/core/tcp.c ****               pcb->ssthresh = (tcpwnd_size_t)(pcb->mss << 1);
1300:Middlewares/Third_Party/LwIP/src/core/tcp.c ****             }
1301:Middlewares/Third_Party/LwIP/src/core/tcp.c ****             pcb->cwnd = pcb->mss;
1302:Middlewares/Third_Party/LwIP/src/core/tcp.c ****             LWIP_DEBUGF(TCP_CWND_DEBUG, ("tcp_slowtmr: cwnd %"TCPWNDSIZE_F
1303:Middlewares/Third_Party/LwIP/src/core/tcp.c ****                                          " ssthresh %"TCPWNDSIZE_F"\n",
1304:Middlewares/Third_Party/LwIP/src/core/tcp.c ****                                          pcb->cwnd, pcb->ssthresh));
1305:Middlewares/Third_Party/LwIP/src/core/tcp.c ****             pcb->bytes_acked = 0;
1306:Middlewares/Third_Party/LwIP/src/core/tcp.c **** 
1307:Middlewares/Third_Party/LwIP/src/core/tcp.c ****             /* The following needs to be called AFTER cwnd is set to one
1308:Middlewares/Third_Party/LwIP/src/core/tcp.c ****                mss - STJ */
1309:Middlewares/Third_Party/LwIP/src/core/tcp.c ****             tcp_rexmit_rto_commit(pcb);
1310:Middlewares/Third_Party/LwIP/src/core/tcp.c ****           }
1311:Middlewares/Third_Party/LwIP/src/core/tcp.c ****         }
1312:Middlewares/Third_Party/LwIP/src/core/tcp.c ****       }
1313:Middlewares/Third_Party/LwIP/src/core/tcp.c ****     }
1314:Middlewares/Third_Party/LwIP/src/core/tcp.c ****     /* Check if this PCB has stayed too long in FIN-WAIT-2 */
1315:Middlewares/Third_Party/LwIP/src/core/tcp.c ****     if (pcb->state == FIN_WAIT_2) {
1316:Middlewares/Third_Party/LwIP/src/core/tcp.c ****       /* If this PCB is in FIN_WAIT_2 because of SHUT_WR don't let it time out. */
1317:Middlewares/Third_Party/LwIP/src/core/tcp.c ****       if (pcb->flags & TF_RXCLOSED) {
1318:Middlewares/Third_Party/LwIP/src/core/tcp.c ****         /* PCB was fully closed (either through close() or SHUT_RDWR):
1319:Middlewares/Third_Party/LwIP/src/core/tcp.c ****            normal FIN-WAIT timeout handling. */
1320:Middlewares/Third_Party/LwIP/src/core/tcp.c ****         if ((u32_t)(tcp_ticks - pcb->tmr) >
1321:Middlewares/Third_Party/LwIP/src/core/tcp.c ****             TCP_FIN_WAIT_TIMEOUT / TCP_SLOW_INTERVAL) {
1322:Middlewares/Third_Party/LwIP/src/core/tcp.c ****           ++pcb_remove;
1323:Middlewares/Third_Party/LwIP/src/core/tcp.c ****           LWIP_DEBUGF(TCP_DEBUG, ("tcp_slowtmr: removing pcb stuck in FIN-WAIT-2\n"));
1324:Middlewares/Third_Party/LwIP/src/core/tcp.c ****         }
1325:Middlewares/Third_Party/LwIP/src/core/tcp.c ****       }
1326:Middlewares/Third_Party/LwIP/src/core/tcp.c ****     }
1327:Middlewares/Third_Party/LwIP/src/core/tcp.c **** 
1328:Middlewares/Third_Party/LwIP/src/core/tcp.c ****     /* Check if KEEPALIVE should be sent */
1329:Middlewares/Third_Party/LwIP/src/core/tcp.c ****     if (ip_get_option(pcb, SOF_KEEPALIVE) &&
1330:Middlewares/Third_Party/LwIP/src/core/tcp.c ****         ((pcb->state == ESTABLISHED) ||
1331:Middlewares/Third_Party/LwIP/src/core/tcp.c ****          (pcb->state == CLOSE_WAIT))) {
1332:Middlewares/Third_Party/LwIP/src/core/tcp.c ****       if ((u32_t)(tcp_ticks - pcb->tmr) >
1333:Middlewares/Third_Party/LwIP/src/core/tcp.c ****           (pcb->keep_idle + TCP_KEEP_DUR(pcb)) / TCP_SLOW_INTERVAL) {
1334:Middlewares/Third_Party/LwIP/src/core/tcp.c ****         LWIP_DEBUGF(TCP_DEBUG, ("tcp_slowtmr: KEEPALIVE timeout. Aborting connection to "));
1335:Middlewares/Third_Party/LwIP/src/core/tcp.c ****         ip_addr_debug_print_val(TCP_DEBUG, pcb->remote_ip);
1336:Middlewares/Third_Party/LwIP/src/core/tcp.c ****         LWIP_DEBUGF(TCP_DEBUG, ("\n"));
1337:Middlewares/Third_Party/LwIP/src/core/tcp.c **** 
1338:Middlewares/Third_Party/LwIP/src/core/tcp.c ****         ++pcb_remove;
1339:Middlewares/Third_Party/LwIP/src/core/tcp.c ****         ++pcb_reset;
1340:Middlewares/Third_Party/LwIP/src/core/tcp.c ****       } else if ((u32_t)(tcp_ticks - pcb->tmr) >
ARM GAS  /tmp/ccoUuMsr.s 			page 37


1341:Middlewares/Third_Party/LwIP/src/core/tcp.c ****                  (pcb->keep_idle + pcb->keep_cnt_sent * TCP_KEEP_INTVL(pcb))
1342:Middlewares/Third_Party/LwIP/src/core/tcp.c ****                  / TCP_SLOW_INTERVAL) {
1343:Middlewares/Third_Party/LwIP/src/core/tcp.c ****         err = tcp_keepalive(pcb);
1344:Middlewares/Third_Party/LwIP/src/core/tcp.c ****         if (err == ERR_OK) {
1345:Middlewares/Third_Party/LwIP/src/core/tcp.c ****           pcb->keep_cnt_sent++;
1346:Middlewares/Third_Party/LwIP/src/core/tcp.c ****         }
1347:Middlewares/Third_Party/LwIP/src/core/tcp.c ****       }
1348:Middlewares/Third_Party/LwIP/src/core/tcp.c ****     }
1349:Middlewares/Third_Party/LwIP/src/core/tcp.c **** 
1350:Middlewares/Third_Party/LwIP/src/core/tcp.c ****     /* If this PCB has queued out of sequence data, but has been
1351:Middlewares/Third_Party/LwIP/src/core/tcp.c ****        inactive for too long, will drop the data (it will eventually
1352:Middlewares/Third_Party/LwIP/src/core/tcp.c ****        be retransmitted). */
1353:Middlewares/Third_Party/LwIP/src/core/tcp.c **** #if TCP_QUEUE_OOSEQ
1354:Middlewares/Third_Party/LwIP/src/core/tcp.c ****     if (pcb->ooseq != NULL &&
1355:Middlewares/Third_Party/LwIP/src/core/tcp.c ****         (tcp_ticks - pcb->tmr >= (u32_t)pcb->rto * TCP_OOSEQ_TIMEOUT)) {
1356:Middlewares/Third_Party/LwIP/src/core/tcp.c ****       LWIP_DEBUGF(TCP_CWND_DEBUG, ("tcp_slowtmr: dropping OOSEQ queued data\n"));
1357:Middlewares/Third_Party/LwIP/src/core/tcp.c ****       tcp_free_ooseq(pcb);
1358:Middlewares/Third_Party/LwIP/src/core/tcp.c ****     }
1359:Middlewares/Third_Party/LwIP/src/core/tcp.c **** #endif /* TCP_QUEUE_OOSEQ */
1360:Middlewares/Third_Party/LwIP/src/core/tcp.c **** 
1361:Middlewares/Third_Party/LwIP/src/core/tcp.c ****     /* Check if this PCB has stayed too long in SYN-RCVD */
1362:Middlewares/Third_Party/LwIP/src/core/tcp.c ****     if (pcb->state == SYN_RCVD) {
1363:Middlewares/Third_Party/LwIP/src/core/tcp.c ****       if ((u32_t)(tcp_ticks - pcb->tmr) >
1364:Middlewares/Third_Party/LwIP/src/core/tcp.c ****           TCP_SYN_RCVD_TIMEOUT / TCP_SLOW_INTERVAL) {
1365:Middlewares/Third_Party/LwIP/src/core/tcp.c ****         ++pcb_remove;
1366:Middlewares/Third_Party/LwIP/src/core/tcp.c ****         LWIP_DEBUGF(TCP_DEBUG, ("tcp_slowtmr: removing pcb stuck in SYN-RCVD\n"));
1367:Middlewares/Third_Party/LwIP/src/core/tcp.c ****       }
1368:Middlewares/Third_Party/LwIP/src/core/tcp.c ****     }
1369:Middlewares/Third_Party/LwIP/src/core/tcp.c **** 
1370:Middlewares/Third_Party/LwIP/src/core/tcp.c ****     /* Check if this PCB has stayed too long in LAST-ACK */
1371:Middlewares/Third_Party/LwIP/src/core/tcp.c ****     if (pcb->state == LAST_ACK) {
1372:Middlewares/Third_Party/LwIP/src/core/tcp.c ****       if ((u32_t)(tcp_ticks - pcb->tmr) > 2 * TCP_MSL / TCP_SLOW_INTERVAL) {
1373:Middlewares/Third_Party/LwIP/src/core/tcp.c ****         ++pcb_remove;
1374:Middlewares/Third_Party/LwIP/src/core/tcp.c ****         LWIP_DEBUGF(TCP_DEBUG, ("tcp_slowtmr: removing pcb stuck in LAST-ACK\n"));
1375:Middlewares/Third_Party/LwIP/src/core/tcp.c ****       }
1376:Middlewares/Third_Party/LwIP/src/core/tcp.c ****     }
1377:Middlewares/Third_Party/LwIP/src/core/tcp.c **** 
1378:Middlewares/Third_Party/LwIP/src/core/tcp.c ****     /* If the PCB should be removed, do it. */
1379:Middlewares/Third_Party/LwIP/src/core/tcp.c ****     if (pcb_remove) {
1380:Middlewares/Third_Party/LwIP/src/core/tcp.c ****       struct tcp_pcb *pcb2;
1381:Middlewares/Third_Party/LwIP/src/core/tcp.c **** #if LWIP_CALLBACK_API
1382:Middlewares/Third_Party/LwIP/src/core/tcp.c ****       tcp_err_fn err_fn = pcb->errf;
1383:Middlewares/Third_Party/LwIP/src/core/tcp.c **** #endif /* LWIP_CALLBACK_API */
1384:Middlewares/Third_Party/LwIP/src/core/tcp.c ****       void *err_arg;
1385:Middlewares/Third_Party/LwIP/src/core/tcp.c ****       enum tcp_state last_state;
1386:Middlewares/Third_Party/LwIP/src/core/tcp.c ****       tcp_pcb_purge(pcb);
1387:Middlewares/Third_Party/LwIP/src/core/tcp.c ****       /* Remove PCB from tcp_active_pcbs list. */
1388:Middlewares/Third_Party/LwIP/src/core/tcp.c ****       if (prev != NULL) {
1389:Middlewares/Third_Party/LwIP/src/core/tcp.c ****         LWIP_ASSERT("tcp_slowtmr: middle tcp != tcp_active_pcbs", pcb != tcp_active_pcbs);
1390:Middlewares/Third_Party/LwIP/src/core/tcp.c ****         prev->next = pcb->next;
1391:Middlewares/Third_Party/LwIP/src/core/tcp.c ****       } else {
1392:Middlewares/Third_Party/LwIP/src/core/tcp.c ****         /* This PCB was the first. */
1393:Middlewares/Third_Party/LwIP/src/core/tcp.c ****         LWIP_ASSERT("tcp_slowtmr: first pcb == tcp_active_pcbs", tcp_active_pcbs == pcb);
1394:Middlewares/Third_Party/LwIP/src/core/tcp.c ****         tcp_active_pcbs = pcb->next;
1395:Middlewares/Third_Party/LwIP/src/core/tcp.c ****       }
1396:Middlewares/Third_Party/LwIP/src/core/tcp.c **** 
1397:Middlewares/Third_Party/LwIP/src/core/tcp.c ****       if (pcb_reset) {
ARM GAS  /tmp/ccoUuMsr.s 			page 38


1398:Middlewares/Third_Party/LwIP/src/core/tcp.c ****         tcp_rst(pcb, pcb->snd_nxt, pcb->rcv_nxt, &pcb->local_ip, &pcb->remote_ip,
1399:Middlewares/Third_Party/LwIP/src/core/tcp.c ****                 pcb->local_port, pcb->remote_port);
1400:Middlewares/Third_Party/LwIP/src/core/tcp.c ****       }
1401:Middlewares/Third_Party/LwIP/src/core/tcp.c **** 
1402:Middlewares/Third_Party/LwIP/src/core/tcp.c ****       err_arg = pcb->callback_arg;
1403:Middlewares/Third_Party/LwIP/src/core/tcp.c ****       last_state = pcb->state;
1404:Middlewares/Third_Party/LwIP/src/core/tcp.c ****       pcb2 = pcb;
1405:Middlewares/Third_Party/LwIP/src/core/tcp.c ****       pcb = pcb->next;
1406:Middlewares/Third_Party/LwIP/src/core/tcp.c ****       tcp_free(pcb2);
1407:Middlewares/Third_Party/LwIP/src/core/tcp.c **** 
1408:Middlewares/Third_Party/LwIP/src/core/tcp.c ****       tcp_active_pcbs_changed = 0;
1409:Middlewares/Third_Party/LwIP/src/core/tcp.c ****       TCP_EVENT_ERR(last_state, err_fn, err_arg, ERR_ABRT);
1410:Middlewares/Third_Party/LwIP/src/core/tcp.c ****       if (tcp_active_pcbs_changed) {
1411:Middlewares/Third_Party/LwIP/src/core/tcp.c ****         goto tcp_slowtmr_start;
1412:Middlewares/Third_Party/LwIP/src/core/tcp.c ****       }
1413:Middlewares/Third_Party/LwIP/src/core/tcp.c ****     } else {
1414:Middlewares/Third_Party/LwIP/src/core/tcp.c ****       /* get the 'next' element now and work with 'prev' below (in case of abort) */
1415:Middlewares/Third_Party/LwIP/src/core/tcp.c ****       prev = pcb;
1416:Middlewares/Third_Party/LwIP/src/core/tcp.c ****       pcb = pcb->next;
1417:Middlewares/Third_Party/LwIP/src/core/tcp.c **** 
1418:Middlewares/Third_Party/LwIP/src/core/tcp.c ****       /* We check if we should poll the connection. */
1419:Middlewares/Third_Party/LwIP/src/core/tcp.c ****       ++prev->polltmr;
1420:Middlewares/Third_Party/LwIP/src/core/tcp.c ****       if (prev->polltmr >= prev->pollinterval) {
1421:Middlewares/Third_Party/LwIP/src/core/tcp.c ****         prev->polltmr = 0;
1422:Middlewares/Third_Party/LwIP/src/core/tcp.c ****         LWIP_DEBUGF(TCP_DEBUG, ("tcp_slowtmr: polling application\n"));
1423:Middlewares/Third_Party/LwIP/src/core/tcp.c ****         tcp_active_pcbs_changed = 0;
1424:Middlewares/Third_Party/LwIP/src/core/tcp.c ****         TCP_EVENT_POLL(prev, err);
1425:Middlewares/Third_Party/LwIP/src/core/tcp.c ****         if (tcp_active_pcbs_changed) {
1426:Middlewares/Third_Party/LwIP/src/core/tcp.c ****           goto tcp_slowtmr_start;
1427:Middlewares/Third_Party/LwIP/src/core/tcp.c ****         }
1428:Middlewares/Third_Party/LwIP/src/core/tcp.c ****         /* if err == ERR_ABRT, 'prev' is already deallocated */
1429:Middlewares/Third_Party/LwIP/src/core/tcp.c ****         if (err == ERR_OK) {
1430:Middlewares/Third_Party/LwIP/src/core/tcp.c ****           tcp_output(prev);
1431:Middlewares/Third_Party/LwIP/src/core/tcp.c ****         }
1432:Middlewares/Third_Party/LwIP/src/core/tcp.c ****       }
1433:Middlewares/Third_Party/LwIP/src/core/tcp.c ****     }
1434:Middlewares/Third_Party/LwIP/src/core/tcp.c ****   }
1435:Middlewares/Third_Party/LwIP/src/core/tcp.c **** 
1436:Middlewares/Third_Party/LwIP/src/core/tcp.c **** 
1437:Middlewares/Third_Party/LwIP/src/core/tcp.c ****   /* Steps through all of the TIME-WAIT PCBs. */
1438:Middlewares/Third_Party/LwIP/src/core/tcp.c ****   prev = NULL;
1439:Middlewares/Third_Party/LwIP/src/core/tcp.c ****   pcb = tcp_tw_pcbs;
1440:Middlewares/Third_Party/LwIP/src/core/tcp.c ****   while (pcb != NULL) {
1441:Middlewares/Third_Party/LwIP/src/core/tcp.c ****     LWIP_ASSERT("tcp_slowtmr: TIME-WAIT pcb->state == TIME-WAIT", pcb->state == TIME_WAIT);
1442:Middlewares/Third_Party/LwIP/src/core/tcp.c ****     pcb_remove = 0;
1443:Middlewares/Third_Party/LwIP/src/core/tcp.c **** 
1444:Middlewares/Third_Party/LwIP/src/core/tcp.c ****     /* Check if this PCB has stayed long enough in TIME-WAIT */
1445:Middlewares/Third_Party/LwIP/src/core/tcp.c ****     if ((u32_t)(tcp_ticks - pcb->tmr) > 2 * TCP_MSL / TCP_SLOW_INTERVAL) {
1446:Middlewares/Third_Party/LwIP/src/core/tcp.c ****       ++pcb_remove;
1447:Middlewares/Third_Party/LwIP/src/core/tcp.c ****     }
1448:Middlewares/Third_Party/LwIP/src/core/tcp.c **** 
1449:Middlewares/Third_Party/LwIP/src/core/tcp.c ****     /* If the PCB should be removed, do it. */
1450:Middlewares/Third_Party/LwIP/src/core/tcp.c ****     if (pcb_remove) {
1451:Middlewares/Third_Party/LwIP/src/core/tcp.c ****       struct tcp_pcb *pcb2;
1452:Middlewares/Third_Party/LwIP/src/core/tcp.c ****       tcp_pcb_purge(pcb);
1453:Middlewares/Third_Party/LwIP/src/core/tcp.c ****       /* Remove PCB from tcp_tw_pcbs list. */
1454:Middlewares/Third_Party/LwIP/src/core/tcp.c ****       if (prev != NULL) {
ARM GAS  /tmp/ccoUuMsr.s 			page 39


1455:Middlewares/Third_Party/LwIP/src/core/tcp.c ****         LWIP_ASSERT("tcp_slowtmr: middle tcp != tcp_tw_pcbs", pcb != tcp_tw_pcbs);
1456:Middlewares/Third_Party/LwIP/src/core/tcp.c ****         prev->next = pcb->next;
1457:Middlewares/Third_Party/LwIP/src/core/tcp.c ****       } else {
1458:Middlewares/Third_Party/LwIP/src/core/tcp.c ****         /* This PCB was the first. */
1459:Middlewares/Third_Party/LwIP/src/core/tcp.c ****         LWIP_ASSERT("tcp_slowtmr: first pcb == tcp_tw_pcbs", tcp_tw_pcbs == pcb);
1460:Middlewares/Third_Party/LwIP/src/core/tcp.c ****         tcp_tw_pcbs = pcb->next;
1461:Middlewares/Third_Party/LwIP/src/core/tcp.c ****       }
1462:Middlewares/Third_Party/LwIP/src/core/tcp.c ****       pcb2 = pcb;
1463:Middlewares/Third_Party/LwIP/src/core/tcp.c ****       pcb = pcb->next;
1464:Middlewares/Third_Party/LwIP/src/core/tcp.c ****       tcp_free(pcb2);
1465:Middlewares/Third_Party/LwIP/src/core/tcp.c ****     } else {
1466:Middlewares/Third_Party/LwIP/src/core/tcp.c ****       prev = pcb;
1467:Middlewares/Third_Party/LwIP/src/core/tcp.c ****       pcb = pcb->next;
1468:Middlewares/Third_Party/LwIP/src/core/tcp.c ****     }
1469:Middlewares/Third_Party/LwIP/src/core/tcp.c ****   }
1470:Middlewares/Third_Party/LwIP/src/core/tcp.c **** }
1471:Middlewares/Third_Party/LwIP/src/core/tcp.c **** 
1472:Middlewares/Third_Party/LwIP/src/core/tcp.c **** /**
1473:Middlewares/Third_Party/LwIP/src/core/tcp.c ****  * Is called every TCP_FAST_INTERVAL (250 ms) and process data previously
1474:Middlewares/Third_Party/LwIP/src/core/tcp.c ****  * "refused" by upper layer (application) and sends delayed ACKs or pending FINs.
1475:Middlewares/Third_Party/LwIP/src/core/tcp.c ****  *
1476:Middlewares/Third_Party/LwIP/src/core/tcp.c ****  * Automatically called from tcp_tmr().
1477:Middlewares/Third_Party/LwIP/src/core/tcp.c ****  */
1478:Middlewares/Third_Party/LwIP/src/core/tcp.c **** void
1479:Middlewares/Third_Party/LwIP/src/core/tcp.c **** tcp_fasttmr(void)
1480:Middlewares/Third_Party/LwIP/src/core/tcp.c **** {
1481:Middlewares/Third_Party/LwIP/src/core/tcp.c ****   struct tcp_pcb *pcb;
1482:Middlewares/Third_Party/LwIP/src/core/tcp.c **** 
1483:Middlewares/Third_Party/LwIP/src/core/tcp.c ****   ++tcp_timer_ctr;
1484:Middlewares/Third_Party/LwIP/src/core/tcp.c **** 
1485:Middlewares/Third_Party/LwIP/src/core/tcp.c **** tcp_fasttmr_start:
1486:Middlewares/Third_Party/LwIP/src/core/tcp.c ****   pcb = tcp_active_pcbs;
1487:Middlewares/Third_Party/LwIP/src/core/tcp.c **** 
1488:Middlewares/Third_Party/LwIP/src/core/tcp.c ****   while (pcb != NULL) {
1489:Middlewares/Third_Party/LwIP/src/core/tcp.c ****     if (pcb->last_timer != tcp_timer_ctr) {
1490:Middlewares/Third_Party/LwIP/src/core/tcp.c ****       struct tcp_pcb *next;
1491:Middlewares/Third_Party/LwIP/src/core/tcp.c ****       pcb->last_timer = tcp_timer_ctr;
1492:Middlewares/Third_Party/LwIP/src/core/tcp.c ****       /* send delayed ACKs */
1493:Middlewares/Third_Party/LwIP/src/core/tcp.c ****       if (pcb->flags & TF_ACK_DELAY) {
1494:Middlewares/Third_Party/LwIP/src/core/tcp.c ****         LWIP_DEBUGF(TCP_DEBUG, ("tcp_fasttmr: delayed ACK\n"));
1495:Middlewares/Third_Party/LwIP/src/core/tcp.c ****         tcp_ack_now(pcb);
1496:Middlewares/Third_Party/LwIP/src/core/tcp.c ****         tcp_output(pcb);
1497:Middlewares/Third_Party/LwIP/src/core/tcp.c ****         tcp_clear_flags(pcb, TF_ACK_DELAY | TF_ACK_NOW);
1498:Middlewares/Third_Party/LwIP/src/core/tcp.c ****       }
1499:Middlewares/Third_Party/LwIP/src/core/tcp.c ****       /* send pending FIN */
1500:Middlewares/Third_Party/LwIP/src/core/tcp.c ****       if (pcb->flags & TF_CLOSEPEND) {
1501:Middlewares/Third_Party/LwIP/src/core/tcp.c ****         LWIP_DEBUGF(TCP_DEBUG, ("tcp_fasttmr: pending FIN\n"));
1502:Middlewares/Third_Party/LwIP/src/core/tcp.c ****         tcp_clear_flags(pcb, TF_CLOSEPEND);
1503:Middlewares/Third_Party/LwIP/src/core/tcp.c ****         tcp_close_shutdown_fin(pcb);
1504:Middlewares/Third_Party/LwIP/src/core/tcp.c ****       }
1505:Middlewares/Third_Party/LwIP/src/core/tcp.c **** 
1506:Middlewares/Third_Party/LwIP/src/core/tcp.c ****       next = pcb->next;
1507:Middlewares/Third_Party/LwIP/src/core/tcp.c **** 
1508:Middlewares/Third_Party/LwIP/src/core/tcp.c ****       /* If there is data which was previously "refused" by upper layer */
1509:Middlewares/Third_Party/LwIP/src/core/tcp.c ****       if (pcb->refused_data != NULL) {
1510:Middlewares/Third_Party/LwIP/src/core/tcp.c ****         tcp_active_pcbs_changed = 0;
1511:Middlewares/Third_Party/LwIP/src/core/tcp.c ****         tcp_process_refused_data(pcb);
ARM GAS  /tmp/ccoUuMsr.s 			page 40


1512:Middlewares/Third_Party/LwIP/src/core/tcp.c ****         if (tcp_active_pcbs_changed) {
1513:Middlewares/Third_Party/LwIP/src/core/tcp.c ****           /* application callback has changed the pcb list: restart the loop */
1514:Middlewares/Third_Party/LwIP/src/core/tcp.c ****           goto tcp_fasttmr_start;
1515:Middlewares/Third_Party/LwIP/src/core/tcp.c ****         }
1516:Middlewares/Third_Party/LwIP/src/core/tcp.c ****       }
1517:Middlewares/Third_Party/LwIP/src/core/tcp.c ****       pcb = next;
1518:Middlewares/Third_Party/LwIP/src/core/tcp.c ****     } else {
1519:Middlewares/Third_Party/LwIP/src/core/tcp.c ****       pcb = pcb->next;
1520:Middlewares/Third_Party/LwIP/src/core/tcp.c ****     }
1521:Middlewares/Third_Party/LwIP/src/core/tcp.c ****   }
1522:Middlewares/Third_Party/LwIP/src/core/tcp.c **** }
1523:Middlewares/Third_Party/LwIP/src/core/tcp.c **** 
1524:Middlewares/Third_Party/LwIP/src/core/tcp.c **** /** Call tcp_output for all active pcbs that have TF_NAGLEMEMERR set */
1525:Middlewares/Third_Party/LwIP/src/core/tcp.c **** void
1526:Middlewares/Third_Party/LwIP/src/core/tcp.c **** tcp_txnow(void)
1527:Middlewares/Third_Party/LwIP/src/core/tcp.c **** {
1528:Middlewares/Third_Party/LwIP/src/core/tcp.c ****   struct tcp_pcb *pcb;
1529:Middlewares/Third_Party/LwIP/src/core/tcp.c **** 
1530:Middlewares/Third_Party/LwIP/src/core/tcp.c ****   for (pcb = tcp_active_pcbs; pcb != NULL; pcb = pcb->next) {
1531:Middlewares/Third_Party/LwIP/src/core/tcp.c ****     if (pcb->flags & TF_NAGLEMEMERR) {
1532:Middlewares/Third_Party/LwIP/src/core/tcp.c ****       tcp_output(pcb);
1533:Middlewares/Third_Party/LwIP/src/core/tcp.c ****     }
1534:Middlewares/Third_Party/LwIP/src/core/tcp.c ****   }
1535:Middlewares/Third_Party/LwIP/src/core/tcp.c **** }
1536:Middlewares/Third_Party/LwIP/src/core/tcp.c **** 
1537:Middlewares/Third_Party/LwIP/src/core/tcp.c **** /** Pass pcb->refused_data to the recv callback */
1538:Middlewares/Third_Party/LwIP/src/core/tcp.c **** err_t
1539:Middlewares/Third_Party/LwIP/src/core/tcp.c **** tcp_process_refused_data(struct tcp_pcb *pcb)
1540:Middlewares/Third_Party/LwIP/src/core/tcp.c **** {
1541:Middlewares/Third_Party/LwIP/src/core/tcp.c **** #if TCP_QUEUE_OOSEQ && LWIP_WND_SCALE
1542:Middlewares/Third_Party/LwIP/src/core/tcp.c ****   struct pbuf *rest;
1543:Middlewares/Third_Party/LwIP/src/core/tcp.c **** #endif /* TCP_QUEUE_OOSEQ && LWIP_WND_SCALE */
1544:Middlewares/Third_Party/LwIP/src/core/tcp.c **** 
1545:Middlewares/Third_Party/LwIP/src/core/tcp.c ****   LWIP_ERROR("tcp_process_refused_data: invalid pcb", pcb != NULL, return ERR_ARG);
1546:Middlewares/Third_Party/LwIP/src/core/tcp.c **** 
1547:Middlewares/Third_Party/LwIP/src/core/tcp.c **** #if TCP_QUEUE_OOSEQ && LWIP_WND_SCALE
1548:Middlewares/Third_Party/LwIP/src/core/tcp.c ****   while (pcb->refused_data != NULL)
1549:Middlewares/Third_Party/LwIP/src/core/tcp.c **** #endif /* TCP_QUEUE_OOSEQ && LWIP_WND_SCALE */
1550:Middlewares/Third_Party/LwIP/src/core/tcp.c ****   {
1551:Middlewares/Third_Party/LwIP/src/core/tcp.c ****     err_t err;
1552:Middlewares/Third_Party/LwIP/src/core/tcp.c ****     u8_t refused_flags = pcb->refused_data->flags;
1553:Middlewares/Third_Party/LwIP/src/core/tcp.c ****     /* set pcb->refused_data to NULL in case the callback frees it and then
1554:Middlewares/Third_Party/LwIP/src/core/tcp.c ****        closes the pcb */
1555:Middlewares/Third_Party/LwIP/src/core/tcp.c ****     struct pbuf *refused_data = pcb->refused_data;
1556:Middlewares/Third_Party/LwIP/src/core/tcp.c **** #if TCP_QUEUE_OOSEQ && LWIP_WND_SCALE
1557:Middlewares/Third_Party/LwIP/src/core/tcp.c ****     pbuf_split_64k(refused_data, &rest);
1558:Middlewares/Third_Party/LwIP/src/core/tcp.c ****     pcb->refused_data = rest;
1559:Middlewares/Third_Party/LwIP/src/core/tcp.c **** #else /* TCP_QUEUE_OOSEQ && LWIP_WND_SCALE */
1560:Middlewares/Third_Party/LwIP/src/core/tcp.c ****     pcb->refused_data = NULL;
1561:Middlewares/Third_Party/LwIP/src/core/tcp.c **** #endif /* TCP_QUEUE_OOSEQ && LWIP_WND_SCALE */
1562:Middlewares/Third_Party/LwIP/src/core/tcp.c ****     /* Notify again application with data previously received. */
1563:Middlewares/Third_Party/LwIP/src/core/tcp.c ****     LWIP_DEBUGF(TCP_INPUT_DEBUG, ("tcp_input: notify kept packet\n"));
1564:Middlewares/Third_Party/LwIP/src/core/tcp.c ****     TCP_EVENT_RECV(pcb, refused_data, ERR_OK, err);
1565:Middlewares/Third_Party/LwIP/src/core/tcp.c ****     if (err == ERR_OK) {
1566:Middlewares/Third_Party/LwIP/src/core/tcp.c ****       /* did refused_data include a FIN? */
1567:Middlewares/Third_Party/LwIP/src/core/tcp.c ****       if ((refused_flags & PBUF_FLAG_TCP_FIN)
1568:Middlewares/Third_Party/LwIP/src/core/tcp.c **** #if TCP_QUEUE_OOSEQ && LWIP_WND_SCALE
ARM GAS  /tmp/ccoUuMsr.s 			page 41


1569:Middlewares/Third_Party/LwIP/src/core/tcp.c ****           && (rest == NULL)
1570:Middlewares/Third_Party/LwIP/src/core/tcp.c **** #endif /* TCP_QUEUE_OOSEQ && LWIP_WND_SCALE */
1571:Middlewares/Third_Party/LwIP/src/core/tcp.c ****          ) {
1572:Middlewares/Third_Party/LwIP/src/core/tcp.c ****         /* correct rcv_wnd as the application won't call tcp_recved()
1573:Middlewares/Third_Party/LwIP/src/core/tcp.c ****            for the FIN's seqno */
1574:Middlewares/Third_Party/LwIP/src/core/tcp.c ****         if (pcb->rcv_wnd != TCP_WND_MAX(pcb)) {
1575:Middlewares/Third_Party/LwIP/src/core/tcp.c ****           pcb->rcv_wnd++;
1576:Middlewares/Third_Party/LwIP/src/core/tcp.c ****         }
1577:Middlewares/Third_Party/LwIP/src/core/tcp.c ****         TCP_EVENT_CLOSED(pcb, err);
1578:Middlewares/Third_Party/LwIP/src/core/tcp.c ****         if (err == ERR_ABRT) {
1579:Middlewares/Third_Party/LwIP/src/core/tcp.c ****           return ERR_ABRT;
1580:Middlewares/Third_Party/LwIP/src/core/tcp.c ****         }
1581:Middlewares/Third_Party/LwIP/src/core/tcp.c ****       }
1582:Middlewares/Third_Party/LwIP/src/core/tcp.c ****     } else if (err == ERR_ABRT) {
1583:Middlewares/Third_Party/LwIP/src/core/tcp.c ****       /* if err == ERR_ABRT, 'pcb' is already deallocated */
1584:Middlewares/Third_Party/LwIP/src/core/tcp.c ****       /* Drop incoming packets because pcb is "full" (only if the incoming
1585:Middlewares/Third_Party/LwIP/src/core/tcp.c ****          segment contains data). */
1586:Middlewares/Third_Party/LwIP/src/core/tcp.c ****       LWIP_DEBUGF(TCP_INPUT_DEBUG, ("tcp_input: drop incoming packets, because pcb is \"full\"\n"))
1587:Middlewares/Third_Party/LwIP/src/core/tcp.c ****       return ERR_ABRT;
1588:Middlewares/Third_Party/LwIP/src/core/tcp.c ****     } else {
1589:Middlewares/Third_Party/LwIP/src/core/tcp.c ****       /* data is still refused, pbuf is still valid (go on for ACK-only packets) */
1590:Middlewares/Third_Party/LwIP/src/core/tcp.c **** #if TCP_QUEUE_OOSEQ && LWIP_WND_SCALE
1591:Middlewares/Third_Party/LwIP/src/core/tcp.c ****       if (rest != NULL) {
1592:Middlewares/Third_Party/LwIP/src/core/tcp.c ****         pbuf_cat(refused_data, rest);
1593:Middlewares/Third_Party/LwIP/src/core/tcp.c ****       }
1594:Middlewares/Third_Party/LwIP/src/core/tcp.c **** #endif /* TCP_QUEUE_OOSEQ && LWIP_WND_SCALE */
1595:Middlewares/Third_Party/LwIP/src/core/tcp.c ****       pcb->refused_data = refused_data;
1596:Middlewares/Third_Party/LwIP/src/core/tcp.c ****       return ERR_INPROGRESS;
1597:Middlewares/Third_Party/LwIP/src/core/tcp.c ****     }
1598:Middlewares/Third_Party/LwIP/src/core/tcp.c ****   }
1599:Middlewares/Third_Party/LwIP/src/core/tcp.c ****   return ERR_OK;
1600:Middlewares/Third_Party/LwIP/src/core/tcp.c **** }
1601:Middlewares/Third_Party/LwIP/src/core/tcp.c **** 
1602:Middlewares/Third_Party/LwIP/src/core/tcp.c **** /**
1603:Middlewares/Third_Party/LwIP/src/core/tcp.c ****  * Deallocates a list of TCP segments (tcp_seg structures).
1604:Middlewares/Third_Party/LwIP/src/core/tcp.c ****  *
1605:Middlewares/Third_Party/LwIP/src/core/tcp.c ****  * @param seg tcp_seg list of TCP segments to free
1606:Middlewares/Third_Party/LwIP/src/core/tcp.c ****  */
1607:Middlewares/Third_Party/LwIP/src/core/tcp.c **** void
1608:Middlewares/Third_Party/LwIP/src/core/tcp.c **** tcp_segs_free(struct tcp_seg *seg)
1609:Middlewares/Third_Party/LwIP/src/core/tcp.c **** {
1610:Middlewares/Third_Party/LwIP/src/core/tcp.c ****   while (seg != NULL) {
1611:Middlewares/Third_Party/LwIP/src/core/tcp.c ****     struct tcp_seg *next = seg->next;
1612:Middlewares/Third_Party/LwIP/src/core/tcp.c ****     tcp_seg_free(seg);
1613:Middlewares/Third_Party/LwIP/src/core/tcp.c ****     seg = next;
1614:Middlewares/Third_Party/LwIP/src/core/tcp.c ****   }
1615:Middlewares/Third_Party/LwIP/src/core/tcp.c **** }
1616:Middlewares/Third_Party/LwIP/src/core/tcp.c **** 
1617:Middlewares/Third_Party/LwIP/src/core/tcp.c **** /**
1618:Middlewares/Third_Party/LwIP/src/core/tcp.c ****  * Frees a TCP segment (tcp_seg structure).
1619:Middlewares/Third_Party/LwIP/src/core/tcp.c ****  *
1620:Middlewares/Third_Party/LwIP/src/core/tcp.c ****  * @param seg single tcp_seg to free
1621:Middlewares/Third_Party/LwIP/src/core/tcp.c ****  */
1622:Middlewares/Third_Party/LwIP/src/core/tcp.c **** void
1623:Middlewares/Third_Party/LwIP/src/core/tcp.c **** tcp_seg_free(struct tcp_seg *seg)
1624:Middlewares/Third_Party/LwIP/src/core/tcp.c **** {
1625:Middlewares/Third_Party/LwIP/src/core/tcp.c ****   if (seg != NULL) {
ARM GAS  /tmp/ccoUuMsr.s 			page 42


1626:Middlewares/Third_Party/LwIP/src/core/tcp.c ****     if (seg->p != NULL) {
1627:Middlewares/Third_Party/LwIP/src/core/tcp.c ****       pbuf_free(seg->p);
1628:Middlewares/Third_Party/LwIP/src/core/tcp.c **** #if TCP_DEBUG
1629:Middlewares/Third_Party/LwIP/src/core/tcp.c ****       seg->p = NULL;
1630:Middlewares/Third_Party/LwIP/src/core/tcp.c **** #endif /* TCP_DEBUG */
1631:Middlewares/Third_Party/LwIP/src/core/tcp.c ****     }
1632:Middlewares/Third_Party/LwIP/src/core/tcp.c ****     memp_free(MEMP_TCP_SEG, seg);
1633:Middlewares/Third_Party/LwIP/src/core/tcp.c ****   }
1634:Middlewares/Third_Party/LwIP/src/core/tcp.c **** }
1635:Middlewares/Third_Party/LwIP/src/core/tcp.c **** 
1636:Middlewares/Third_Party/LwIP/src/core/tcp.c **** /**
1637:Middlewares/Third_Party/LwIP/src/core/tcp.c ****  * @ingroup tcp
1638:Middlewares/Third_Party/LwIP/src/core/tcp.c ****  * Sets the priority of a connection.
1639:Middlewares/Third_Party/LwIP/src/core/tcp.c ****  *
1640:Middlewares/Third_Party/LwIP/src/core/tcp.c ****  * @param pcb the tcp_pcb to manipulate
1641:Middlewares/Third_Party/LwIP/src/core/tcp.c ****  * @param prio new priority
1642:Middlewares/Third_Party/LwIP/src/core/tcp.c ****  */
1643:Middlewares/Third_Party/LwIP/src/core/tcp.c **** void
1644:Middlewares/Third_Party/LwIP/src/core/tcp.c **** tcp_setprio(struct tcp_pcb *pcb, u8_t prio)
1645:Middlewares/Third_Party/LwIP/src/core/tcp.c **** {
1646:Middlewares/Third_Party/LwIP/src/core/tcp.c ****   LWIP_ASSERT_CORE_LOCKED();
1647:Middlewares/Third_Party/LwIP/src/core/tcp.c **** 
1648:Middlewares/Third_Party/LwIP/src/core/tcp.c ****   LWIP_ERROR("tcp_setprio: invalid pcb", pcb != NULL, return);
1649:Middlewares/Third_Party/LwIP/src/core/tcp.c **** 
1650:Middlewares/Third_Party/LwIP/src/core/tcp.c ****   pcb->prio = prio;
1651:Middlewares/Third_Party/LwIP/src/core/tcp.c **** }
1652:Middlewares/Third_Party/LwIP/src/core/tcp.c **** 
1653:Middlewares/Third_Party/LwIP/src/core/tcp.c **** #if TCP_QUEUE_OOSEQ
1654:Middlewares/Third_Party/LwIP/src/core/tcp.c **** /**
1655:Middlewares/Third_Party/LwIP/src/core/tcp.c ****  * Returns a copy of the given TCP segment.
1656:Middlewares/Third_Party/LwIP/src/core/tcp.c ****  * The pbuf and data are not copied, only the pointers
1657:Middlewares/Third_Party/LwIP/src/core/tcp.c ****  *
1658:Middlewares/Third_Party/LwIP/src/core/tcp.c ****  * @param seg the old tcp_seg
1659:Middlewares/Third_Party/LwIP/src/core/tcp.c ****  * @return a copy of seg
1660:Middlewares/Third_Party/LwIP/src/core/tcp.c ****  */
1661:Middlewares/Third_Party/LwIP/src/core/tcp.c **** struct tcp_seg *
1662:Middlewares/Third_Party/LwIP/src/core/tcp.c **** tcp_seg_copy(struct tcp_seg *seg)
1663:Middlewares/Third_Party/LwIP/src/core/tcp.c **** {
1664:Middlewares/Third_Party/LwIP/src/core/tcp.c ****   struct tcp_seg *cseg;
1665:Middlewares/Third_Party/LwIP/src/core/tcp.c **** 
1666:Middlewares/Third_Party/LwIP/src/core/tcp.c ****   LWIP_ASSERT("tcp_seg_copy: invalid seg", seg != NULL);
1667:Middlewares/Third_Party/LwIP/src/core/tcp.c **** 
1668:Middlewares/Third_Party/LwIP/src/core/tcp.c ****   cseg = (struct tcp_seg *)memp_malloc(MEMP_TCP_SEG);
1669:Middlewares/Third_Party/LwIP/src/core/tcp.c ****   if (cseg == NULL) {
1670:Middlewares/Third_Party/LwIP/src/core/tcp.c ****     return NULL;
1671:Middlewares/Third_Party/LwIP/src/core/tcp.c ****   }
1672:Middlewares/Third_Party/LwIP/src/core/tcp.c ****   SMEMCPY((u8_t *)cseg, (const u8_t *)seg, sizeof(struct tcp_seg));
1673:Middlewares/Third_Party/LwIP/src/core/tcp.c ****   pbuf_ref(cseg->p);
1674:Middlewares/Third_Party/LwIP/src/core/tcp.c ****   return cseg;
1675:Middlewares/Third_Party/LwIP/src/core/tcp.c **** }
1676:Middlewares/Third_Party/LwIP/src/core/tcp.c **** #endif /* TCP_QUEUE_OOSEQ */
1677:Middlewares/Third_Party/LwIP/src/core/tcp.c **** 
1678:Middlewares/Third_Party/LwIP/src/core/tcp.c **** #if LWIP_CALLBACK_API
1679:Middlewares/Third_Party/LwIP/src/core/tcp.c **** /**
1680:Middlewares/Third_Party/LwIP/src/core/tcp.c ****  * Default receive callback that is called if the user didn't register
1681:Middlewares/Third_Party/LwIP/src/core/tcp.c ****  * a recv callback for the pcb.
1682:Middlewares/Third_Party/LwIP/src/core/tcp.c ****  */
ARM GAS  /tmp/ccoUuMsr.s 			page 43


1683:Middlewares/Third_Party/LwIP/src/core/tcp.c **** err_t
1684:Middlewares/Third_Party/LwIP/src/core/tcp.c **** tcp_recv_null(void *arg, struct tcp_pcb *pcb, struct pbuf *p, err_t err)
1685:Middlewares/Third_Party/LwIP/src/core/tcp.c **** {
1686:Middlewares/Third_Party/LwIP/src/core/tcp.c ****   LWIP_UNUSED_ARG(arg);
1687:Middlewares/Third_Party/LwIP/src/core/tcp.c **** 
1688:Middlewares/Third_Party/LwIP/src/core/tcp.c ****   LWIP_ERROR("tcp_recv_null: invalid pcb", pcb != NULL, return ERR_ARG);
1689:Middlewares/Third_Party/LwIP/src/core/tcp.c **** 
1690:Middlewares/Third_Party/LwIP/src/core/tcp.c ****   if (p != NULL) {
1691:Middlewares/Third_Party/LwIP/src/core/tcp.c ****     tcp_recved(pcb, p->tot_len);
1692:Middlewares/Third_Party/LwIP/src/core/tcp.c ****     pbuf_free(p);
1693:Middlewares/Third_Party/LwIP/src/core/tcp.c ****   } else if (err == ERR_OK) {
1694:Middlewares/Third_Party/LwIP/src/core/tcp.c ****     return tcp_close(pcb);
1695:Middlewares/Third_Party/LwIP/src/core/tcp.c ****   }
1696:Middlewares/Third_Party/LwIP/src/core/tcp.c ****   return ERR_OK;
1697:Middlewares/Third_Party/LwIP/src/core/tcp.c **** }
1698:Middlewares/Third_Party/LwIP/src/core/tcp.c **** #endif /* LWIP_CALLBACK_API */
1699:Middlewares/Third_Party/LwIP/src/core/tcp.c **** 
1700:Middlewares/Third_Party/LwIP/src/core/tcp.c **** /**
1701:Middlewares/Third_Party/LwIP/src/core/tcp.c ****  * Kills the oldest active connection that has a lower priority than 'prio'.
1702:Middlewares/Third_Party/LwIP/src/core/tcp.c ****  *
1703:Middlewares/Third_Party/LwIP/src/core/tcp.c ****  * @param prio minimum priority
1704:Middlewares/Third_Party/LwIP/src/core/tcp.c ****  */
1705:Middlewares/Third_Party/LwIP/src/core/tcp.c **** static void
1706:Middlewares/Third_Party/LwIP/src/core/tcp.c **** tcp_kill_prio(u8_t prio)
1707:Middlewares/Third_Party/LwIP/src/core/tcp.c **** {
1708:Middlewares/Third_Party/LwIP/src/core/tcp.c ****   struct tcp_pcb *pcb, *inactive;
1709:Middlewares/Third_Party/LwIP/src/core/tcp.c ****   u32_t inactivity;
1710:Middlewares/Third_Party/LwIP/src/core/tcp.c ****   u8_t mprio;
1711:Middlewares/Third_Party/LwIP/src/core/tcp.c **** 
1712:Middlewares/Third_Party/LwIP/src/core/tcp.c ****   mprio = LWIP_MIN(TCP_PRIO_MAX, prio);
1713:Middlewares/Third_Party/LwIP/src/core/tcp.c **** 
1714:Middlewares/Third_Party/LwIP/src/core/tcp.c ****   /* We want to kill connections with a lower prio, so bail out if 
1715:Middlewares/Third_Party/LwIP/src/core/tcp.c ****    * supplied prio is 0 - there can never be a lower prio
1716:Middlewares/Third_Party/LwIP/src/core/tcp.c ****    */
1717:Middlewares/Third_Party/LwIP/src/core/tcp.c ****   if (mprio == 0) {
1718:Middlewares/Third_Party/LwIP/src/core/tcp.c ****     return;
1719:Middlewares/Third_Party/LwIP/src/core/tcp.c ****   }
1720:Middlewares/Third_Party/LwIP/src/core/tcp.c **** 
1721:Middlewares/Third_Party/LwIP/src/core/tcp.c ****   /* We only want kill connections with a lower prio, so decrement prio by one 
1722:Middlewares/Third_Party/LwIP/src/core/tcp.c ****    * and start searching for oldest connection with same or lower priority than mprio.
1723:Middlewares/Third_Party/LwIP/src/core/tcp.c ****    * We want to find the connections with the lowest possible prio, and among
1724:Middlewares/Third_Party/LwIP/src/core/tcp.c ****    * these the one with the longest inactivity time.
1725:Middlewares/Third_Party/LwIP/src/core/tcp.c ****    */
1726:Middlewares/Third_Party/LwIP/src/core/tcp.c ****   mprio--;
1727:Middlewares/Third_Party/LwIP/src/core/tcp.c **** 
1728:Middlewares/Third_Party/LwIP/src/core/tcp.c ****   inactivity = 0;
1729:Middlewares/Third_Party/LwIP/src/core/tcp.c ****   inactive = NULL;
1730:Middlewares/Third_Party/LwIP/src/core/tcp.c ****   for (pcb = tcp_active_pcbs; pcb != NULL; pcb = pcb->next) {
1731:Middlewares/Third_Party/LwIP/src/core/tcp.c ****         /* lower prio is always a kill candidate */
1732:Middlewares/Third_Party/LwIP/src/core/tcp.c ****     if ((pcb->prio < mprio) ||
1733:Middlewares/Third_Party/LwIP/src/core/tcp.c ****         /* longer inactivity is also a kill candidate */
1734:Middlewares/Third_Party/LwIP/src/core/tcp.c ****         ((pcb->prio == mprio) && ((u32_t)(tcp_ticks - pcb->tmr) >= inactivity))) {
1735:Middlewares/Third_Party/LwIP/src/core/tcp.c ****       inactivity = tcp_ticks - pcb->tmr;
1736:Middlewares/Third_Party/LwIP/src/core/tcp.c ****       inactive   = pcb;
1737:Middlewares/Third_Party/LwIP/src/core/tcp.c ****       mprio      = pcb->prio;
1738:Middlewares/Third_Party/LwIP/src/core/tcp.c ****     }
1739:Middlewares/Third_Party/LwIP/src/core/tcp.c ****   }
ARM GAS  /tmp/ccoUuMsr.s 			page 44


1740:Middlewares/Third_Party/LwIP/src/core/tcp.c ****   if (inactive != NULL) {
1741:Middlewares/Third_Party/LwIP/src/core/tcp.c ****     LWIP_DEBUGF(TCP_DEBUG, ("tcp_kill_prio: killing oldest PCB %p (%"S32_F")\n",
1742:Middlewares/Third_Party/LwIP/src/core/tcp.c ****                             (void *)inactive, inactivity));
1743:Middlewares/Third_Party/LwIP/src/core/tcp.c ****     tcp_abort(inactive);
1744:Middlewares/Third_Party/LwIP/src/core/tcp.c ****   }
1745:Middlewares/Third_Party/LwIP/src/core/tcp.c **** }
1746:Middlewares/Third_Party/LwIP/src/core/tcp.c **** 
1747:Middlewares/Third_Party/LwIP/src/core/tcp.c **** /**
1748:Middlewares/Third_Party/LwIP/src/core/tcp.c ****  * Kills the oldest connection that is in specific state.
1749:Middlewares/Third_Party/LwIP/src/core/tcp.c ****  * Called from tcp_alloc() for LAST_ACK and CLOSING if no more connections are available.
1750:Middlewares/Third_Party/LwIP/src/core/tcp.c ****  */
1751:Middlewares/Third_Party/LwIP/src/core/tcp.c **** static void
1752:Middlewares/Third_Party/LwIP/src/core/tcp.c **** tcp_kill_state(enum tcp_state state)
1753:Middlewares/Third_Party/LwIP/src/core/tcp.c **** {
1754:Middlewares/Third_Party/LwIP/src/core/tcp.c ****   struct tcp_pcb *pcb, *inactive;
1755:Middlewares/Third_Party/LwIP/src/core/tcp.c ****   u32_t inactivity;
1756:Middlewares/Third_Party/LwIP/src/core/tcp.c **** 
1757:Middlewares/Third_Party/LwIP/src/core/tcp.c ****   LWIP_ASSERT("invalid state", (state == CLOSING) || (state == LAST_ACK));
1758:Middlewares/Third_Party/LwIP/src/core/tcp.c **** 
1759:Middlewares/Third_Party/LwIP/src/core/tcp.c ****   inactivity = 0;
1760:Middlewares/Third_Party/LwIP/src/core/tcp.c ****   inactive = NULL;
1761:Middlewares/Third_Party/LwIP/src/core/tcp.c ****   /* Go through the list of active pcbs and get the oldest pcb that is in state
1762:Middlewares/Third_Party/LwIP/src/core/tcp.c ****      CLOSING/LAST_ACK. */
1763:Middlewares/Third_Party/LwIP/src/core/tcp.c ****   for (pcb = tcp_active_pcbs; pcb != NULL; pcb = pcb->next) {
1764:Middlewares/Third_Party/LwIP/src/core/tcp.c ****     if (pcb->state == state) {
1765:Middlewares/Third_Party/LwIP/src/core/tcp.c ****       if ((u32_t)(tcp_ticks - pcb->tmr) >= inactivity) {
1766:Middlewares/Third_Party/LwIP/src/core/tcp.c ****         inactivity = tcp_ticks - pcb->tmr;
1767:Middlewares/Third_Party/LwIP/src/core/tcp.c ****         inactive = pcb;
1768:Middlewares/Third_Party/LwIP/src/core/tcp.c ****       }
1769:Middlewares/Third_Party/LwIP/src/core/tcp.c ****     }
1770:Middlewares/Third_Party/LwIP/src/core/tcp.c ****   }
1771:Middlewares/Third_Party/LwIP/src/core/tcp.c ****   if (inactive != NULL) {
1772:Middlewares/Third_Party/LwIP/src/core/tcp.c ****     LWIP_DEBUGF(TCP_DEBUG, ("tcp_kill_closing: killing oldest %s PCB %p (%"S32_F")\n",
1773:Middlewares/Third_Party/LwIP/src/core/tcp.c ****                             tcp_state_str[state], (void *)inactive, inactivity));
1774:Middlewares/Third_Party/LwIP/src/core/tcp.c ****     /* Don't send a RST, since no data is lost. */
1775:Middlewares/Third_Party/LwIP/src/core/tcp.c ****     tcp_abandon(inactive, 0);
1776:Middlewares/Third_Party/LwIP/src/core/tcp.c ****   }
1777:Middlewares/Third_Party/LwIP/src/core/tcp.c **** }
1778:Middlewares/Third_Party/LwIP/src/core/tcp.c **** 
1779:Middlewares/Third_Party/LwIP/src/core/tcp.c **** /**
1780:Middlewares/Third_Party/LwIP/src/core/tcp.c ****  * Kills the oldest connection that is in TIME_WAIT state.
1781:Middlewares/Third_Party/LwIP/src/core/tcp.c ****  * Called from tcp_alloc() if no more connections are available.
1782:Middlewares/Third_Party/LwIP/src/core/tcp.c ****  */
1783:Middlewares/Third_Party/LwIP/src/core/tcp.c **** static void
1784:Middlewares/Third_Party/LwIP/src/core/tcp.c **** tcp_kill_timewait(void)
1785:Middlewares/Third_Party/LwIP/src/core/tcp.c **** {
1786:Middlewares/Third_Party/LwIP/src/core/tcp.c ****   struct tcp_pcb *pcb, *inactive;
1787:Middlewares/Third_Party/LwIP/src/core/tcp.c ****   u32_t inactivity;
1788:Middlewares/Third_Party/LwIP/src/core/tcp.c **** 
1789:Middlewares/Third_Party/LwIP/src/core/tcp.c ****   inactivity = 0;
1790:Middlewares/Third_Party/LwIP/src/core/tcp.c ****   inactive = NULL;
1791:Middlewares/Third_Party/LwIP/src/core/tcp.c ****   /* Go through the list of TIME_WAIT pcbs and get the oldest pcb. */
1792:Middlewares/Third_Party/LwIP/src/core/tcp.c ****   for (pcb = tcp_tw_pcbs; pcb != NULL; pcb = pcb->next) {
1793:Middlewares/Third_Party/LwIP/src/core/tcp.c ****     if ((u32_t)(tcp_ticks - pcb->tmr) >= inactivity) {
1794:Middlewares/Third_Party/LwIP/src/core/tcp.c ****       inactivity = tcp_ticks - pcb->tmr;
1795:Middlewares/Third_Party/LwIP/src/core/tcp.c ****       inactive = pcb;
1796:Middlewares/Third_Party/LwIP/src/core/tcp.c ****     }
ARM GAS  /tmp/ccoUuMsr.s 			page 45


1797:Middlewares/Third_Party/LwIP/src/core/tcp.c ****   }
1798:Middlewares/Third_Party/LwIP/src/core/tcp.c ****   if (inactive != NULL) {
1799:Middlewares/Third_Party/LwIP/src/core/tcp.c ****     LWIP_DEBUGF(TCP_DEBUG, ("tcp_kill_timewait: killing oldest TIME-WAIT PCB %p (%"S32_F")\n",
1800:Middlewares/Third_Party/LwIP/src/core/tcp.c ****                             (void *)inactive, inactivity));
1801:Middlewares/Third_Party/LwIP/src/core/tcp.c ****     tcp_abort(inactive);
1802:Middlewares/Third_Party/LwIP/src/core/tcp.c ****   }
1803:Middlewares/Third_Party/LwIP/src/core/tcp.c **** }
1804:Middlewares/Third_Party/LwIP/src/core/tcp.c **** 
1805:Middlewares/Third_Party/LwIP/src/core/tcp.c **** /* Called when allocating a pcb fails.
1806:Middlewares/Third_Party/LwIP/src/core/tcp.c ****  * In this case, we want to handle all pcbs that want to close first: if we can
1807:Middlewares/Third_Party/LwIP/src/core/tcp.c ****  * now send the FIN (which failed before), the pcb might be in a state that is
1808:Middlewares/Third_Party/LwIP/src/core/tcp.c ****  * OK for us to now free it.
1809:Middlewares/Third_Party/LwIP/src/core/tcp.c ****  */
1810:Middlewares/Third_Party/LwIP/src/core/tcp.c **** static void
1811:Middlewares/Third_Party/LwIP/src/core/tcp.c **** tcp_handle_closepend(void)
1812:Middlewares/Third_Party/LwIP/src/core/tcp.c **** {
 572              		.loc 1 1812 1 view -0
 573              		.cfi_startproc
 574              		@ args = 0, pretend = 0, frame = 0
 575              		@ frame_needed = 0, uses_anonymous_args = 0
1813:Middlewares/Third_Party/LwIP/src/core/tcp.c ****   struct tcp_pcb *pcb = tcp_active_pcbs;
 576              		.loc 1 1813 3 view .LVU146
 577              		.loc 1 1813 19 is_stmt 0 view .LVU147
 578 0000 094B     		ldr	r3, .L69
 579 0002 1868     		ldr	r0, [r3]
 580              	.LVL53:
1814:Middlewares/Third_Party/LwIP/src/core/tcp.c **** 
1815:Middlewares/Third_Party/LwIP/src/core/tcp.c ****   while (pcb != NULL) {
 581              		.loc 1 1815 3 is_stmt 1 view .LVU148
 582              		.loc 1 1815 9 view .LVU149
 583 0004 78B1     		cbz	r0, .L66
1812:Middlewares/Third_Party/LwIP/src/core/tcp.c ****   struct tcp_pcb *pcb = tcp_active_pcbs;
 584              		.loc 1 1812 1 is_stmt 0 view .LVU150
 585 0006 10B5     		push	{r4, lr}
 586              	.LCFI7:
 587              		.cfi_def_cfa_offset 8
 588              		.cfi_offset 4, -8
 589              		.cfi_offset 14, -4
 590 0008 06E0     		b	.L62
 591              	.LVL54:
 592              	.L68:
 593              	.LBB2:
1816:Middlewares/Third_Party/LwIP/src/core/tcp.c ****     struct tcp_pcb *next = pcb->next;
1817:Middlewares/Third_Party/LwIP/src/core/tcp.c ****     /* send pending FIN */
1818:Middlewares/Third_Party/LwIP/src/core/tcp.c ****     if (pcb->flags & TF_CLOSEPEND) {
1819:Middlewares/Third_Party/LwIP/src/core/tcp.c ****       LWIP_DEBUGF(TCP_DEBUG, ("tcp_handle_closepend: pending FIN\n"));
 594              		.loc 1 1819 70 is_stmt 1 view .LVU151
1820:Middlewares/Third_Party/LwIP/src/core/tcp.c ****       tcp_clear_flags(pcb, TF_CLOSEPEND);
 595              		.loc 1 1820 7 view .LVU152
 596              		.loc 1 1820 7 view .LVU153
 597 000a 23F00803 		bic	r3, r3, #8
 598 000e 4383     		strh	r3, [r0, #26]	@ movhi
 599              		.loc 1 1820 7 view .LVU154
1821:Middlewares/Third_Party/LwIP/src/core/tcp.c ****       tcp_close_shutdown_fin(pcb);
 600              		.loc 1 1821 7 view .LVU155
 601 0010 FFF7FEFF 		bl	tcp_close_shutdown_fin
 602              	.LVL55:
ARM GAS  /tmp/ccoUuMsr.s 			page 46


 603              	.L61:
 604              		.loc 1 1821 7 is_stmt 0 view .LVU156
 605              	.LBE2:
1812:Middlewares/Third_Party/LwIP/src/core/tcp.c ****   struct tcp_pcb *pcb = tcp_active_pcbs;
 606              		.loc 1 1812 1 view .LVU157
 607 0014 2046     		mov	r0, r4
 608              	.LVL56:
1815:Middlewares/Third_Party/LwIP/src/core/tcp.c ****     struct tcp_pcb *next = pcb->next;
 609              		.loc 1 1815 9 is_stmt 1 view .LVU158
 610 0016 2CB1     		cbz	r4, .L67
 611              	.LVL57:
 612              	.L62:
 613              	.LBB3:
1816:Middlewares/Third_Party/LwIP/src/core/tcp.c ****     /* send pending FIN */
 614              		.loc 1 1816 5 view .LVU159
1816:Middlewares/Third_Party/LwIP/src/core/tcp.c ****     /* send pending FIN */
 615              		.loc 1 1816 21 is_stmt 0 view .LVU160
 616 0018 C468     		ldr	r4, [r0, #12]
 617              	.LVL58:
1818:Middlewares/Third_Party/LwIP/src/core/tcp.c ****       LWIP_DEBUGF(TCP_DEBUG, ("tcp_handle_closepend: pending FIN\n"));
 618              		.loc 1 1818 5 is_stmt 1 view .LVU161
1818:Middlewares/Third_Party/LwIP/src/core/tcp.c ****       LWIP_DEBUGF(TCP_DEBUG, ("tcp_handle_closepend: pending FIN\n"));
 619              		.loc 1 1818 12 is_stmt 0 view .LVU162
 620 001a 438B     		ldrh	r3, [r0, #26]
1818:Middlewares/Third_Party/LwIP/src/core/tcp.c ****       LWIP_DEBUGF(TCP_DEBUG, ("tcp_handle_closepend: pending FIN\n"));
 621              		.loc 1 1818 8 view .LVU163
 622 001c 13F0080F 		tst	r3, #8
 623 0020 F8D0     		beq	.L61
1818:Middlewares/Third_Party/LwIP/src/core/tcp.c ****       LWIP_DEBUGF(TCP_DEBUG, ("tcp_handle_closepend: pending FIN\n"));
 624              		.loc 1 1818 8 view .LVU164
 625 0022 F2E7     		b	.L68
 626              	.LVL59:
 627              	.L67:
1818:Middlewares/Third_Party/LwIP/src/core/tcp.c ****       LWIP_DEBUGF(TCP_DEBUG, ("tcp_handle_closepend: pending FIN\n"));
 628              		.loc 1 1818 8 view .LVU165
 629              	.LBE3:
1822:Middlewares/Third_Party/LwIP/src/core/tcp.c ****     }
1823:Middlewares/Third_Party/LwIP/src/core/tcp.c ****     pcb = next;
1824:Middlewares/Third_Party/LwIP/src/core/tcp.c ****   }
1825:Middlewares/Third_Party/LwIP/src/core/tcp.c **** }
 630              		.loc 1 1825 1 view .LVU166
 631 0024 10BD     		pop	{r4, pc}
 632              	.LVL60:
 633              	.L66:
 634              	.LCFI8:
 635              		.cfi_def_cfa_offset 0
 636              		.cfi_restore 4
 637              		.cfi_restore 14
 638              		.loc 1 1825 1 view .LVU167
 639 0026 7047     		bx	lr
 640              	.L70:
 641              		.align	2
 642              	.L69:
 643 0028 00000000 		.word	tcp_active_pcbs
 644              		.cfi_endproc
 645              	.LFE188:
 647              		.section	.text.tcp_init,"ax",%progbits
ARM GAS  /tmp/ccoUuMsr.s 			page 47


 648              		.align	1
 649              		.global	tcp_init
 650              		.syntax unified
 651              		.thumb
 652              		.thumb_func
 653              		.fpu fpv4-sp-d16
 655              	tcp_init:
 656              	.LFB155:
 202:Middlewares/Third_Party/LwIP/src/core/tcp.c **** #ifdef LWIP_RAND
 657              		.loc 1 202 1 is_stmt 1 view -0
 658              		.cfi_startproc
 659              		@ args = 0, pretend = 0, frame = 0
 660              		@ frame_needed = 0, uses_anonymous_args = 0
 661 0000 08B5     		push	{r3, lr}
 662              	.LCFI9:
 663              		.cfi_def_cfa_offset 8
 664              		.cfi_offset 3, -8
 665              		.cfi_offset 14, -4
 204:Middlewares/Third_Party/LwIP/src/core/tcp.c **** #endif /* LWIP_RAND */
 666              		.loc 1 204 3 view .LVU169
 204:Middlewares/Third_Party/LwIP/src/core/tcp.c **** #endif /* LWIP_RAND */
 667              		.loc 1 204 14 is_stmt 0 view .LVU170
 668 0002 FFF7FEFF 		bl	rand
 669              	.LVL61:
 670 0006 6FEA8040 		mvn	r0, r0, lsl #18
 671 000a 6FEA9040 		mvn	r0, r0, lsr #18
 204:Middlewares/Third_Party/LwIP/src/core/tcp.c **** #endif /* LWIP_RAND */
 672              		.loc 1 204 12 view .LVU171
 673 000e 014B     		ldr	r3, .L73
 674 0010 1880     		strh	r0, [r3]	@ movhi
 206:Middlewares/Third_Party/LwIP/src/core/tcp.c **** 
 675              		.loc 1 206 1 view .LVU172
 676 0012 08BD     		pop	{r3, pc}
 677              	.L74:
 678              		.align	2
 679              	.L73:
 680 0014 00000000 		.word	.LANCHOR0
 681              		.cfi_endproc
 682              	.LFE155:
 684              		.section	.rodata.tcp_free.str1.4,"aMS",%progbits,1
 685              		.align	2
 686              	.LC6:
 687 0000 7463705F 		.ascii	"tcp_free: LISTEN\000"
 687      66726565 
 687      3A204C49 
 687      5354454E 
 687      00
 688              		.section	.text.tcp_free,"ax",%progbits
 689              		.align	1
 690              		.global	tcp_free
 691              		.syntax unified
 692              		.thumb
 693              		.thumb_func
 694              		.fpu fpv4-sp-d16
 696              	tcp_free:
 697              	.LVL62:
 698              	.LFB156:
ARM GAS  /tmp/ccoUuMsr.s 			page 48


 211:Middlewares/Third_Party/LwIP/src/core/tcp.c ****   LWIP_ASSERT("tcp_free: LISTEN", pcb->state != LISTEN);
 699              		.loc 1 211 1 is_stmt 1 view -0
 700              		.cfi_startproc
 701              		@ args = 0, pretend = 0, frame = 0
 702              		@ frame_needed = 0, uses_anonymous_args = 0
 211:Middlewares/Third_Party/LwIP/src/core/tcp.c ****   LWIP_ASSERT("tcp_free: LISTEN", pcb->state != LISTEN);
 703              		.loc 1 211 1 is_stmt 0 view .LVU174
 704 0000 10B5     		push	{r4, lr}
 705              	.LCFI10:
 706              		.cfi_def_cfa_offset 8
 707              		.cfi_offset 4, -8
 708              		.cfi_offset 14, -4
 709 0002 0446     		mov	r4, r0
 212:Middlewares/Third_Party/LwIP/src/core/tcp.c **** #if LWIP_TCP_PCB_NUM_EXT_ARGS
 710              		.loc 1 212 3 is_stmt 1 view .LVU175
 212:Middlewares/Third_Party/LwIP/src/core/tcp.c **** #if LWIP_TCP_PCB_NUM_EXT_ARGS
 711              		.loc 1 212 3 view .LVU176
 712 0004 037D     		ldrb	r3, [r0, #20]	@ zero_extendqisi2
 713 0006 012B     		cmp	r3, #1
 714 0008 04D0     		beq	.L78
 715              	.LVL63:
 716              	.L76:
 212:Middlewares/Third_Party/LwIP/src/core/tcp.c **** #if LWIP_TCP_PCB_NUM_EXT_ARGS
 717              		.loc 1 212 3 discriminator 3 view .LVU177
 212:Middlewares/Third_Party/LwIP/src/core/tcp.c **** #if LWIP_TCP_PCB_NUM_EXT_ARGS
 718              		.loc 1 212 3 discriminator 3 view .LVU178
 216:Middlewares/Third_Party/LwIP/src/core/tcp.c **** }
 719              		.loc 1 216 3 discriminator 3 view .LVU179
 720 000a 2146     		mov	r1, r4
 721 000c 0120     		movs	r0, #1
 722 000e FFF7FEFF 		bl	memp_free
 723              	.LVL64:
 217:Middlewares/Third_Party/LwIP/src/core/tcp.c **** 
 724              		.loc 1 217 1 is_stmt 0 discriminator 3 view .LVU180
 725 0012 10BD     		pop	{r4, pc}
 726              	.LVL65:
 727              	.L78:
 212:Middlewares/Third_Party/LwIP/src/core/tcp.c **** #if LWIP_TCP_PCB_NUM_EXT_ARGS
 728              		.loc 1 212 3 is_stmt 1 discriminator 1 view .LVU181
 212:Middlewares/Third_Party/LwIP/src/core/tcp.c **** #if LWIP_TCP_PCB_NUM_EXT_ARGS
 729              		.loc 1 212 3 discriminator 1 view .LVU182
 730 0014 034B     		ldr	r3, .L79
 731 0016 D422     		movs	r2, #212
 732 0018 0349     		ldr	r1, .L79+4
 733 001a 0448     		ldr	r0, .L79+8
 734              	.LVL66:
 212:Middlewares/Third_Party/LwIP/src/core/tcp.c **** #if LWIP_TCP_PCB_NUM_EXT_ARGS
 735              		.loc 1 212 3 is_stmt 0 discriminator 1 view .LVU183
 736 001c FFF7FEFF 		bl	printf
 737              	.LVL67:
 738 0020 F3E7     		b	.L76
 739              	.L80:
 740 0022 00BF     		.align	2
 741              	.L79:
 742 0024 00000000 		.word	.LC0
 743 0028 00000000 		.word	.LC6
 744 002c 54000000 		.word	.LC2
ARM GAS  /tmp/ccoUuMsr.s 			page 49


 745              		.cfi_endproc
 746              	.LFE156:
 748              		.section	.rodata.tcp_bind.str1.4,"aMS",%progbits,1
 749              		.align	2
 750              	.LC7:
 751 0000 7463705F 		.ascii	"tcp_bind: invalid pcb\000"
 751      62696E64 
 751      3A20696E 
 751      76616C69 
 751      64207063 
 752 0016 0000     		.align	2
 753              	.LC8:
 754 0018 7463705F 		.ascii	"tcp_bind: can only bind in state CLOSED\000"
 754      62696E64 
 754      3A206361 
 754      6E206F6E 
 754      6C792062 
 755              		.section	.text.tcp_bind,"ax",%progbits
 756              		.align	1
 757              		.global	tcp_bind
 758              		.syntax unified
 759              		.thumb
 760              		.thumb_func
 761              		.fpu fpv4-sp-d16
 763              	tcp_bind:
 764              	.LVL68:
 765              	.LFB167:
 662:Middlewares/Third_Party/LwIP/src/core/tcp.c ****   int i;
 766              		.loc 1 662 1 is_stmt 1 view -0
 767              		.cfi_startproc
 768              		@ args = 0, pretend = 0, frame = 0
 769              		@ frame_needed = 0, uses_anonymous_args = 0
 662:Middlewares/Third_Party/LwIP/src/core/tcp.c ****   int i;
 770              		.loc 1 662 1 is_stmt 0 view .LVU185
 771 0000 70B5     		push	{r4, r5, r6, lr}
 772              	.LCFI11:
 773              		.cfi_def_cfa_offset 16
 774              		.cfi_offset 4, -16
 775              		.cfi_offset 5, -12
 776              		.cfi_offset 6, -8
 777              		.cfi_offset 14, -4
 778 0002 0646     		mov	r6, r0
 663:Middlewares/Third_Party/LwIP/src/core/tcp.c ****   int max_pcb_list = NUM_TCP_PCB_LISTS;
 779              		.loc 1 663 3 is_stmt 1 view .LVU186
 664:Middlewares/Third_Party/LwIP/src/core/tcp.c ****   struct tcp_pcb *cpcb;
 780              		.loc 1 664 3 view .LVU187
 781              	.LVL69:
 665:Middlewares/Third_Party/LwIP/src/core/tcp.c **** #if LWIP_IPV6 && LWIP_IPV6_SCOPES
 782              		.loc 1 665 3 view .LVU188
 670:Middlewares/Third_Party/LwIP/src/core/tcp.c **** 
 783              		.loc 1 670 28 view .LVU189
 674:Middlewares/Third_Party/LwIP/src/core/tcp.c ****     ipaddr = IP4_ADDR_ANY;
 784              		.loc 1 674 3 view .LVU190
 674:Middlewares/Third_Party/LwIP/src/core/tcp.c ****     ipaddr = IP4_ADDR_ANY;
 785              		.loc 1 674 6 is_stmt 0 view .LVU191
 786 0004 0D46     		mov	r5, r1
 787 0006 59B1     		cbz	r1, .L102
ARM GAS  /tmp/ccoUuMsr.s 			page 50


 788              	.L82:
 789              	.LVL70:
 681:Middlewares/Third_Party/LwIP/src/core/tcp.c **** 
 790              		.loc 1 681 3 is_stmt 1 view .LVU192
 681:Middlewares/Third_Party/LwIP/src/core/tcp.c **** 
 791              		.loc 1 681 3 view .LVU193
 792 0008 66B1     		cbz	r6, .L103
 681:Middlewares/Third_Party/LwIP/src/core/tcp.c **** 
 793              		.loc 1 681 3 discriminator 2 view .LVU194
 683:Middlewares/Third_Party/LwIP/src/core/tcp.c **** 
 794              		.loc 1 683 3 discriminator 2 view .LVU195
 683:Middlewares/Third_Party/LwIP/src/core/tcp.c **** 
 795              		.loc 1 683 3 discriminator 2 view .LVU196
 796 000a 337D     		ldrb	r3, [r6, #20]	@ zero_extendqisi2
 797 000c A3B9     		cbnz	r3, .L104
 683:Middlewares/Third_Party/LwIP/src/core/tcp.c **** 
 798              		.loc 1 683 3 discriminator 2 view .LVU197
 708:Middlewares/Third_Party/LwIP/src/core/tcp.c ****     port = tcp_new_port();
 799              		.loc 1 708 3 discriminator 2 view .LVU198
 708:Middlewares/Third_Party/LwIP/src/core/tcp.c ****     port = tcp_new_port();
 800              		.loc 1 708 6 is_stmt 0 discriminator 2 view .LVU199
 801 000e EAB1     		cbz	r2, .L105
 715:Middlewares/Third_Party/LwIP/src/core/tcp.c ****       for (cpcb = *tcp_pcb_lists[i]; cpcb != NULL; cpcb = cpcb->next) {
 802              		.loc 1 715 12 view .LVU200
 803 0010 0020     		movs	r0, #0
 804              	.LVL71:
 805              	.L86:
 715:Middlewares/Third_Party/LwIP/src/core/tcp.c ****       for (cpcb = *tcp_pcb_lists[i]; cpcb != NULL; cpcb = cpcb->next) {
 806              		.loc 1 715 17 is_stmt 1 discriminator 1 view .LVU201
 715:Middlewares/Third_Party/LwIP/src/core/tcp.c ****       for (cpcb = *tcp_pcb_lists[i]; cpcb != NULL; cpcb = cpcb->next) {
 807              		.loc 1 715 5 is_stmt 0 discriminator 1 view .LVU202
 808 0012 0328     		cmp	r0, #3
 809 0014 1EDC     		bgt	.L87
 716:Middlewares/Third_Party/LwIP/src/core/tcp.c ****         if (cpcb->local_port == port) {
 810              		.loc 1 716 7 is_stmt 1 view .LVU203
 716:Middlewares/Third_Party/LwIP/src/core/tcp.c ****         if (cpcb->local_port == port) {
 811              		.loc 1 716 33 is_stmt 0 view .LVU204
 812 0016 264B     		ldr	r3, .L108
 813 0018 53F82030 		ldr	r3, [r3, r0, lsl #2]
 716:Middlewares/Third_Party/LwIP/src/core/tcp.c ****         if (cpcb->local_port == port) {
 814              		.loc 1 716 17 view .LVU205
 815 001c 1B68     		ldr	r3, [r3]
 816              	.LVL72:
 716:Middlewares/Third_Party/LwIP/src/core/tcp.c ****         if (cpcb->local_port == port) {
 817              		.loc 1 716 7 view .LVU206
 818 001e 27E0     		b	.L88
 819              	.LVL73:
 820              	.L102:
 675:Middlewares/Third_Party/LwIP/src/core/tcp.c ****   }
 821              		.loc 1 675 12 view .LVU207
 822 0020 244D     		ldr	r5, .L108+4
 823 0022 F1E7     		b	.L82
 824              	.LVL74:
 825              	.L103:
 681:Middlewares/Third_Party/LwIP/src/core/tcp.c **** 
 826              		.loc 1 681 3 is_stmt 1 discriminator 1 view .LVU208
 681:Middlewares/Third_Party/LwIP/src/core/tcp.c **** 
ARM GAS  /tmp/ccoUuMsr.s 			page 51


 827              		.loc 1 681 3 discriminator 1 view .LVU209
 828 0024 244B     		ldr	r3, .L108+8
 829 0026 40F2A922 		movw	r2, #681
 830              	.LVL75:
 681:Middlewares/Third_Party/LwIP/src/core/tcp.c **** 
 831              		.loc 1 681 3 is_stmt 0 discriminator 1 view .LVU210
 832 002a 2449     		ldr	r1, .L108+12
 833 002c 2448     		ldr	r0, .L108+16
 834              	.LVL76:
 681:Middlewares/Third_Party/LwIP/src/core/tcp.c **** 
 835              		.loc 1 681 3 discriminator 1 view .LVU211
 836 002e FFF7FEFF 		bl	printf
 837              	.LVL77:
 681:Middlewares/Third_Party/LwIP/src/core/tcp.c **** 
 838              		.loc 1 681 3 is_stmt 1 discriminator 1 view .LVU212
 681:Middlewares/Third_Party/LwIP/src/core/tcp.c **** 
 839              		.loc 1 681 3 discriminator 1 view .LVU213
 840 0032 6FF00F00 		mvn	r0, #15
 841 0036 19E0     		b	.L84
 842              	.LVL78:
 843              	.L104:
 683:Middlewares/Third_Party/LwIP/src/core/tcp.c **** 
 844              		.loc 1 683 3 discriminator 1 view .LVU214
 683:Middlewares/Third_Party/LwIP/src/core/tcp.c **** 
 845              		.loc 1 683 3 discriminator 1 view .LVU215
 846 0038 1F4B     		ldr	r3, .L108+8
 847 003a 40F2AB22 		movw	r2, #683
 848              	.LVL79:
 683:Middlewares/Third_Party/LwIP/src/core/tcp.c **** 
 849              		.loc 1 683 3 is_stmt 0 discriminator 1 view .LVU216
 850 003e 2149     		ldr	r1, .L108+20
 851 0040 1F48     		ldr	r0, .L108+16
 852              	.LVL80:
 683:Middlewares/Third_Party/LwIP/src/core/tcp.c **** 
 853              		.loc 1 683 3 discriminator 1 view .LVU217
 854 0042 FFF7FEFF 		bl	printf
 855              	.LVL81:
 683:Middlewares/Third_Party/LwIP/src/core/tcp.c **** 
 856              		.loc 1 683 3 is_stmt 1 discriminator 1 view .LVU218
 683:Middlewares/Third_Party/LwIP/src/core/tcp.c **** 
 857              		.loc 1 683 3 discriminator 1 view .LVU219
 858 0046 6FF00500 		mvn	r0, #5
 859 004a 0FE0     		b	.L84
 860              	.LVL82:
 861              	.L105:
 709:Middlewares/Third_Party/LwIP/src/core/tcp.c ****     if (port == 0) {
 862              		.loc 1 709 5 view .LVU220
 709:Middlewares/Third_Party/LwIP/src/core/tcp.c ****     if (port == 0) {
 863              		.loc 1 709 12 is_stmt 0 view .LVU221
 864 004c FFF7FEFF 		bl	tcp_new_port
 865              	.LVL83:
 710:Middlewares/Third_Party/LwIP/src/core/tcp.c ****       return ERR_BUF;
 866              		.loc 1 710 5 is_stmt 1 view .LVU222
 710:Middlewares/Third_Party/LwIP/src/core/tcp.c ****       return ERR_BUF;
 867              		.loc 1 710 8 is_stmt 0 view .LVU223
 868 0050 0246     		mov	r2, r0
 869 0052 F0B1     		cbz	r0, .L106
ARM GAS  /tmp/ccoUuMsr.s 			page 52


 870              	.LVL84:
 871              	.L87:
 739:Middlewares/Third_Party/LwIP/src/core/tcp.c **** #if LWIP_IPV4 && LWIP_IPV6
 872              		.loc 1 739 3 is_stmt 1 view .LVU224
 739:Middlewares/Third_Party/LwIP/src/core/tcp.c **** #if LWIP_IPV4 && LWIP_IPV6
 873              		.loc 1 739 6 is_stmt 0 view .LVU225
 874 0054 15B1     		cbz	r5, .L92
 739:Middlewares/Third_Party/LwIP/src/core/tcp.c **** #if LWIP_IPV4 && LWIP_IPV6
 875              		.loc 1 739 8 discriminator 1 view .LVU226
 876 0056 2B68     		ldr	r3, [r5]
 739:Middlewares/Third_Party/LwIP/src/core/tcp.c **** #if LWIP_IPV4 && LWIP_IPV6
 877              		.loc 1 739 7 discriminator 1 view .LVU227
 878 0058 03B1     		cbz	r3, .L92
 744:Middlewares/Third_Party/LwIP/src/core/tcp.c ****   }
 879              		.loc 1 744 5 is_stmt 1 discriminator 4 view .LVU228
 880 005a 3360     		str	r3, [r6]
 881              	.L92:
 746:Middlewares/Third_Party/LwIP/src/core/tcp.c ****   TCP_REG(&tcp_bound_pcbs, pcb);
 882              		.loc 1 746 3 view .LVU229
 746:Middlewares/Third_Party/LwIP/src/core/tcp.c ****   TCP_REG(&tcp_bound_pcbs, pcb);
 883              		.loc 1 746 19 is_stmt 0 view .LVU230
 884 005c F282     		strh	r2, [r6, #22]	@ movhi
 747:Middlewares/Third_Party/LwIP/src/core/tcp.c ****   LWIP_DEBUGF(TCP_DEBUG, ("tcp_bind: bind to port %"U16_F"\n", port));
 885              		.loc 1 747 3 is_stmt 1 view .LVU231
 747:Middlewares/Third_Party/LwIP/src/core/tcp.c ****   LWIP_DEBUGF(TCP_DEBUG, ("tcp_bind: bind to port %"U16_F"\n", port));
 886              		.loc 1 747 3 view .LVU232
 887 005e 1A4B     		ldr	r3, .L108+24
 888 0060 1A68     		ldr	r2, [r3]
 889              	.LVL85:
 747:Middlewares/Third_Party/LwIP/src/core/tcp.c ****   LWIP_DEBUGF(TCP_DEBUG, ("tcp_bind: bind to port %"U16_F"\n", port));
 890              		.loc 1 747 3 is_stmt 0 view .LVU233
 891 0062 F260     		str	r2, [r6, #12]
 747:Middlewares/Third_Party/LwIP/src/core/tcp.c ****   LWIP_DEBUGF(TCP_DEBUG, ("tcp_bind: bind to port %"U16_F"\n", port));
 892              		.loc 1 747 3 is_stmt 1 view .LVU234
 893 0064 1E60     		str	r6, [r3]
 747:Middlewares/Third_Party/LwIP/src/core/tcp.c ****   LWIP_DEBUGF(TCP_DEBUG, ("tcp_bind: bind to port %"U16_F"\n", port));
 894              		.loc 1 747 3 view .LVU235
 895 0066 FFF7FEFF 		bl	tcp_timer_needed
 896              	.LVL86:
 747:Middlewares/Third_Party/LwIP/src/core/tcp.c ****   LWIP_DEBUGF(TCP_DEBUG, ("tcp_bind: bind to port %"U16_F"\n", port));
 897              		.loc 1 747 3 view .LVU236
 748:Middlewares/Third_Party/LwIP/src/core/tcp.c ****   return ERR_OK;
 898              		.loc 1 748 70 view .LVU237
 749:Middlewares/Third_Party/LwIP/src/core/tcp.c **** }
 899              		.loc 1 749 3 view .LVU238
 749:Middlewares/Third_Party/LwIP/src/core/tcp.c **** }
 900              		.loc 1 749 10 is_stmt 0 view .LVU239
 901 006a 0020     		movs	r0, #0
 902              	.L84:
 750:Middlewares/Third_Party/LwIP/src/core/tcp.c **** 
 903              		.loc 1 750 1 view .LVU240
 904 006c 70BD     		pop	{r4, r5, r6, pc}
 905              	.LVL87:
 906              	.L89:
 716:Middlewares/Third_Party/LwIP/src/core/tcp.c ****         if (cpcb->local_port == port) {
 907              		.loc 1 716 52 is_stmt 1 discriminator 2 view .LVU241
 716:Middlewares/Third_Party/LwIP/src/core/tcp.c ****         if (cpcb->local_port == port) {
ARM GAS  /tmp/ccoUuMsr.s 			page 53


 908              		.loc 1 716 57 is_stmt 0 discriminator 2 view .LVU242
 909 006e DB68     		ldr	r3, [r3, #12]
 910              	.LVL88:
 911              	.L88:
 716:Middlewares/Third_Party/LwIP/src/core/tcp.c ****         if (cpcb->local_port == port) {
 912              		.loc 1 716 38 is_stmt 1 discriminator 1 view .LVU243
 716:Middlewares/Third_Party/LwIP/src/core/tcp.c ****         if (cpcb->local_port == port) {
 913              		.loc 1 716 7 is_stmt 0 discriminator 1 view .LVU244
 914 0070 6BB1     		cbz	r3, .L107
 717:Middlewares/Third_Party/LwIP/src/core/tcp.c **** #if SO_REUSE
 915              		.loc 1 717 9 is_stmt 1 view .LVU245
 717:Middlewares/Third_Party/LwIP/src/core/tcp.c **** #if SO_REUSE
 916              		.loc 1 717 17 is_stmt 0 view .LVU246
 917 0072 D98A     		ldrh	r1, [r3, #22]
 717:Middlewares/Third_Party/LwIP/src/core/tcp.c **** #if SO_REUSE
 918              		.loc 1 717 12 view .LVU247
 919 0074 9142     		cmp	r1, r2
 920 0076 FAD1     		bne	.L89
 727:Middlewares/Third_Party/LwIP/src/core/tcp.c ****                 (ip_addr_isany(&cpcb->local_ip) ||
 921              		.loc 1 727 13 is_stmt 1 view .LVU248
 727:Middlewares/Third_Party/LwIP/src/core/tcp.c ****                 (ip_addr_isany(&cpcb->local_ip) ||
 922              		.loc 1 727 16 is_stmt 0 view .LVU249
 923 0078 73B1     		cbz	r3, .L96
 728:Middlewares/Third_Party/LwIP/src/core/tcp.c ****                  ip_addr_isany(ipaddr) ||
 924              		.loc 1 728 18 view .LVU250
 925 007a 1968     		ldr	r1, [r3]
 926 007c 79B1     		cbz	r1, .L97
 728:Middlewares/Third_Party/LwIP/src/core/tcp.c ****                  ip_addr_isany(ipaddr) ||
 927              		.loc 1 728 49 discriminator 1 view .LVU251
 928 007e 8DB1     		cbz	r5, .L98
 729:Middlewares/Third_Party/LwIP/src/core/tcp.c ****                  ip_addr_cmp(&cpcb->local_ip, ipaddr))) {
 929              		.loc 1 729 18 view .LVU252
 930 0080 2C68     		ldr	r4, [r5]
 931 0082 94B1     		cbz	r4, .L99
 727:Middlewares/Third_Party/LwIP/src/core/tcp.c ****                 (ip_addr_isany(&cpcb->local_ip) ||
 932              		.loc 1 727 68 view .LVU253
 933 0084 A142     		cmp	r1, r4
 934 0086 F2D1     		bne	.L89
 731:Middlewares/Third_Party/LwIP/src/core/tcp.c ****             }
 935              		.loc 1 731 22 view .LVU254
 936 0088 6FF00700 		mvn	r0, #7
 937              	.LVL89:
 731:Middlewares/Third_Party/LwIP/src/core/tcp.c ****             }
 938              		.loc 1 731 22 view .LVU255
 939 008c EEE7     		b	.L84
 940              	.LVL90:
 941              	.L107:
 715:Middlewares/Third_Party/LwIP/src/core/tcp.c ****       for (cpcb = *tcp_pcb_lists[i]; cpcb != NULL; cpcb = cpcb->next) {
 942              		.loc 1 715 35 is_stmt 1 discriminator 2 view .LVU256
 715:Middlewares/Third_Party/LwIP/src/core/tcp.c ****       for (cpcb = *tcp_pcb_lists[i]; cpcb != NULL; cpcb = cpcb->next) {
 943              		.loc 1 715 36 is_stmt 0 discriminator 2 view .LVU257
 944 008e 0130     		adds	r0, r0, #1
 945              	.LVL91:
 715:Middlewares/Third_Party/LwIP/src/core/tcp.c ****       for (cpcb = *tcp_pcb_lists[i]; cpcb != NULL; cpcb = cpcb->next) {
 946              		.loc 1 715 36 discriminator 2 view .LVU258
 947 0090 BFE7     		b	.L86
 948              	.LVL92:
ARM GAS  /tmp/ccoUuMsr.s 			page 54


 949              	.L106:
 711:Middlewares/Third_Party/LwIP/src/core/tcp.c ****     }
 950              		.loc 1 711 14 view .LVU259
 951 0092 6FF00100 		mvn	r0, #1
 952              	.LVL93:
 711:Middlewares/Third_Party/LwIP/src/core/tcp.c ****     }
 953              		.loc 1 711 14 view .LVU260
 954 0096 E9E7     		b	.L84
 955              	.LVL94:
 956              	.L96:
 731:Middlewares/Third_Party/LwIP/src/core/tcp.c ****             }
 957              		.loc 1 731 22 view .LVU261
 958 0098 6FF00700 		mvn	r0, #7
 959              	.LVL95:
 731:Middlewares/Third_Party/LwIP/src/core/tcp.c ****             }
 960              		.loc 1 731 22 view .LVU262
 961 009c E6E7     		b	.L84
 962              	.LVL96:
 963              	.L97:
 731:Middlewares/Third_Party/LwIP/src/core/tcp.c ****             }
 964              		.loc 1 731 22 view .LVU263
 965 009e 6FF00700 		mvn	r0, #7
 966              	.LVL97:
 731:Middlewares/Third_Party/LwIP/src/core/tcp.c ****             }
 967              		.loc 1 731 22 view .LVU264
 968 00a2 E3E7     		b	.L84
 969              	.LVL98:
 970              	.L98:
 731:Middlewares/Third_Party/LwIP/src/core/tcp.c ****             }
 971              		.loc 1 731 22 view .LVU265
 972 00a4 6FF00700 		mvn	r0, #7
 973              	.LVL99:
 731:Middlewares/Third_Party/LwIP/src/core/tcp.c ****             }
 974              		.loc 1 731 22 view .LVU266
 975 00a8 E0E7     		b	.L84
 976              	.LVL100:
 977              	.L99:
 731:Middlewares/Third_Party/LwIP/src/core/tcp.c ****             }
 978              		.loc 1 731 22 view .LVU267
 979 00aa 6FF00700 		mvn	r0, #7
 980              	.LVL101:
 731:Middlewares/Third_Party/LwIP/src/core/tcp.c ****             }
 981              		.loc 1 731 22 view .LVU268
 982 00ae DDE7     		b	.L84
 983              	.L109:
 984              		.align	2
 985              	.L108:
 986 00b0 00000000 		.word	.LANCHOR1
 987 00b4 00000000 		.word	ip_addr_any
 988 00b8 00000000 		.word	.LC0
 989 00bc 00000000 		.word	.LC7
 990 00c0 54000000 		.word	.LC2
 991 00c4 18000000 		.word	.LC8
 992 00c8 00000000 		.word	tcp_bound_pcbs
 993              		.cfi_endproc
 994              	.LFE167:
 996              		.section	.text.tcp_bind_netif,"ax",%progbits
ARM GAS  /tmp/ccoUuMsr.s 			page 55


 997              		.align	1
 998              		.global	tcp_bind_netif
 999              		.syntax unified
 1000              		.thumb
 1001              		.thumb_func
 1002              		.fpu fpv4-sp-d16
 1004              	tcp_bind_netif:
 1005              	.LVL102:
 1006              	.LFB168:
 764:Middlewares/Third_Party/LwIP/src/core/tcp.c ****   LWIP_ASSERT_CORE_LOCKED();
 1007              		.loc 1 764 1 is_stmt 1 view -0
 1008              		.cfi_startproc
 1009              		@ args = 0, pretend = 0, frame = 0
 1010              		@ frame_needed = 0, uses_anonymous_args = 0
 1011              		@ link register save eliminated.
 765:Middlewares/Third_Party/LwIP/src/core/tcp.c ****   if (netif != NULL) {
 1012              		.loc 1 765 28 view .LVU270
 766:Middlewares/Third_Party/LwIP/src/core/tcp.c ****     pcb->netif_idx = netif_get_index(netif);
 1013              		.loc 1 766 3 view .LVU271
 766:Middlewares/Third_Party/LwIP/src/core/tcp.c ****     pcb->netif_idx = netif_get_index(netif);
 1014              		.loc 1 766 6 is_stmt 0 view .LVU272
 1015 0000 21B1     		cbz	r1, .L111
 767:Middlewares/Third_Party/LwIP/src/core/tcp.c ****   } else {
 1016              		.loc 1 767 5 is_stmt 1 view .LVU273
 767:Middlewares/Third_Party/LwIP/src/core/tcp.c ****   } else {
 1017              		.loc 1 767 22 is_stmt 0 view .LVU274
 1018 0002 91F83030 		ldrb	r3, [r1, #48]	@ zero_extendqisi2
 1019 0006 0133     		adds	r3, r3, #1
 767:Middlewares/Third_Party/LwIP/src/core/tcp.c ****   } else {
 1020              		.loc 1 767 20 view .LVU275
 1021 0008 0372     		strb	r3, [r0, #8]
 1022 000a 7047     		bx	lr
 1023              	.L111:
 769:Middlewares/Third_Party/LwIP/src/core/tcp.c ****   }
 1024              		.loc 1 769 5 is_stmt 1 view .LVU276
 769:Middlewares/Third_Party/LwIP/src/core/tcp.c ****   }
 1025              		.loc 1 769 20 is_stmt 0 view .LVU277
 1026 000c 0023     		movs	r3, #0
 1027 000e 0372     		strb	r3, [r0, #8]
 771:Middlewares/Third_Party/LwIP/src/core/tcp.c **** 
 1028              		.loc 1 771 1 view .LVU278
 1029 0010 7047     		bx	lr
 1030              		.cfi_endproc
 1031              	.LFE168:
 1033              		.section	.rodata.tcp_listen_with_backlog_and_err.str1.4,"aMS",%progbits,1
 1034              		.align	2
 1035              	.LC9:
 1036 0000 7463705F 		.ascii	"tcp_listen_with_backlog_and_err: invalid pcb\000"
 1036      6C697374 
 1036      656E5F77 
 1036      6974685F 
 1036      6261636B 
 1037 002d 000000   		.align	2
 1038              	.LC10:
 1039 0030 7463705F 		.ascii	"tcp_listen_with_backlog_and_err: pcb already connec"
 1039      6C697374 
 1039      656E5F77 
ARM GAS  /tmp/ccoUuMsr.s 			page 56


 1039      6974685F 
 1039      6261636B 
 1040 0063 74656400 		.ascii	"ted\000"
 1041              		.section	.text.tcp_listen_with_backlog_and_err,"ax",%progbits
 1042              		.align	1
 1043              		.global	tcp_listen_with_backlog_and_err
 1044              		.syntax unified
 1045              		.thumb
 1046              		.thumb_func
 1047              		.fpu fpv4-sp-d16
 1049              	tcp_listen_with_backlog_and_err:
 1050              	.LVL103:
 1051              	.LFB171:
 849:Middlewares/Third_Party/LwIP/src/core/tcp.c ****   struct tcp_pcb_listen *lpcb = NULL;
 1052              		.loc 1 849 1 is_stmt 1 view -0
 1053              		.cfi_startproc
 1054              		@ args = 0, pretend = 0, frame = 0
 1055              		@ frame_needed = 0, uses_anonymous_args = 0
 849:Middlewares/Third_Party/LwIP/src/core/tcp.c ****   struct tcp_pcb_listen *lpcb = NULL;
 1056              		.loc 1 849 1 is_stmt 0 view .LVU280
 1057 0000 70B5     		push	{r4, r5, r6, lr}
 1058              	.LCFI12:
 1059              		.cfi_def_cfa_offset 16
 1060              		.cfi_offset 4, -16
 1061              		.cfi_offset 5, -12
 1062              		.cfi_offset 6, -8
 1063              		.cfi_offset 14, -4
 1064 0002 1646     		mov	r6, r2
 850:Middlewares/Third_Party/LwIP/src/core/tcp.c ****   err_t res;
 1065              		.loc 1 850 3 is_stmt 1 view .LVU281
 1066              	.LVL104:
 851:Middlewares/Third_Party/LwIP/src/core/tcp.c **** 
 1067              		.loc 1 851 3 view .LVU282
 853:Middlewares/Third_Party/LwIP/src/core/tcp.c **** 
 1068              		.loc 1 853 3 view .LVU283
 855:Middlewares/Third_Party/LwIP/src/core/tcp.c **** 
 1069              		.loc 1 855 28 view .LVU284
 857:Middlewares/Third_Party/LwIP/src/core/tcp.c ****   LWIP_ERROR("tcp_listen_with_backlog_and_err: pcb already connected", pcb->state == CLOSED, res = 
 1070              		.loc 1 857 3 view .LVU285
 857:Middlewares/Third_Party/LwIP/src/core/tcp.c ****   LWIP_ERROR("tcp_listen_with_backlog_and_err: pcb already connected", pcb->state == CLOSED, res = 
 1071              		.loc 1 857 3 view .LVU286
 1072 0004 0446     		mov	r4, r0
 1073 0006 40B3     		cbz	r0, .L126
 857:Middlewares/Third_Party/LwIP/src/core/tcp.c ****   LWIP_ERROR("tcp_listen_with_backlog_and_err: pcb already connected", pcb->state == CLOSED, res = 
 1074              		.loc 1 857 3 discriminator 2 view .LVU287
 858:Middlewares/Third_Party/LwIP/src/core/tcp.c **** 
 1075              		.loc 1 858 3 discriminator 2 view .LVU288
 858:Middlewares/Third_Party/LwIP/src/core/tcp.c **** 
 1076              		.loc 1 858 3 discriminator 2 view .LVU289
 1077 0008 037D     		ldrb	r3, [r0, #20]	@ zero_extendqisi2
 1078 000a 002B     		cmp	r3, #0
 1079 000c 30D1     		bne	.L127
 858:Middlewares/Third_Party/LwIP/src/core/tcp.c **** 
 1080              		.loc 1 858 3 discriminator 2 view .LVU290
 861:Middlewares/Third_Party/LwIP/src/core/tcp.c ****     lpcb = (struct tcp_pcb_listen *)pcb;
 1081              		.loc 1 861 3 discriminator 2 view .LVU291
 861:Middlewares/Third_Party/LwIP/src/core/tcp.c ****     lpcb = (struct tcp_pcb_listen *)pcb;
ARM GAS  /tmp/ccoUuMsr.s 			page 57


 1082              		.loc 1 861 6 is_stmt 0 discriminator 2 view .LVU292
 1083 000e 012B     		cmp	r3, #1
 1084 0010 51D0     		beq	.L122
 882:Middlewares/Third_Party/LwIP/src/core/tcp.c ****   if (lpcb == NULL) {
 1085              		.loc 1 882 3 is_stmt 1 view .LVU293
 882:Middlewares/Third_Party/LwIP/src/core/tcp.c ****   if (lpcb == NULL) {
 1086              		.loc 1 882 35 is_stmt 0 view .LVU294
 1087 0012 0220     		movs	r0, #2
 1088              	.LVL105:
 882:Middlewares/Third_Party/LwIP/src/core/tcp.c ****   if (lpcb == NULL) {
 1089              		.loc 1 882 35 view .LVU295
 1090 0014 FFF7FEFF 		bl	memp_malloc
 1091              	.LVL106:
 883:Middlewares/Third_Party/LwIP/src/core/tcp.c ****     res = ERR_MEM;
 1092              		.loc 1 883 3 is_stmt 1 view .LVU296
 883:Middlewares/Third_Party/LwIP/src/core/tcp.c ****     res = ERR_MEM;
 1093              		.loc 1 883 6 is_stmt 0 view .LVU297
 1094 0018 0546     		mov	r5, r0
 1095 001a 0028     		cmp	r0, #0
 1096 001c 4FD0     		beq	.L123
 887:Middlewares/Third_Party/LwIP/src/core/tcp.c ****   lpcb->local_port = pcb->local_port;
 1097              		.loc 1 887 3 is_stmt 1 view .LVU298
 887:Middlewares/Third_Party/LwIP/src/core/tcp.c ****   lpcb->local_port = pcb->local_port;
 1098              		.loc 1 887 27 is_stmt 0 view .LVU299
 1099 001e 2369     		ldr	r3, [r4, #16]
 887:Middlewares/Third_Party/LwIP/src/core/tcp.c ****   lpcb->local_port = pcb->local_port;
 1100              		.loc 1 887 22 view .LVU300
 1101 0020 0361     		str	r3, [r0, #16]
 888:Middlewares/Third_Party/LwIP/src/core/tcp.c ****   lpcb->state = LISTEN;
 1102              		.loc 1 888 3 is_stmt 1 view .LVU301
 888:Middlewares/Third_Party/LwIP/src/core/tcp.c ****   lpcb->state = LISTEN;
 1103              		.loc 1 888 25 is_stmt 0 view .LVU302
 1104 0022 E38A     		ldrh	r3, [r4, #22]
 888:Middlewares/Third_Party/LwIP/src/core/tcp.c ****   lpcb->state = LISTEN;
 1105              		.loc 1 888 20 view .LVU303
 1106 0024 C382     		strh	r3, [r0, #22]	@ movhi
 889:Middlewares/Third_Party/LwIP/src/core/tcp.c ****   lpcb->prio = pcb->prio;
 1107              		.loc 1 889 3 is_stmt 1 view .LVU304
 889:Middlewares/Third_Party/LwIP/src/core/tcp.c ****   lpcb->prio = pcb->prio;
 1108              		.loc 1 889 15 is_stmt 0 view .LVU305
 1109 0026 0123     		movs	r3, #1
 1110 0028 0375     		strb	r3, [r0, #20]
 890:Middlewares/Third_Party/LwIP/src/core/tcp.c ****   lpcb->so_options = pcb->so_options;
 1111              		.loc 1 890 3 is_stmt 1 view .LVU306
 890:Middlewares/Third_Party/LwIP/src/core/tcp.c ****   lpcb->so_options = pcb->so_options;
 1112              		.loc 1 890 19 is_stmt 0 view .LVU307
 1113 002a 637D     		ldrb	r3, [r4, #21]	@ zero_extendqisi2
 890:Middlewares/Third_Party/LwIP/src/core/tcp.c ****   lpcb->so_options = pcb->so_options;
 1114              		.loc 1 890 14 view .LVU308
 1115 002c 4375     		strb	r3, [r0, #21]
 891:Middlewares/Third_Party/LwIP/src/core/tcp.c ****   lpcb->netif_idx = NETIF_NO_INDEX;
 1116              		.loc 1 891 3 is_stmt 1 view .LVU309
 891:Middlewares/Third_Party/LwIP/src/core/tcp.c ****   lpcb->netif_idx = NETIF_NO_INDEX;
 1117              		.loc 1 891 25 is_stmt 0 view .LVU310
 1118 002e 637A     		ldrb	r3, [r4, #9]	@ zero_extendqisi2
 891:Middlewares/Third_Party/LwIP/src/core/tcp.c ****   lpcb->netif_idx = NETIF_NO_INDEX;
 1119              		.loc 1 891 20 view .LVU311
ARM GAS  /tmp/ccoUuMsr.s 			page 58


 1120 0030 4372     		strb	r3, [r0, #9]
 892:Middlewares/Third_Party/LwIP/src/core/tcp.c ****   lpcb->ttl = pcb->ttl;
 1121              		.loc 1 892 3 is_stmt 1 view .LVU312
 892:Middlewares/Third_Party/LwIP/src/core/tcp.c ****   lpcb->ttl = pcb->ttl;
 1122              		.loc 1 892 19 is_stmt 0 view .LVU313
 1123 0032 0023     		movs	r3, #0
 1124 0034 0372     		strb	r3, [r0, #8]
 893:Middlewares/Third_Party/LwIP/src/core/tcp.c ****   lpcb->tos = pcb->tos;
 1125              		.loc 1 893 3 is_stmt 1 view .LVU314
 893:Middlewares/Third_Party/LwIP/src/core/tcp.c ****   lpcb->tos = pcb->tos;
 1126              		.loc 1 893 18 is_stmt 0 view .LVU315
 1127 0036 E37A     		ldrb	r3, [r4, #11]	@ zero_extendqisi2
 893:Middlewares/Third_Party/LwIP/src/core/tcp.c ****   lpcb->tos = pcb->tos;
 1128              		.loc 1 893 13 view .LVU316
 1129 0038 C372     		strb	r3, [r0, #11]
 894:Middlewares/Third_Party/LwIP/src/core/tcp.c **** #if LWIP_IPV4 && LWIP_IPV6
 1130              		.loc 1 894 3 is_stmt 1 view .LVU317
 894:Middlewares/Third_Party/LwIP/src/core/tcp.c **** #if LWIP_IPV4 && LWIP_IPV6
 1131              		.loc 1 894 18 is_stmt 0 view .LVU318
 1132 003a A37A     		ldrb	r3, [r4, #10]	@ zero_extendqisi2
 894:Middlewares/Third_Party/LwIP/src/core/tcp.c **** #if LWIP_IPV4 && LWIP_IPV6
 1133              		.loc 1 894 13 view .LVU319
 1134 003c 8372     		strb	r3, [r0, #10]
 898:Middlewares/Third_Party/LwIP/src/core/tcp.c ****   if (pcb->local_port != 0) {
 1135              		.loc 1 898 3 is_stmt 1 view .LVU320
 1136 003e 2368     		ldr	r3, [r4]
 1137 0040 0360     		str	r3, [r0]
 899:Middlewares/Third_Party/LwIP/src/core/tcp.c ****     TCP_RMV(&tcp_bound_pcbs, pcb);
 1138              		.loc 1 899 3 view .LVU321
 899:Middlewares/Third_Party/LwIP/src/core/tcp.c ****     TCP_RMV(&tcp_bound_pcbs, pcb);
 1139              		.loc 1 899 10 is_stmt 0 view .LVU322
 1140 0042 E38A     		ldrh	r3, [r4, #22]
 899:Middlewares/Third_Party/LwIP/src/core/tcp.c ****     TCP_RMV(&tcp_bound_pcbs, pcb);
 1141              		.loc 1 899 6 view .LVU323
 1142 0044 3BB3     		cbz	r3, .L117
 900:Middlewares/Third_Party/LwIP/src/core/tcp.c ****   }
 1143              		.loc 1 900 5 is_stmt 1 view .LVU324
 900:Middlewares/Third_Party/LwIP/src/core/tcp.c ****   }
 1144              		.loc 1 900 5 view .LVU325
 1145 0046 1F4B     		ldr	r3, .L130
 1146 0048 1B68     		ldr	r3, [r3]
 1147 004a A342     		cmp	r3, r4
 1148 004c 1BD0     		beq	.L128
 1149              	.L118:
 1150              	.LVL107:
 1151              	.LBB4:
 900:Middlewares/Third_Party/LwIP/src/core/tcp.c ****   }
 1152              		.loc 1 900 5 discriminator 8 view .LVU326
 1153 004e 03B3     		cbz	r3, .L119
 900:Middlewares/Third_Party/LwIP/src/core/tcp.c ****   }
 1154              		.loc 1 900 5 discriminator 9 view .LVU327
 1155 0050 DA68     		ldr	r2, [r3, #12]
 1156 0052 A242     		cmp	r2, r4
 1157 0054 1BD0     		beq	.L129
 900:Middlewares/Third_Party/LwIP/src/core/tcp.c ****   }
 1158              		.loc 1 900 5 is_stmt 0 view .LVU328
 1159 0056 1346     		mov	r3, r2
ARM GAS  /tmp/ccoUuMsr.s 			page 59


 1160              	.LVL108:
 900:Middlewares/Third_Party/LwIP/src/core/tcp.c ****   }
 1161              		.loc 1 900 5 view .LVU329
 1162 0058 F9E7     		b	.L118
 1163              	.LVL109:
 1164              	.L126:
 900:Middlewares/Third_Party/LwIP/src/core/tcp.c ****   }
 1165              		.loc 1 900 5 view .LVU330
 1166              	.LBE4:
 857:Middlewares/Third_Party/LwIP/src/core/tcp.c ****   LWIP_ERROR("tcp_listen_with_backlog_and_err: pcb already connected", pcb->state == CLOSED, res = 
 1167              		.loc 1 857 3 is_stmt 1 discriminator 1 view .LVU331
 857:Middlewares/Third_Party/LwIP/src/core/tcp.c ****   LWIP_ERROR("tcp_listen_with_backlog_and_err: pcb already connected", pcb->state == CLOSED, res = 
 1168              		.loc 1 857 3 discriminator 1 view .LVU332
 1169 005a 1B4B     		ldr	r3, .L130+4
 1170 005c 40F25932 		movw	r2, #857
 1171              	.LVL110:
 857:Middlewares/Third_Party/LwIP/src/core/tcp.c ****   LWIP_ERROR("tcp_listen_with_backlog_and_err: pcb already connected", pcb->state == CLOSED, res = 
 1172              		.loc 1 857 3 is_stmt 0 discriminator 1 view .LVU333
 1173 0060 1A49     		ldr	r1, .L130+8
 1174              	.LVL111:
 857:Middlewares/Third_Party/LwIP/src/core/tcp.c ****   LWIP_ERROR("tcp_listen_with_backlog_and_err: pcb already connected", pcb->state == CLOSED, res = 
 1175              		.loc 1 857 3 discriminator 1 view .LVU334
 1176 0062 1B48     		ldr	r0, .L130+12
 1177              	.LVL112:
 857:Middlewares/Third_Party/LwIP/src/core/tcp.c ****   LWIP_ERROR("tcp_listen_with_backlog_and_err: pcb already connected", pcb->state == CLOSED, res = 
 1178              		.loc 1 857 3 discriminator 1 view .LVU335
 1179 0064 FFF7FEFF 		bl	printf
 1180              	.LVL113:
 857:Middlewares/Third_Party/LwIP/src/core/tcp.c ****   LWIP_ERROR("tcp_listen_with_backlog_and_err: pcb already connected", pcb->state == CLOSED, res = 
 1181              		.loc 1 857 3 is_stmt 1 discriminator 1 view .LVU336
 857:Middlewares/Third_Party/LwIP/src/core/tcp.c ****   LWIP_ERROR("tcp_listen_with_backlog_and_err: pcb already connected", pcb->state == CLOSED, res = 
 1182              		.loc 1 857 3 discriminator 1 view .LVU337
 857:Middlewares/Third_Party/LwIP/src/core/tcp.c ****   LWIP_ERROR("tcp_listen_with_backlog_and_err: pcb already connected", pcb->state == CLOSED, res = 
 1183              		.loc 1 857 3 discriminator 1 view .LVU338
 850:Middlewares/Third_Party/LwIP/src/core/tcp.c ****   err_t res;
 1184              		.loc 1 850 26 is_stmt 0 discriminator 1 view .LVU339
 1185 0068 2546     		mov	r5, r4
 857:Middlewares/Third_Party/LwIP/src/core/tcp.c ****   LWIP_ERROR("tcp_listen_with_backlog_and_err: pcb already connected", pcb->state == CLOSED, res = 
 1186              		.loc 1 857 3 discriminator 1 view .LVU340
 1187 006a 6FF00F03 		mvn	r3, #15
 1188 006e 1EE0     		b	.L115
 1189              	.LVL114:
 1190              	.L127:
 858:Middlewares/Third_Party/LwIP/src/core/tcp.c **** 
 1191              		.loc 1 858 3 is_stmt 1 discriminator 1 view .LVU341
 858:Middlewares/Third_Party/LwIP/src/core/tcp.c **** 
 1192              		.loc 1 858 3 discriminator 1 view .LVU342
 1193 0070 154B     		ldr	r3, .L130+4
 1194 0072 40F25A32 		movw	r2, #858
 1195              	.LVL115:
 858:Middlewares/Third_Party/LwIP/src/core/tcp.c **** 
 1196              		.loc 1 858 3 is_stmt 0 discriminator 1 view .LVU343
 1197 0076 1749     		ldr	r1, .L130+16
 1198              	.LVL116:
 858:Middlewares/Third_Party/LwIP/src/core/tcp.c **** 
 1199              		.loc 1 858 3 discriminator 1 view .LVU344
 1200 0078 1548     		ldr	r0, .L130+12
ARM GAS  /tmp/ccoUuMsr.s 			page 60


 1201              	.LVL117:
 858:Middlewares/Third_Party/LwIP/src/core/tcp.c **** 
 1202              		.loc 1 858 3 discriminator 1 view .LVU345
 1203 007a FFF7FEFF 		bl	printf
 1204              	.LVL118:
 858:Middlewares/Third_Party/LwIP/src/core/tcp.c **** 
 1205              		.loc 1 858 3 is_stmt 1 discriminator 1 view .LVU346
 858:Middlewares/Third_Party/LwIP/src/core/tcp.c **** 
 1206              		.loc 1 858 3 discriminator 1 view .LVU347
 858:Middlewares/Third_Party/LwIP/src/core/tcp.c **** 
 1207              		.loc 1 858 3 discriminator 1 view .LVU348
 1208 007e 6FF00E03 		mvn	r3, #14
 850:Middlewares/Third_Party/LwIP/src/core/tcp.c ****   err_t res;
 1209              		.loc 1 850 26 is_stmt 0 discriminator 1 view .LVU349
 1210 0082 0025     		movs	r5, #0
 858:Middlewares/Third_Party/LwIP/src/core/tcp.c **** 
 1211              		.loc 1 858 3 discriminator 1 view .LVU350
 1212 0084 13E0     		b	.L115
 1213              	.LVL119:
 1214              	.L128:
 900:Middlewares/Third_Party/LwIP/src/core/tcp.c ****   }
 1215              		.loc 1 900 5 is_stmt 1 discriminator 1 view .LVU351
 1216 0086 DA68     		ldr	r2, [r3, #12]
 1217 0088 0E4B     		ldr	r3, .L130
 1218 008a 1A60     		str	r2, [r3]
 1219 008c 01E0     		b	.L119
 1220              	.LVL120:
 1221              	.L129:
 1222              	.LBB5:
 900:Middlewares/Third_Party/LwIP/src/core/tcp.c ****   }
 1223              		.loc 1 900 5 discriminator 5 view .LVU352
 1224 008e E268     		ldr	r2, [r4, #12]
 1225 0090 DA60     		str	r2, [r3, #12]
 900:Middlewares/Third_Party/LwIP/src/core/tcp.c ****   }
 1226              		.loc 1 900 5 discriminator 5 view .LVU353
 1227              	.LVL121:
 1228              	.L119:
 900:Middlewares/Third_Party/LwIP/src/core/tcp.c ****   }
 1229              		.loc 1 900 5 is_stmt 0 discriminator 5 view .LVU354
 1230              	.LBE5:
 900:Middlewares/Third_Party/LwIP/src/core/tcp.c ****   }
 1231              		.loc 1 900 5 is_stmt 1 discriminator 10 view .LVU355
 1232 0092 0023     		movs	r3, #0
 1233 0094 E360     		str	r3, [r4, #12]
 1234              	.L117:
 900:Middlewares/Third_Party/LwIP/src/core/tcp.c ****   }
 1235              		.loc 1 900 5 discriminator 11 view .LVU356
 906:Middlewares/Third_Party/LwIP/src/core/tcp.c **** #if LWIP_CALLBACK_API
 1236              		.loc 1 906 3 discriminator 11 view .LVU357
 1237 0096 2046     		mov	r0, r4
 1238              	.LVL122:
 906:Middlewares/Third_Party/LwIP/src/core/tcp.c **** #if LWIP_CALLBACK_API
 1239              		.loc 1 906 3 is_stmt 0 discriminator 11 view .LVU358
 1240 0098 FFF7FEFF 		bl	tcp_free
 1241              	.LVL123:
 908:Middlewares/Third_Party/LwIP/src/core/tcp.c **** #endif /* LWIP_CALLBACK_API */
 1242              		.loc 1 908 3 is_stmt 1 discriminator 11 view .LVU359
ARM GAS  /tmp/ccoUuMsr.s 			page 61


 908:Middlewares/Third_Party/LwIP/src/core/tcp.c **** #endif /* LWIP_CALLBACK_API */
 1243              		.loc 1 908 16 is_stmt 0 discriminator 11 view .LVU360
 1244 009c 0E4B     		ldr	r3, .L130+20
 1245 009e AB61     		str	r3, [r5, #24]
 914:Middlewares/Third_Party/LwIP/src/core/tcp.c ****   res = ERR_OK;
 1246              		.loc 1 914 3 is_stmt 1 discriminator 11 view .LVU361
 914:Middlewares/Third_Party/LwIP/src/core/tcp.c ****   res = ERR_OK;
 1247              		.loc 1 914 3 discriminator 11 view .LVU362
 1248 00a0 0E4B     		ldr	r3, .L130+24
 1249 00a2 1A68     		ldr	r2, [r3]
 1250 00a4 EA60     		str	r2, [r5, #12]
 914:Middlewares/Third_Party/LwIP/src/core/tcp.c ****   res = ERR_OK;
 1251              		.loc 1 914 3 discriminator 11 view .LVU363
 1252 00a6 1D60     		str	r5, [r3]
 914:Middlewares/Third_Party/LwIP/src/core/tcp.c ****   res = ERR_OK;
 1253              		.loc 1 914 3 discriminator 11 view .LVU364
 1254 00a8 FFF7FEFF 		bl	tcp_timer_needed
 1255              	.LVL124:
 914:Middlewares/Third_Party/LwIP/src/core/tcp.c ****   res = ERR_OK;
 1256              		.loc 1 914 3 discriminator 11 view .LVU365
 915:Middlewares/Third_Party/LwIP/src/core/tcp.c **** done:
 1257              		.loc 1 915 3 discriminator 11 view .LVU366
 915:Middlewares/Third_Party/LwIP/src/core/tcp.c **** done:
 1258              		.loc 1 915 7 is_stmt 0 discriminator 11 view .LVU367
 1259 00ac 0023     		movs	r3, #0
 1260              	.LVL125:
 1261              	.L115:
 917:Middlewares/Third_Party/LwIP/src/core/tcp.c ****     *err = res;
 1262              		.loc 1 917 3 is_stmt 1 view .LVU368
 917:Middlewares/Third_Party/LwIP/src/core/tcp.c ****     *err = res;
 1263              		.loc 1 917 6 is_stmt 0 view .LVU369
 1264 00ae 06B1     		cbz	r6, .L113
 918:Middlewares/Third_Party/LwIP/src/core/tcp.c ****   }
 1265              		.loc 1 918 5 is_stmt 1 view .LVU370
 918:Middlewares/Third_Party/LwIP/src/core/tcp.c ****   }
 1266              		.loc 1 918 10 is_stmt 0 view .LVU371
 1267 00b0 3370     		strb	r3, [r6]
 920:Middlewares/Third_Party/LwIP/src/core/tcp.c **** }
 1268              		.loc 1 920 3 is_stmt 1 view .LVU372
 1269              	.L113:
 921:Middlewares/Third_Party/LwIP/src/core/tcp.c **** 
 1270              		.loc 1 921 1 is_stmt 0 view .LVU373
 1271 00b2 2846     		mov	r0, r5
 1272 00b4 70BD     		pop	{r4, r5, r6, pc}
 1273              	.LVL126:
 1274              	.L122:
 862:Middlewares/Third_Party/LwIP/src/core/tcp.c ****     res = ERR_ALREADY;
 1275              		.loc 1 862 10 view .LVU374
 1276 00b6 0546     		mov	r5, r0
 863:Middlewares/Third_Party/LwIP/src/core/tcp.c ****     goto done;
 1277              		.loc 1 863 9 view .LVU375
 1278 00b8 6FF00803 		mvn	r3, #8
 1279 00bc F7E7     		b	.L115
 1280              	.LVL127:
 1281              	.L123:
 884:Middlewares/Third_Party/LwIP/src/core/tcp.c ****     goto done;
 1282              		.loc 1 884 9 view .LVU376
ARM GAS  /tmp/ccoUuMsr.s 			page 62


 1283 00be 4FF0FF33 		mov	r3, #-1
 1284 00c2 F4E7     		b	.L115
 1285              	.L131:
 1286              		.align	2
 1287              	.L130:
 1288 00c4 00000000 		.word	tcp_bound_pcbs
 1289 00c8 00000000 		.word	.LC0
 1290 00cc 00000000 		.word	.LC9
 1291 00d0 54000000 		.word	.LC2
 1292 00d4 30000000 		.word	.LC10
 1293 00d8 00000000 		.word	tcp_accept_null
 1294 00dc 00000000 		.word	tcp_listen_pcbs
 1295              		.cfi_endproc
 1296              	.LFE171:
 1298              		.section	.text.tcp_listen_with_backlog,"ax",%progbits
 1299              		.align	1
 1300              		.global	tcp_listen_with_backlog
 1301              		.syntax unified
 1302              		.thumb
 1303              		.thumb_func
 1304              		.fpu fpv4-sp-d16
 1306              	tcp_listen_with_backlog:
 1307              	.LVL128:
 1308              	.LFB170:
 826:Middlewares/Third_Party/LwIP/src/core/tcp.c ****   LWIP_ASSERT_CORE_LOCKED();
 1309              		.loc 1 826 1 is_stmt 1 view -0
 1310              		.cfi_startproc
 1311              		@ args = 0, pretend = 0, frame = 0
 1312              		@ frame_needed = 0, uses_anonymous_args = 0
 826:Middlewares/Third_Party/LwIP/src/core/tcp.c ****   LWIP_ASSERT_CORE_LOCKED();
 1313              		.loc 1 826 1 is_stmt 0 view .LVU378
 1314 0000 08B5     		push	{r3, lr}
 1315              	.LCFI13:
 1316              		.cfi_def_cfa_offset 8
 1317              		.cfi_offset 3, -8
 1318              		.cfi_offset 14, -4
 827:Middlewares/Third_Party/LwIP/src/core/tcp.c ****   return tcp_listen_with_backlog_and_err(pcb, backlog, NULL);
 1319              		.loc 1 827 28 is_stmt 1 view .LVU379
 828:Middlewares/Third_Party/LwIP/src/core/tcp.c **** }
 1320              		.loc 1 828 3 view .LVU380
 828:Middlewares/Third_Party/LwIP/src/core/tcp.c **** }
 1321              		.loc 1 828 10 is_stmt 0 view .LVU381
 1322 0002 0022     		movs	r2, #0
 1323 0004 FFF7FEFF 		bl	tcp_listen_with_backlog_and_err
 1324              	.LVL129:
 829:Middlewares/Third_Party/LwIP/src/core/tcp.c **** 
 1325              		.loc 1 829 1 view .LVU382
 1326 0008 08BD     		pop	{r3, pc}
 1327              		.cfi_endproc
 1328              	.LFE170:
 1330              		.section	.rodata.tcp_update_rcv_ann_wnd.str1.4,"aMS",%progbits,1
 1331              		.align	2
 1332              	.LC11:
 1333 0000 7463705F 		.ascii	"tcp_update_rcv_ann_wnd: invalid pcb\000"
 1333      75706461 
 1333      74655F72 
 1333      63765F61 
ARM GAS  /tmp/ccoUuMsr.s 			page 63


 1333      6E6E5F77 
 1334              		.align	2
 1335              	.LC12:
 1336 0024 6E65775F 		.ascii	"new_rcv_ann_wnd <= 0xffff\000"
 1336      7263765F 
 1336      616E6E5F 
 1336      776E6420 
 1336      3C3D2030 
 1337              		.section	.text.tcp_update_rcv_ann_wnd,"ax",%progbits
 1338              		.align	1
 1339              		.global	tcp_update_rcv_ann_wnd
 1340              		.syntax unified
 1341              		.thumb
 1342              		.thumb_func
 1343              		.fpu fpv4-sp-d16
 1345              	tcp_update_rcv_ann_wnd:
 1346              	.LVL130:
 1347              	.LFB172:
 931:Middlewares/Third_Party/LwIP/src/core/tcp.c ****   u32_t new_right_edge;
 1348              		.loc 1 931 1 is_stmt 1 view -0
 1349              		.cfi_startproc
 1350              		@ args = 0, pretend = 0, frame = 0
 1351              		@ frame_needed = 0, uses_anonymous_args = 0
 931:Middlewares/Third_Party/LwIP/src/core/tcp.c ****   u32_t new_right_edge;
 1352              		.loc 1 931 1 is_stmt 0 view .LVU384
 1353 0000 38B5     		push	{r3, r4, r5, lr}
 1354              	.LCFI14:
 1355              		.cfi_def_cfa_offset 16
 1356              		.cfi_offset 3, -16
 1357              		.cfi_offset 4, -12
 1358              		.cfi_offset 5, -8
 1359              		.cfi_offset 14, -4
 932:Middlewares/Third_Party/LwIP/src/core/tcp.c **** 
 1360              		.loc 1 932 3 is_stmt 1 view .LVU385
 934:Middlewares/Third_Party/LwIP/src/core/tcp.c ****   new_right_edge = pcb->rcv_nxt + pcb->rcv_wnd;
 1361              		.loc 1 934 3 view .LVU386
 934:Middlewares/Third_Party/LwIP/src/core/tcp.c ****   new_right_edge = pcb->rcv_nxt + pcb->rcv_wnd;
 1362              		.loc 1 934 3 view .LVU387
 1363 0002 0446     		mov	r4, r0
 1364 0004 80B1     		cbz	r0, .L142
 1365              	.LVL131:
 1366              	.L135:
 934:Middlewares/Third_Party/LwIP/src/core/tcp.c ****   new_right_edge = pcb->rcv_nxt + pcb->rcv_wnd;
 1367              		.loc 1 934 3 discriminator 3 view .LVU388
 934:Middlewares/Third_Party/LwIP/src/core/tcp.c ****   new_right_edge = pcb->rcv_nxt + pcb->rcv_wnd;
 1368              		.loc 1 934 3 discriminator 3 view .LVU389
 935:Middlewares/Third_Party/LwIP/src/core/tcp.c **** 
 1369              		.loc 1 935 3 discriminator 3 view .LVU390
 935:Middlewares/Third_Party/LwIP/src/core/tcp.c **** 
 1370              		.loc 1 935 23 is_stmt 0 discriminator 3 view .LVU391
 1371 0006 656A     		ldr	r5, [r4, #36]
 935:Middlewares/Third_Party/LwIP/src/core/tcp.c **** 
 1372              		.loc 1 935 38 discriminator 3 view .LVU392
 1373 0008 218D     		ldrh	r1, [r4, #40]
 935:Middlewares/Third_Party/LwIP/src/core/tcp.c **** 
 1374              		.loc 1 935 18 discriminator 3 view .LVU393
 1375 000a 6818     		adds	r0, r5, r1
ARM GAS  /tmp/ccoUuMsr.s 			page 64


 1376              	.LVL132:
 937:Middlewares/Third_Party/LwIP/src/core/tcp.c ****     /* we can advertise more window */
 1377              		.loc 1 937 3 is_stmt 1 discriminator 3 view .LVU394
 937:Middlewares/Third_Party/LwIP/src/core/tcp.c ****     /* we can advertise more window */
 1378              		.loc 1 937 7 is_stmt 0 discriminator 3 view .LVU395
 1379 000c E26A     		ldr	r2, [r4, #44]
 1380 000e 638E     		ldrh	r3, [r4, #50]
 1381 0010 B3F5866F 		cmp	r3, #1072
 1382 0014 94BF     		ite	ls
 1383 0016 D318     		addls	r3, r2, r3
 1384 0018 02F58663 		addhi	r3, r2, #1072
 1385 001c C31A     		subs	r3, r0, r3
 937:Middlewares/Third_Party/LwIP/src/core/tcp.c ****     /* we can advertise more window */
 1386              		.loc 1 937 6 discriminator 3 view .LVU396
 1387 001e 002B     		cmp	r3, #0
 1388 0020 0ADB     		blt	.L136
 939:Middlewares/Third_Party/LwIP/src/core/tcp.c ****     return new_right_edge - pcb->rcv_ann_right_edge;
 1389              		.loc 1 939 5 is_stmt 1 view .LVU397
 939:Middlewares/Third_Party/LwIP/src/core/tcp.c ****     return new_right_edge - pcb->rcv_ann_right_edge;
 1390              		.loc 1 939 22 is_stmt 0 view .LVU398
 1391 0022 6185     		strh	r1, [r4, #42]	@ movhi
 940:Middlewares/Third_Party/LwIP/src/core/tcp.c ****   } else {
 1392              		.loc 1 940 5 is_stmt 1 view .LVU399
 940:Middlewares/Third_Party/LwIP/src/core/tcp.c ****   } else {
 1393              		.loc 1 940 27 is_stmt 0 view .LVU400
 1394 0024 801A     		subs	r0, r0, r2
 1395              	.LVL133:
 1396              	.L134:
 956:Middlewares/Third_Party/LwIP/src/core/tcp.c **** 
 1397              		.loc 1 956 1 view .LVU401
 1398 0026 38BD     		pop	{r3, r4, r5, pc}
 1399              	.LVL134:
 1400              	.L142:
 934:Middlewares/Third_Party/LwIP/src/core/tcp.c ****   new_right_edge = pcb->rcv_nxt + pcb->rcv_wnd;
 1401              		.loc 1 934 3 is_stmt 1 discriminator 1 view .LVU402
 934:Middlewares/Third_Party/LwIP/src/core/tcp.c ****   new_right_edge = pcb->rcv_nxt + pcb->rcv_wnd;
 1402              		.loc 1 934 3 discriminator 1 view .LVU403
 1403 0028 0E4B     		ldr	r3, .L144
 1404 002a 40F2A632 		movw	r2, #934
 1405 002e 0E49     		ldr	r1, .L144+4
 1406 0030 0E48     		ldr	r0, .L144+8
 1407              	.LVL135:
 934:Middlewares/Third_Party/LwIP/src/core/tcp.c ****   new_right_edge = pcb->rcv_nxt + pcb->rcv_wnd;
 1408              		.loc 1 934 3 is_stmt 0 discriminator 1 view .LVU404
 1409 0032 FFF7FEFF 		bl	printf
 1410              	.LVL136:
 1411 0036 E6E7     		b	.L135
 1412              	.LVL137:
 1413              	.L136:
 942:Middlewares/Third_Party/LwIP/src/core/tcp.c ****       /* Can happen due to other end sending out of advertised window,
